
/home/seankent/bluejay/ip/central_processing_unit/sim/gen/sim__xyz/JAL-01/JAL-01.elf:     file format elf64-littleriscv


Disassembly of section .text.init:

0000000080000000 <rvtest_entry_point>:
    80000000:	0440006f          	jal	x0,80000044 <reset_vector>

0000000080000004 <trap_vector>:
    80000004:	342022f3          	csrrs	x5,mcause,x0
    80000008:	00800313          	addi	x6,x0,8
    8000000c:	02628663          	beq	x5,x6,80000038 <write_tohost>
    80000010:	00900313          	addi	x6,x0,9
    80000014:	02628263          	beq	x5,x6,80000038 <write_tohost>
    80000018:	00b00313          	addi	x6,x0,11
    8000001c:	00628e63          	beq	x5,x6,80000038 <write_tohost>
    80000020:	00000293          	addi	x5,x0,0
    80000024:	00028463          	beq	x5,x0,8000002c <trap_vector+0x28>
    80000028:	00028067          	jalr	x0,0(x5)
    8000002c:	342022f3          	csrrs	x5,mcause,x0
    80000030:	0002d263          	bge	x5,x0,80000034 <handle_exception>

0000000080000034 <handle_exception>:
    80000034:	5391e193          	ori	x3,x3,1337

0000000080000038 <write_tohost>:
    80000038:	00003297          	auipc	x5,0x3
    8000003c:	fc32a423          	sw	x3,-56(x5) # 80003000 <tohost>
    80000040:	ff9ff06f          	jal	x0,80000038 <write_tohost>

0000000080000044 <reset_vector>:
    80000044:	00002537          	lui	x10,0x2
    80000048:	8005051b          	addiw	x10,x10,-2048 # 1800 <offset+0x1800>
    8000004c:	30052073          	csrrs	x0,mstatus,x10
    80000050:	00000297          	auipc	x5,0x0
    80000054:	fb428293          	addi	x5,x5,-76 # 80000004 <trap_vector>
    80000058:	30529073          	csrrw	x0,mtvec,x5
    8000005c:	00000297          	auipc	x5,0x0
    80000060:	02428293          	addi	x5,x5,36 # 80000080 <rvtest_init>
    80000064:	34129073          	csrrw	x0,mepc,x5
    80000068:	f1402573          	csrrs	x10,mhartid,x0
    8000006c:	30200073          	mret
    80000070:	00000013          	addi	x0,x0,0
    80000074:	00000013          	addi	x0,x0,0
    80000078:	00000013          	addi	x0,x0,0
    8000007c:	00000013          	addi	x0,x0,0

0000000080000080 <rvtest_init>:
    80000080:	ff76e0b7          	lui	x1,0xff76e
    80000084:	f570809b          	addiw	x1,x1,-169 # ffffffffff76df57 <_end+0xffffffff7f76944f>
    80000088:	01309093          	slli	x1,x1,0x13
    8000008c:	bb708093          	addi	x1,x1,-1097
    80000090:	00e09093          	slli	x1,x1,0xe
    80000094:	ead08093          	addi	x1,x1,-339
    80000098:	ff76e137          	lui	x2,0xff76e
    8000009c:	f571011b          	addiw	x2,x2,-169 # ffffffffff76df57 <_end+0xffffffff7f76944f>
    800000a0:	01311113          	slli	x2,x2,0x13
    800000a4:	bb710113          	addi	x2,x2,-1097
    800000a8:	00d11113          	slli	x2,x2,0xd
    800000ac:	f5610113          	addi	x2,x2,-170
    800000b0:	000801b7          	lui	x3,0x80
    800000b4:	bb71819b          	addiw	x3,x3,-1097 # 7fbb7 <offset+0x7fbb7>
    800000b8:	00d19193          	slli	x3,x3,0xd
    800000bc:	f5718193          	addi	x3,x3,-169
    800000c0:	01319193          	slli	x3,x3,0x13
    800000c4:	bb718193          	addi	x3,x3,-1097
    800000c8:	00c19193          	slli	x3,x3,0xc
    800000cc:	fab18193          	addi	x3,x3,-85
    800000d0:	fff80237          	lui	x4,0xfff80
    800000d4:	bb72021b          	addiw	x4,x4,-1097 # fffffffffff7fbb7 <_end+0xffffffff7ff7b0af>
    800000d8:	00d21213          	slli	x4,x4,0xd
    800000dc:	f5720213          	addi	x4,x4,-169 # ffffffffffffff57 <_end+0xffffffff7fffb44f>
    800000e0:	01221213          	slli	x4,x4,0x12
    800000e4:	ddb20213          	addi	x4,x4,-549 # fffffffffffffddb <_end+0xffffffff7fffb2d3>
    800000e8:	00c21213          	slli	x4,x4,0xc
    800000ec:	7d520213          	addi	x4,x4,2005 # 7d5 <offset+0x7d5>
    800000f0:	00000297          	auipc	x5,0x0
    800000f4:	32028293          	addi	x5,x5,800 # 80000410 <rvtest_code_begin>
    800000f8:	00004317          	auipc	x6,0x4
    800000fc:	f0830313          	addi	x6,x6,-248 # 80004000 <rvtest_data_begin>
    80000100:	ffb803b7          	lui	x7,0xffb80
    80000104:	bb73839b          	addiw	x7,x7,-1097 # ffffffffffb7fbb7 <_end+0xffffffff7fb7b0af>
    80000108:	00d39393          	slli	x7,x7,0xd
    8000010c:	f5738393          	addi	x7,x7,-169
    80000110:	00f39393          	slli	x7,x7,0xf
    80000114:	fbb38393          	addi	x7,x7,-69
    80000118:	00c39393          	slli	x7,x7,0xc
    8000011c:	6fa38393          	addi	x7,x7,1786
    80000120:	00b80437          	lui	x8,0xb80
    80000124:	bb74041b          	addiw	x8,x8,-1097 # b7fbb7 <offset+0xb7fbb7>
    80000128:	00d41413          	slli	x8,x8,0xd
    8000012c:	f5740413          	addi	x8,x8,-169
    80000130:	00d41413          	slli	x8,x8,0xd
    80000134:	fef40413          	addi	x8,x8,-17
    80000138:	00d41413          	slli	x8,x8,0xd
    8000013c:	b7d40413          	addi	x8,x8,-1155
    80000140:	feb804b7          	lui	x9,0xfeb80
    80000144:	bb74849b          	addiw	x9,x9,-1097 # fffffffffeb7fbb7 <_end+0xffffffff7eb7b0af>
    80000148:	00d49493          	slli	x9,x9,0xd
    8000014c:	f5748493          	addi	x9,x9,-169
    80000150:	00d49493          	slli	x9,x9,0xd
    80000154:	fef48493          	addi	x9,x9,-17
    80000158:	00c49493          	slli	x9,x9,0xc
    8000015c:	dbe48493          	addi	x9,x9,-578
    80000160:	02b80537          	lui	x10,0x2b80
    80000164:	bb75051b          	addiw	x10,x10,-1097 # 2b7fbb7 <offset+0x2b7fbb7>
    80000168:	00d51513          	slli	x10,x10,0xd
    8000016c:	f5750513          	addi	x10,x10,-169
    80000170:	00c51513          	slli	x10,x10,0xc
    80000174:	ff750513          	addi	x10,x10,-9
    80000178:	00c51513          	slli	x10,x10,0xc
    8000017c:	6df50513          	addi	x10,x10,1759
    80000180:	ff5705b7          	lui	x11,0xff570
    80000184:	f775859b          	addiw	x11,x11,-137 # ffffffffff56ff77 <_end+0xffffffff7f56b46f>
    80000188:	00d59593          	slli	x11,x11,0xd
    8000018c:	beb58593          	addi	x11,x11,-1045
    80000190:	00c59593          	slli	x11,x11,0xc
    80000194:	dff58593          	addi	x11,x11,-513
    80000198:	00e59593          	slli	x11,x11,0xe
    8000019c:	b6f58593          	addi	x11,x11,-1169
    800001a0:	ff570637          	lui	x12,0xff570
    800001a4:	f776061b          	addiw	x12,x12,-137 # ffffffffff56ff77 <_end+0xffffffff7f56b46f>
    800001a8:	00d61613          	slli	x12,x12,0xd
    800001ac:	beb60613          	addi	x12,x12,-1045
    800001b0:	00c61613          	slli	x12,x12,0xc
    800001b4:	dff60613          	addi	x12,x12,-513
    800001b8:	00d61613          	slli	x12,x12,0xd
    800001bc:	db760613          	addi	x12,x12,-585
    800001c0:	ff5706b7          	lui	x13,0xff570
    800001c4:	f776869b          	addiw	x13,x13,-137 # ffffffffff56ff77 <_end+0xffffffff7f56b46f>
    800001c8:	00d69693          	slli	x13,x13,0xd
    800001cc:	beb68693          	addi	x13,x13,-1045
    800001d0:	00c69693          	slli	x13,x13,0xc
    800001d4:	dff68693          	addi	x13,x13,-513
    800001d8:	00c69693          	slli	x13,x13,0xc
    800001dc:	edb68693          	addi	x13,x13,-293
    800001e0:	ff570737          	lui	x14,0xff570
    800001e4:	f777071b          	addiw	x14,x14,-137 # ffffffffff56ff77 <_end+0xffffffff7f56b46f>
    800001e8:	00c71713          	slli	x14,x14,0xc
    800001ec:	df570713          	addi	x14,x14,-523
    800001f0:	00c71713          	slli	x14,x14,0xc
    800001f4:	6ff70713          	addi	x14,x14,1791
    800001f8:	00c71713          	slli	x14,x14,0xc
    800001fc:	76d70713          	addi	x14,x14,1901
    80000200:	fab807b7          	lui	x15,0xfab80
    80000204:	bb77879b          	addiw	x15,x15,-1097 # fffffffffab7fbb7 <_end+0xffffffff7ab7b0af>
    80000208:	00d79793          	slli	x15,x15,0xd
    8000020c:	f5778793          	addi	x15,x15,-169
    80000210:	01379793          	slli	x15,x15,0x13
    80000214:	bb678793          	addi	x15,x15,-1098
    80000218:	00002837          	lui	x16,0x2
    8000021c:	f578081b          	addiw	x16,x16,-169 # 1f57 <offset+0x1f57>
    80000220:	01381813          	slli	x16,x16,0x13
    80000224:	bb780813          	addi	x16,x16,-1097
    80000228:	00d81813          	slli	x16,x16,0xd
    8000022c:	f5780813          	addi	x16,x16,-169
    80000230:	01281813          	slli	x16,x16,0x12
    80000234:	ddb80813          	addi	x16,x16,-549
    80000238:	ffffe8b7          	lui	x17,0xffffe
    8000023c:	f578889b          	addiw	x17,x17,-169 # ffffffffffffdf57 <_end+0xffffffff7fff944f>
    80000240:	01389893          	slli	x17,x17,0x13
    80000244:	bb788893          	addi	x17,x17,-1097
    80000248:	00d89893          	slli	x17,x17,0xd
    8000024c:	f5788893          	addi	x17,x17,-169
    80000250:	01189893          	slli	x17,x17,0x11
    80000254:	eed88893          	addi	x17,x17,-275
    80000258:	ffffe937          	lui	x18,0xffffe
    8000025c:	f579091b          	addiw	x18,x18,-169 # ffffffffffffdf57 <_end+0xffffffff7fff944f>
    80000260:	01391913          	slli	x18,x18,0x13
    80000264:	bb790913          	addi	x18,x18,-1097
    80000268:	00d91913          	slli	x18,x18,0xd
    8000026c:	f5790913          	addi	x18,x18,-169
    80000270:	01091913          	slli	x18,x18,0x10
    80000274:	f7690913          	addi	x18,x18,-138
    80000278:	0000e9b7          	lui	x19,0xe
    8000027c:	f579899b          	addiw	x19,x19,-169 # df57 <offset+0xdf57>
    80000280:	01399993          	slli	x19,x19,0x13
    80000284:	bb798993          	addi	x19,x19,-1097
    80000288:	00d99993          	slli	x19,x19,0xd
    8000028c:	f5798993          	addi	x19,x19,-169
    80000290:	00f99993          	slli	x19,x19,0xf
    80000294:	fbb98993          	addi	x19,x19,-69
    80000298:	fffeea37          	lui	x20,0xfffee
    8000029c:	f57a0a1b          	addiw	x20,x20,-169 # fffffffffffedf57 <_end+0xffffffff7ffe944f>
    800002a0:	013a1a13          	slli	x20,x20,0x13
    800002a4:	bb7a0a13          	addi	x20,x20,-1097
    800002a8:	00da1a13          	slli	x20,x20,0xd
    800002ac:	f57a0a13          	addi	x20,x20,-169
    800002b0:	00ea1a13          	slli	x20,x20,0xe
    800002b4:	fdda0a13          	addi	x20,x20,-35
    800002b8:	fffeeab7          	lui	x21,0xfffee
    800002bc:	f57a8a9b          	addiw	x21,x21,-169 # fffffffffffedf57 <_end+0xffffffff7ffe944f>
    800002c0:	013a9a93          	slli	x21,x21,0x13
    800002c4:	bb7a8a93          	addi	x21,x21,-1097
    800002c8:	00da9a93          	slli	x21,x21,0xd
    800002cc:	f57a8a93          	addi	x21,x21,-169
    800002d0:	00da9a93          	slli	x21,x21,0xd
    800002d4:	feea8a93          	addi	x21,x21,-18
    800002d8:	0006eb37          	lui	x22,0x6e
    800002dc:	f57b0b1b          	addiw	x22,x22,-169 # 6df57 <offset+0x6df57>
    800002e0:	013b1b13          	slli	x22,x22,0x13
    800002e4:	bb7b0b13          	addi	x22,x22,-1097
    800002e8:	00db1b13          	slli	x22,x22,0xd
    800002ec:	f57b0b13          	addi	x22,x22,-169
    800002f0:	00cb1b13          	slli	x22,x22,0xc
    800002f4:	ff7b0b13          	addi	x22,x22,-9
    800002f8:	fff6ebb7          	lui	x23,0xfff6e
    800002fc:	f57b8b9b          	addiw	x23,x23,-169 # fffffffffff6df57 <_end+0xffffffff7ff6944f>
    80000300:	013b9b93          	slli	x23,x23,0x13
    80000304:	bb7b8b93          	addi	x23,x23,-1097
    80000308:	00cb9b93          	slli	x23,x23,0xc
    8000030c:	fabb8b93          	addi	x23,x23,-85
    80000310:	00cb9b93          	slli	x23,x23,0xc
    80000314:	7fbb8b93          	addi	x23,x23,2043
    80000318:	fff6ec37          	lui	x24,0xfff6e
    8000031c:	f57c0c1b          	addiw	x24,x24,-169 # fffffffffff6df57 <_end+0xffffffff7ff6944f>
    80000320:	010c1c13          	slli	x24,x24,0x10
    80000324:	f77c0c13          	addi	x24,x24,-137
    80000328:	00dc1c13          	slli	x24,x24,0xd
    8000032c:	bebc0c13          	addi	x24,x24,-1045
    80000330:	00dc1c13          	slli	x24,x24,0xd
    80000334:	bfdc0c13          	addi	x24,x24,-1027
    80000338:	fff6ecb7          	lui	x25,0xfff6e
    8000033c:	f57c8c9b          	addiw	x25,x25,-169 # fffffffffff6df57 <_end+0xffffffff7ff6944f>
    80000340:	010c9c93          	slli	x25,x25,0x10
    80000344:	f77c8c93          	addi	x25,x25,-137
    80000348:	00dc9c93          	slli	x25,x25,0xd
    8000034c:	bebc8c93          	addi	x25,x25,-1045
    80000350:	00cc9c93          	slli	x25,x25,0xc
    80000354:	dfec8c93          	addi	x25,x25,-514
    80000358:	0076ed37          	lui	x26,0x76e
    8000035c:	f57d0d1b          	addiw	x26,x26,-169 # 76df57 <offset+0x76df57>
    80000360:	010d1d13          	slli	x26,x26,0x10
    80000364:	f77d0d13          	addi	x26,x26,-137
    80000368:	00cd1d13          	slli	x26,x26,0xc
    8000036c:	df5d0d13          	addi	x26,x26,-523
    80000370:	00cd1d13          	slli	x26,x26,0xc
    80000374:	6ffd0d13          	addi	x26,x26,1791
    80000378:	ff76edb7          	lui	x27,0xff76e
    8000037c:	f57d8d9b          	addiw	x27,x27,-169 # ffffffffff76df57 <_end+0xffffffff7f76944f>
    80000380:	00fd9d93          	slli	x27,x27,0xf
    80000384:	fbbd8d93          	addi	x27,x27,-69
    80000388:	00cd9d93          	slli	x27,x27,0xc
    8000038c:	6fbd8d93          	addi	x27,x27,1787
    80000390:	00cd9d93          	slli	x27,x27,0xc
    80000394:	b7fd8d93          	addi	x27,x27,-1153
    80000398:	ff76ee37          	lui	x28,0xff76e
    8000039c:	f57e0e1b          	addiw	x28,x28,-169 # ffffffffff76df57 <_end+0xffffffff7f76944f>
    800003a0:	00de1e13          	slli	x28,x28,0xd
    800003a4:	fefe0e13          	addi	x28,x28,-17
    800003a8:	00de1e13          	slli	x28,x28,0xd
    800003ac:	b7de0e13          	addi	x28,x28,-1155
    800003b0:	00ce1e13          	slli	x28,x28,0xc
    800003b4:	5bfe0e13          	addi	x28,x28,1471
    800003b8:	ff76eeb7          	lui	x29,0xff76e
    800003bc:	f57e8e9b          	addiw	x29,x29,-169 # ffffffffff76df57 <_end+0xffffffff7f76944f>
    800003c0:	00de9e93          	slli	x29,x29,0xd
    800003c4:	fefe8e93          	addi	x29,x29,-17
    800003c8:	00ce9e93          	slli	x29,x29,0xc
    800003cc:	dbfe8e93          	addi	x29,x29,-577
    800003d0:	00ce9e93          	slli	x29,x29,0xc
    800003d4:	adfe8e93          	addi	x29,x29,-1313
    800003d8:	ff76ef37          	lui	x30,0xff76e
    800003dc:	f57f0f1b          	addiw	x30,x30,-169 # ffffffffff76df57 <_end+0xffffffff7f76944f>
    800003e0:	00cf1f13          	slli	x30,x30,0xc
    800003e4:	ff7f0f13          	addi	x30,x30,-9
    800003e8:	00cf1f13          	slli	x30,x30,0xc
    800003ec:	6dff0f13          	addi	x30,x30,1759
    800003f0:	00cf1f13          	slli	x30,x30,0xc
    800003f4:	56ff0f13          	addi	x30,x30,1391
    800003f8:	ff76efb7          	lui	x31,0xff76e
    800003fc:	f57f8f9b          	addiw	x31,x31,-169 # ffffffffff76df57 <_end+0xffffffff7f76944f>
    80000400:	013f9f93          	slli	x31,x31,0x13
    80000404:	bb7f8f93          	addi	x31,x31,-1097
    80000408:	010f9f93          	slli	x31,x31,0x10
    8000040c:	ab7f8f93          	addi	x31,x31,-1353

0000000080000410 <rvtest_code_begin>:
    80000410:	00004097          	auipc	x1,0x4
    80000414:	c0008093          	addi	x1,x1,-1024 # 80004010 <begin_signature>
    80000418:	0000d237          	lui	x4,0xd
    8000041c:	ccc2021b          	addiw	x4,x4,-820 # cccc <offset+0xcccc>
    80000420:	00c009ef          	jal	x19,8000042c <rvtest_code_begin+0x1c>
    80000424:	00012237          	lui	x4,0x12
    80000428:	3ab2021b          	addiw	x4,x4,939 # 123ab <offset+0x123ab>
    8000042c:	0040b023          	sd	x4,0(x1)
    80000430:	0000d237          	lui	x4,0xd
    80000434:	ccc2021b          	addiw	x4,x4,-820 # cccc <offset+0xcccc>
    80000438:	00c00f6f          	jal	x30,80000444 <rvtest_code_begin+0x34>
    8000043c:	00012237          	lui	x4,0x12
    80000440:	3ab2021b          	addiw	x4,x4,939 # 123ab <offset+0x123ab>
    80000444:	0040b423          	sd	x4,8(x1)
    80000448:	0080006f          	jal	x0,80000450 <rvtest_code_begin+0x40>
    8000044c:	0180006f          	jal	x0,80000464 <rvtest_code_begin+0x54>
    80000450:	0000d237          	lui	x4,0xd
    80000454:	ccc2021b          	addiw	x4,x4,-820 # cccc <offset+0xcccc>
    80000458:	ff5ff56f          	jal	x10,8000044c <rvtest_code_begin+0x3c>
    8000045c:	00012237          	lui	x4,0x12
    80000460:	3ab2021b          	addiw	x4,x4,939 # 123ab <offset+0x123ab>
    80000464:	0040b823          	sd	x4,16(x1)
    80000468:	0000d237          	lui	x4,0xd
    8000046c:	ccc2021b          	addiw	x4,x4,-820 # cccc <offset+0xcccc>
    80000470:	00c001ef          	jal	x3,8000047c <rvtest_code_begin+0x6c>
    80000474:	00012237          	lui	x4,0x12
    80000478:	3ab2021b          	addiw	x4,x4,939 # 123ab <offset+0x123ab>
    8000047c:	0040bc23          	sd	x4,24(x1)
    80000480:	0000d237          	lui	x4,0xd
    80000484:	ccc2021b          	addiw	x4,x4,-820 # cccc <offset+0xcccc>
    80000488:	00c00eef          	jal	x29,80000494 <rvtest_code_begin+0x84>
    8000048c:	00012237          	lui	x4,0x12
    80000490:	3ab2021b          	addiw	x4,x4,939 # 123ab <offset+0x123ab>
    80000494:	0240b023          	sd	x4,32(x1)
    80000498:	00004097          	auipc	x1,0x4
    8000049c:	ba008093          	addi	x1,x1,-1120 # 80004038 <signature_2_0>
    800004a0:	0000d2b7          	lui	x5,0xd
    800004a4:	ccc2829b          	addiw	x5,x5,-820 # cccc <offset+0xcccc>
    800004a8:	00c0006f          	jal	x0,800004b4 <rvtest_code_begin+0xa4>
    800004ac:	000122b7          	lui	x5,0x12
    800004b0:	3ab2829b          	addiw	x5,x5,939 # 123ab <offset+0x123ab>
    800004b4:	0050b023          	sd	x5,0(x1)
    800004b8:	0000d2b7          	lui	x5,0xd
    800004bc:	ccc2829b          	addiw	x5,x5,-820 # cccc <offset+0xcccc>
    800004c0:	00c0026f          	jal	x4,800004cc <rvtest_code_begin+0xbc>
    800004c4:	000122b7          	lui	x5,0x12
    800004c8:	3ab2829b          	addiw	x5,x5,939 # 123ab <offset+0x123ab>
    800004cc:	0050b423          	sd	x5,8(x1)
    800004d0:	0080006f          	jal	x0,800004d8 <rvtest_code_begin+0xc8>
    800004d4:	0180006f          	jal	x0,800004ec <rvtest_code_begin+0xdc>
    800004d8:	0000d2b7          	lui	x5,0xd
    800004dc:	ccc2829b          	addiw	x5,x5,-820 # cccc <offset+0xcccc>
    800004e0:	ff5ffcef          	jal	x25,800004d4 <rvtest_code_begin+0xc4>
    800004e4:	000122b7          	lui	x5,0x12
    800004e8:	3ab2829b          	addiw	x5,x5,939 # 123ab <offset+0x123ab>
    800004ec:	0050b823          	sd	x5,16(x1)
    800004f0:	0000d2b7          	lui	x5,0xd
    800004f4:	ccc2829b          	addiw	x5,x5,-820 # cccc <offset+0xcccc>
    800004f8:	00c0096f          	jal	x18,80000504 <rvtest_code_begin+0xf4>
    800004fc:	000122b7          	lui	x5,0x12
    80000500:	3ab2829b          	addiw	x5,x5,939 # 123ab <offset+0x123ab>
    80000504:	0050bc23          	sd	x5,24(x1)
    80000508:	0000d2b7          	lui	x5,0xd
    8000050c:	ccc2829b          	addiw	x5,x5,-820 # cccc <offset+0xcccc>
    80000510:	00c004ef          	jal	x9,8000051c <rvtest_code_begin+0x10c>
    80000514:	000122b7          	lui	x5,0x12
    80000518:	3ab2829b          	addiw	x5,x5,939 # 123ab <offset+0x123ab>
    8000051c:	0250b023          	sd	x5,32(x1)
    80000520:	00004097          	auipc	x1,0x4
    80000524:	b4008093          	addi	x1,x1,-1216 # 80004060 <signature_3_0>
    80000528:	0000d1b7          	lui	x3,0xd
    8000052c:	ccc1819b          	addiw	x3,x3,-820 # cccc <offset+0xcccc>
    80000530:	00c008ef          	jal	x17,8000053c <rvtest_code_begin+0x12c>
    80000534:	000121b7          	lui	x3,0x12
    80000538:	3ab1819b          	addiw	x3,x3,939 # 123ab <offset+0x123ab>
    8000053c:	0030b023          	sd	x3,0(x1)
    80000540:	0000d1b7          	lui	x3,0xd
    80000544:	ccc1819b          	addiw	x3,x3,-820 # cccc <offset+0xcccc>
    80000548:	00c00fef          	jal	x31,80000554 <rvtest_code_begin+0x144>
    8000054c:	000121b7          	lui	x3,0x12
    80000550:	3ab1819b          	addiw	x3,x3,939 # 123ab <offset+0x123ab>
    80000554:	0030b423          	sd	x3,8(x1)
    80000558:	0080006f          	jal	x0,80000560 <rvtest_code_begin+0x150>
    8000055c:	0180006f          	jal	x0,80000574 <rvtest_code_begin+0x164>
    80000560:	0000d1b7          	lui	x3,0xd
    80000564:	ccc1819b          	addiw	x3,x3,-820 # cccc <offset+0xcccc>
    80000568:	ff5ff06f          	jal	x0,8000055c <rvtest_code_begin+0x14c>
    8000056c:	000121b7          	lui	x3,0x12
    80000570:	3ab1819b          	addiw	x3,x3,939 # 123ab <offset+0x123ab>
    80000574:	0030b823          	sd	x3,16(x1)
    80000578:	0000d1b7          	lui	x3,0xd
    8000057c:	ccc1819b          	addiw	x3,x3,-820 # cccc <offset+0xcccc>
    80000580:	00c0006f          	jal	x0,8000058c <rvtest_code_begin+0x17c>
    80000584:	000121b7          	lui	x3,0x12
    80000588:	3ab1819b          	addiw	x3,x3,939 # 123ab <offset+0x123ab>
    8000058c:	0030bc23          	sd	x3,24(x1)
    80000590:	0000d1b7          	lui	x3,0xd
    80000594:	ccc1819b          	addiw	x3,x3,-820 # cccc <offset+0xcccc>
    80000598:	00c00fef          	jal	x31,800005a4 <rvtest_code_begin+0x194>
    8000059c:	000121b7          	lui	x3,0x12
    800005a0:	3ab1819b          	addiw	x3,x3,939 # 123ab <offset+0x123ab>
    800005a4:	0230b023          	sd	x3,32(x1)
    800005a8:	00004097          	auipc	x1,0x4
    800005ac:	ae008093          	addi	x1,x1,-1312 # 80004088 <signature_4_0>
    800005b0:	0000d2b7          	lui	x5,0xd
    800005b4:	ccc2829b          	addiw	x5,x5,-820 # cccc <offset+0xcccc>
    800005b8:	00c005ef          	jal	x11,800005c4 <rvtest_code_begin+0x1b4>
    800005bc:	000122b7          	lui	x5,0x12
    800005c0:	3ab2829b          	addiw	x5,x5,939 # 123ab <offset+0x123ab>
    800005c4:	0050b023          	sd	x5,0(x1)
    800005c8:	0000d2b7          	lui	x5,0xd
    800005cc:	ccc2829b          	addiw	x5,x5,-820 # cccc <offset+0xcccc>
    800005d0:	00c004ef          	jal	x9,800005dc <rvtest_code_begin+0x1cc>
    800005d4:	000122b7          	lui	x5,0x12
    800005d8:	3ab2829b          	addiw	x5,x5,939 # 123ab <offset+0x123ab>
    800005dc:	0050b423          	sd	x5,8(x1)
    800005e0:	0080006f          	jal	x0,800005e8 <rvtest_code_begin+0x1d8>
    800005e4:	0180006f          	jal	x0,800005fc <rvtest_code_begin+0x1ec>
    800005e8:	0000d2b7          	lui	x5,0xd
    800005ec:	ccc2829b          	addiw	x5,x5,-820 # cccc <offset+0xcccc>
    800005f0:	ff5ff3ef          	jal	x7,800005e4 <rvtest_code_begin+0x1d4>
    800005f4:	000122b7          	lui	x5,0x12
    800005f8:	3ab2829b          	addiw	x5,x5,939 # 123ab <offset+0x123ab>
    800005fc:	0050b823          	sd	x5,16(x1)
    80000600:	0000d2b7          	lui	x5,0xd
    80000604:	ccc2829b          	addiw	x5,x5,-820 # cccc <offset+0xcccc>
    80000608:	00c003ef          	jal	x7,80000614 <rvtest_code_begin+0x204>
    8000060c:	000122b7          	lui	x5,0x12
    80000610:	3ab2829b          	addiw	x5,x5,939 # 123ab <offset+0x123ab>
    80000614:	0050bc23          	sd	x5,24(x1)
    80000618:	0000d2b7          	lui	x5,0xd
    8000061c:	ccc2829b          	addiw	x5,x5,-820 # cccc <offset+0xcccc>
    80000620:	00c006ef          	jal	x13,8000062c <rvtest_code_begin+0x21c>
    80000624:	000122b7          	lui	x5,0x12
    80000628:	3ab2829b          	addiw	x5,x5,939 # 123ab <offset+0x123ab>
    8000062c:	0250b023          	sd	x5,32(x1)
    80000630:	00004097          	auipc	x1,0x4
    80000634:	a8008093          	addi	x1,x1,-1408 # 800040b0 <signature_5_0>
    80000638:	0000d2b7          	lui	x5,0xd
    8000063c:	ccc2829b          	addiw	x5,x5,-820 # cccc <offset+0xcccc>
    80000640:	00c0066f          	jal	x12,8000064c <rvtest_code_begin+0x23c>
    80000644:	000122b7          	lui	x5,0x12
    80000648:	3ab2829b          	addiw	x5,x5,939 # 123ab <offset+0x123ab>
    8000064c:	0050b023          	sd	x5,0(x1)
    80000650:	0000d2b7          	lui	x5,0xd
    80000654:	ccc2829b          	addiw	x5,x5,-820 # cccc <offset+0xcccc>
    80000658:	00c008ef          	jal	x17,80000664 <rvtest_code_begin+0x254>
    8000065c:	000122b7          	lui	x5,0x12
    80000660:	3ab2829b          	addiw	x5,x5,939 # 123ab <offset+0x123ab>
    80000664:	0050b423          	sd	x5,8(x1)
    80000668:	0080006f          	jal	x0,80000670 <rvtest_code_begin+0x260>
    8000066c:	0180006f          	jal	x0,80000684 <rvtest_code_begin+0x274>
    80000670:	0000d2b7          	lui	x5,0xd
    80000674:	ccc2829b          	addiw	x5,x5,-820 # cccc <offset+0xcccc>
    80000678:	ff5fffef          	jal	x31,8000066c <rvtest_code_begin+0x25c>
    8000067c:	000122b7          	lui	x5,0x12
    80000680:	3ab2829b          	addiw	x5,x5,939 # 123ab <offset+0x123ab>
    80000684:	0050b823          	sd	x5,16(x1)
    80000688:	0000d2b7          	lui	x5,0xd
    8000068c:	ccc2829b          	addiw	x5,x5,-820 # cccc <offset+0xcccc>
    80000690:	00c0096f          	jal	x18,8000069c <rvtest_code_begin+0x28c>
    80000694:	000122b7          	lui	x5,0x12
    80000698:	3ab2829b          	addiw	x5,x5,939 # 123ab <offset+0x123ab>
    8000069c:	0050bc23          	sd	x5,24(x1)
    800006a0:	0000d2b7          	lui	x5,0xd
    800006a4:	ccc2829b          	addiw	x5,x5,-820 # cccc <offset+0xcccc>
    800006a8:	00c00eef          	jal	x29,800006b4 <rvtest_code_begin+0x2a4>
    800006ac:	000122b7          	lui	x5,0x12
    800006b0:	3ab2829b          	addiw	x5,x5,939 # 123ab <offset+0x123ab>
    800006b4:	0250b023          	sd	x5,32(x1)
    800006b8:	00004117          	auipc	x2,0x4
    800006bc:	a2010113          	addi	x2,x2,-1504 # 800040d8 <signature_6_0>
    800006c0:	0000d2b7          	lui	x5,0xd
    800006c4:	ccc2829b          	addiw	x5,x5,-820 # cccc <offset+0xcccc>
    800006c8:	00c008ef          	jal	x17,800006d4 <rvtest_code_begin+0x2c4>
    800006cc:	000122b7          	lui	x5,0x12
    800006d0:	3ab2829b          	addiw	x5,x5,939 # 123ab <offset+0x123ab>
    800006d4:	00513023          	sd	x5,0(x2)
    800006d8:	0000d2b7          	lui	x5,0xd
    800006dc:	ccc2829b          	addiw	x5,x5,-820 # cccc <offset+0xcccc>
    800006e0:	00c00b6f          	jal	x22,800006ec <rvtest_code_begin+0x2dc>
    800006e4:	000122b7          	lui	x5,0x12
    800006e8:	3ab2829b          	addiw	x5,x5,939 # 123ab <offset+0x123ab>
    800006ec:	00513423          	sd	x5,8(x2)
    800006f0:	0080006f          	jal	x0,800006f8 <rvtest_code_begin+0x2e8>
    800006f4:	0180006f          	jal	x0,8000070c <rvtest_code_begin+0x2fc>
    800006f8:	0000d2b7          	lui	x5,0xd
    800006fc:	ccc2829b          	addiw	x5,x5,-820 # cccc <offset+0xcccc>
    80000700:	ff5ff1ef          	jal	x3,800006f4 <rvtest_code_begin+0x2e4>
    80000704:	000122b7          	lui	x5,0x12
    80000708:	3ab2829b          	addiw	x5,x5,939 # 123ab <offset+0x123ab>
    8000070c:	00513823          	sd	x5,16(x2)
    80000710:	0000d2b7          	lui	x5,0xd
    80000714:	ccc2829b          	addiw	x5,x5,-820 # cccc <offset+0xcccc>
    80000718:	00c007ef          	jal	x15,80000724 <rvtest_code_begin+0x314>
    8000071c:	000122b7          	lui	x5,0x12
    80000720:	3ab2829b          	addiw	x5,x5,939 # 123ab <offset+0x123ab>
    80000724:	00513c23          	sd	x5,24(x2)
    80000728:	0000d2b7          	lui	x5,0xd
    8000072c:	ccc2829b          	addiw	x5,x5,-820 # cccc <offset+0xcccc>
    80000730:	00c00e6f          	jal	x28,8000073c <rvtest_code_begin+0x32c>
    80000734:	000122b7          	lui	x5,0x12
    80000738:	3ab2829b          	addiw	x5,x5,939 # 123ab <offset+0x123ab>
    8000073c:	02513023          	sd	x5,32(x2)
    80000740:	00004097          	auipc	x1,0x4
    80000744:	9c008093          	addi	x1,x1,-1600 # 80004100 <signature_7_0>
    80000748:	0000d1b7          	lui	x3,0xd
    8000074c:	ccc1819b          	addiw	x3,x3,-820 # cccc <offset+0xcccc>
    80000750:	00c0076f          	jal	x14,8000075c <rvtest_code_begin+0x34c>
    80000754:	000121b7          	lui	x3,0x12
    80000758:	3ab1819b          	addiw	x3,x3,939 # 123ab <offset+0x123ab>
    8000075c:	0030b023          	sd	x3,0(x1)
    80000760:	0000d1b7          	lui	x3,0xd
    80000764:	ccc1819b          	addiw	x3,x3,-820 # cccc <offset+0xcccc>
    80000768:	00c004ef          	jal	x9,80000774 <rvtest_code_begin+0x364>
    8000076c:	000121b7          	lui	x3,0x12
    80000770:	3ab1819b          	addiw	x3,x3,939 # 123ab <offset+0x123ab>
    80000774:	0030b423          	sd	x3,8(x1)
    80000778:	0080006f          	jal	x0,80000780 <rvtest_code_begin+0x370>
    8000077c:	0180006f          	jal	x0,80000794 <rvtest_code_begin+0x384>
    80000780:	0000d1b7          	lui	x3,0xd
    80000784:	ccc1819b          	addiw	x3,x3,-820 # cccc <offset+0xcccc>
    80000788:	ff5ff56f          	jal	x10,8000077c <rvtest_code_begin+0x36c>
    8000078c:	000121b7          	lui	x3,0x12
    80000790:	3ab1819b          	addiw	x3,x3,939 # 123ab <offset+0x123ab>
    80000794:	0030b823          	sd	x3,16(x1)
    80000798:	0000d1b7          	lui	x3,0xd
    8000079c:	ccc1819b          	addiw	x3,x3,-820 # cccc <offset+0xcccc>
    800007a0:	00c0036f          	jal	x6,800007ac <rvtest_code_begin+0x39c>
    800007a4:	000121b7          	lui	x3,0x12
    800007a8:	3ab1819b          	addiw	x3,x3,939 # 123ab <offset+0x123ab>
    800007ac:	0030bc23          	sd	x3,24(x1)
    800007b0:	0000d1b7          	lui	x3,0xd
    800007b4:	ccc1819b          	addiw	x3,x3,-820 # cccc <offset+0xcccc>
    800007b8:	00c0006f          	jal	x0,800007c4 <rvtest_code_begin+0x3b4>
    800007bc:	000121b7          	lui	x3,0x12
    800007c0:	3ab1819b          	addiw	x3,x3,939 # 123ab <offset+0x123ab>
    800007c4:	0230b023          	sd	x3,32(x1)
    800007c8:	00004097          	auipc	x1,0x4
    800007cc:	96008093          	addi	x1,x1,-1696 # 80004128 <signature_8_0>
    800007d0:	0000d1b7          	lui	x3,0xd
    800007d4:	ccc1819b          	addiw	x3,x3,-820 # cccc <offset+0xcccc>
    800007d8:	00c00e6f          	jal	x28,800007e4 <rvtest_code_begin+0x3d4>
    800007dc:	000121b7          	lui	x3,0x12
    800007e0:	3ab1819b          	addiw	x3,x3,939 # 123ab <offset+0x123ab>
    800007e4:	0030b023          	sd	x3,0(x1)
    800007e8:	0000d1b7          	lui	x3,0xd
    800007ec:	ccc1819b          	addiw	x3,x3,-820 # cccc <offset+0xcccc>
    800007f0:	00c00fef          	jal	x31,800007fc <rvtest_code_begin+0x3ec>
    800007f4:	000121b7          	lui	x3,0x12
    800007f8:	3ab1819b          	addiw	x3,x3,939 # 123ab <offset+0x123ab>
    800007fc:	0030b423          	sd	x3,8(x1)
    80000800:	0080006f          	jal	x0,80000808 <rvtest_code_begin+0x3f8>
    80000804:	0180006f          	jal	x0,8000081c <rvtest_code_begin+0x40c>
    80000808:	0000d1b7          	lui	x3,0xd
    8000080c:	ccc1819b          	addiw	x3,x3,-820 # cccc <offset+0xcccc>
    80000810:	ff5ffdef          	jal	x27,80000804 <rvtest_code_begin+0x3f4>
    80000814:	000121b7          	lui	x3,0x12
    80000818:	3ab1819b          	addiw	x3,x3,939 # 123ab <offset+0x123ab>
    8000081c:	0030b823          	sd	x3,16(x1)
    80000820:	0000d1b7          	lui	x3,0xd
    80000824:	ccc1819b          	addiw	x3,x3,-820 # cccc <offset+0xcccc>
    80000828:	00c00bef          	jal	x23,80000834 <rvtest_code_begin+0x424>
    8000082c:	000121b7          	lui	x3,0x12
    80000830:	3ab1819b          	addiw	x3,x3,939 # 123ab <offset+0x123ab>
    80000834:	0030bc23          	sd	x3,24(x1)
    80000838:	0000d1b7          	lui	x3,0xd
    8000083c:	ccc1819b          	addiw	x3,x3,-820 # cccc <offset+0xcccc>
    80000840:	00c00c6f          	jal	x24,8000084c <rvtest_code_begin+0x43c>
    80000844:	000121b7          	lui	x3,0x12
    80000848:	3ab1819b          	addiw	x3,x3,939 # 123ab <offset+0x123ab>
    8000084c:	0230b023          	sd	x3,32(x1)
    80000850:	00004317          	auipc	x6,0x4
    80000854:	90030313          	addi	x6,x6,-1792 # 80004150 <signature_9_0>
    80000858:	0000d437          	lui	x8,0xd
    8000085c:	ccc4041b          	addiw	x8,x8,-820 # cccc <offset+0xcccc>
    80000860:	00c000ef          	jal	x1,8000086c <rvtest_code_begin+0x45c>
    80000864:	00012437          	lui	x8,0x12
    80000868:	3ab4041b          	addiw	x8,x8,939 # 123ab <offset+0x123ab>
    8000086c:	00833023          	sd	x8,0(x6)
    80000870:	0000d437          	lui	x8,0xd
    80000874:	ccc4041b          	addiw	x8,x8,-820 # cccc <offset+0xcccc>
    80000878:	00c000ef          	jal	x1,80000884 <rvtest_code_begin+0x474>
    8000087c:	00012437          	lui	x8,0x12
    80000880:	3ab4041b          	addiw	x8,x8,939 # 123ab <offset+0x123ab>
    80000884:	00833423          	sd	x8,8(x6)
    80000888:	0080006f          	jal	x0,80000890 <rvtest_code_begin+0x480>
    8000088c:	0180006f          	jal	x0,800008a4 <rvtest_code_begin+0x494>
    80000890:	0000d437          	lui	x8,0xd
    80000894:	ccc4041b          	addiw	x8,x8,-820 # cccc <offset+0xcccc>
    80000898:	ff5ff16f          	jal	x2,8000088c <rvtest_code_begin+0x47c>
    8000089c:	00012437          	lui	x8,0x12
    800008a0:	3ab4041b          	addiw	x8,x8,939 # 123ab <offset+0x123ab>
    800008a4:	00833823          	sd	x8,16(x6)
    800008a8:	0000d437          	lui	x8,0xd
    800008ac:	ccc4041b          	addiw	x8,x8,-820 # cccc <offset+0xcccc>
    800008b0:	00c001ef          	jal	x3,800008bc <rvtest_code_begin+0x4ac>
    800008b4:	00012437          	lui	x8,0x12
    800008b8:	3ab4041b          	addiw	x8,x8,939 # 123ab <offset+0x123ab>
    800008bc:	00833c23          	sd	x8,24(x6)
    800008c0:	0000d437          	lui	x8,0xd
    800008c4:	ccc4041b          	addiw	x8,x8,-820 # cccc <offset+0xcccc>
    800008c8:	00c0026f          	jal	x4,800008d4 <rvtest_code_begin+0x4c4>
    800008cc:	00012437          	lui	x8,0x12
    800008d0:	3ab4041b          	addiw	x8,x8,939 # 123ab <offset+0x123ab>
    800008d4:	02833023          	sd	x8,32(x6)
    800008d8:	00004097          	auipc	x1,0x4
    800008dc:	8a008093          	addi	x1,x1,-1888 # 80004178 <signature_10_0>
    800008e0:	0000d1b7          	lui	x3,0xd
    800008e4:	ccc1819b          	addiw	x3,x3,-820 # cccc <offset+0xcccc>
    800008e8:	00c002ef          	jal	x5,800008f4 <rvtest_code_begin+0x4e4>
    800008ec:	000121b7          	lui	x3,0x12
    800008f0:	3ab1819b          	addiw	x3,x3,939 # 123ab <offset+0x123ab>
    800008f4:	0030b023          	sd	x3,0(x1)
    800008f8:	0000d1b7          	lui	x3,0xd
    800008fc:	ccc1819b          	addiw	x3,x3,-820 # cccc <offset+0xcccc>
    80000900:	00c0036f          	jal	x6,8000090c <rvtest_code_begin+0x4fc>
    80000904:	000121b7          	lui	x3,0x12
    80000908:	3ab1819b          	addiw	x3,x3,939 # 123ab <offset+0x123ab>
    8000090c:	0030b423          	sd	x3,8(x1)
    80000910:	0080006f          	jal	x0,80000918 <rvtest_code_begin+0x508>
    80000914:	0180006f          	jal	x0,8000092c <rvtest_code_begin+0x51c>
    80000918:	0000d1b7          	lui	x3,0xd
    8000091c:	ccc1819b          	addiw	x3,x3,-820 # cccc <offset+0xcccc>
    80000920:	ff5ff3ef          	jal	x7,80000914 <rvtest_code_begin+0x504>
    80000924:	000121b7          	lui	x3,0x12
    80000928:	3ab1819b          	addiw	x3,x3,939 # 123ab <offset+0x123ab>
    8000092c:	0030b823          	sd	x3,16(x1)
    80000930:	0000d1b7          	lui	x3,0xd
    80000934:	ccc1819b          	addiw	x3,x3,-820 # cccc <offset+0xcccc>
    80000938:	00c0046f          	jal	x8,80000944 <rvtest_code_begin+0x534>
    8000093c:	000121b7          	lui	x3,0x12
    80000940:	3ab1819b          	addiw	x3,x3,939 # 123ab <offset+0x123ab>
    80000944:	0030bc23          	sd	x3,24(x1)
    80000948:	0000d1b7          	lui	x3,0xd
    8000094c:	ccc1819b          	addiw	x3,x3,-820 # cccc <offset+0xcccc>
    80000950:	00c004ef          	jal	x9,8000095c <rvtest_code_begin+0x54c>
    80000954:	000121b7          	lui	x3,0x12
    80000958:	3ab1819b          	addiw	x3,x3,939 # 123ab <offset+0x123ab>
    8000095c:	0230b023          	sd	x3,32(x1)
    80000960:	00004097          	auipc	x1,0x4
    80000964:	84008093          	addi	x1,x1,-1984 # 800041a0 <signature_11_0>
    80000968:	0000d1b7          	lui	x3,0xd
    8000096c:	ccc1819b          	addiw	x3,x3,-820 # cccc <offset+0xcccc>
    80000970:	00c0056f          	jal	x10,8000097c <rvtest_code_begin+0x56c>
    80000974:	000121b7          	lui	x3,0x12
    80000978:	3ab1819b          	addiw	x3,x3,939 # 123ab <offset+0x123ab>
    8000097c:	0030b023          	sd	x3,0(x1)
    80000980:	0000d1b7          	lui	x3,0xd
    80000984:	ccc1819b          	addiw	x3,x3,-820 # cccc <offset+0xcccc>
    80000988:	00c005ef          	jal	x11,80000994 <rvtest_code_begin+0x584>
    8000098c:	000121b7          	lui	x3,0x12
    80000990:	3ab1819b          	addiw	x3,x3,939 # 123ab <offset+0x123ab>
    80000994:	0030b423          	sd	x3,8(x1)
    80000998:	0080006f          	jal	x0,800009a0 <rvtest_code_begin+0x590>
    8000099c:	0180006f          	jal	x0,800009b4 <rvtest_code_begin+0x5a4>
    800009a0:	0000d1b7          	lui	x3,0xd
    800009a4:	ccc1819b          	addiw	x3,x3,-820 # cccc <offset+0xcccc>
    800009a8:	ff5ff66f          	jal	x12,8000099c <rvtest_code_begin+0x58c>
    800009ac:	000121b7          	lui	x3,0x12
    800009b0:	3ab1819b          	addiw	x3,x3,939 # 123ab <offset+0x123ab>
    800009b4:	0030b823          	sd	x3,16(x1)
    800009b8:	0000d1b7          	lui	x3,0xd
    800009bc:	ccc1819b          	addiw	x3,x3,-820 # cccc <offset+0xcccc>
    800009c0:	00c006ef          	jal	x13,800009cc <rvtest_code_begin+0x5bc>
    800009c4:	000121b7          	lui	x3,0x12
    800009c8:	3ab1819b          	addiw	x3,x3,939 # 123ab <offset+0x123ab>
    800009cc:	0030bc23          	sd	x3,24(x1)
    800009d0:	0000d1b7          	lui	x3,0xd
    800009d4:	ccc1819b          	addiw	x3,x3,-820 # cccc <offset+0xcccc>
    800009d8:	00c0076f          	jal	x14,800009e4 <rvtest_code_begin+0x5d4>
    800009dc:	000121b7          	lui	x3,0x12
    800009e0:	3ab1819b          	addiw	x3,x3,939 # 123ab <offset+0x123ab>
    800009e4:	0230b023          	sd	x3,32(x1)
    800009e8:	00003097          	auipc	x1,0x3
    800009ec:	7e008093          	addi	x1,x1,2016 # 800041c8 <signature_12_0>
    800009f0:	0000d1b7          	lui	x3,0xd
    800009f4:	ccc1819b          	addiw	x3,x3,-820 # cccc <offset+0xcccc>
    800009f8:	00c007ef          	jal	x15,80000a04 <rvtest_code_begin+0x5f4>
    800009fc:	000121b7          	lui	x3,0x12
    80000a00:	3ab1819b          	addiw	x3,x3,939 # 123ab <offset+0x123ab>
    80000a04:	0030b023          	sd	x3,0(x1)
    80000a08:	0000d1b7          	lui	x3,0xd
    80000a0c:	ccc1819b          	addiw	x3,x3,-820 # cccc <offset+0xcccc>
    80000a10:	00c0086f          	jal	x16,80000a1c <rvtest_code_begin+0x60c>
    80000a14:	000121b7          	lui	x3,0x12
    80000a18:	3ab1819b          	addiw	x3,x3,939 # 123ab <offset+0x123ab>
    80000a1c:	0030b423          	sd	x3,8(x1)
    80000a20:	0080006f          	jal	x0,80000a28 <rvtest_code_begin+0x618>
    80000a24:	0180006f          	jal	x0,80000a3c <rvtest_code_begin+0x62c>
    80000a28:	0000d1b7          	lui	x3,0xd
    80000a2c:	ccc1819b          	addiw	x3,x3,-820 # cccc <offset+0xcccc>
    80000a30:	ff5ff8ef          	jal	x17,80000a24 <rvtest_code_begin+0x614>
    80000a34:	000121b7          	lui	x3,0x12
    80000a38:	3ab1819b          	addiw	x3,x3,939 # 123ab <offset+0x123ab>
    80000a3c:	0030b823          	sd	x3,16(x1)
    80000a40:	0000d1b7          	lui	x3,0xd
    80000a44:	ccc1819b          	addiw	x3,x3,-820 # cccc <offset+0xcccc>
    80000a48:	00c0096f          	jal	x18,80000a54 <rvtest_code_begin+0x644>
    80000a4c:	000121b7          	lui	x3,0x12
    80000a50:	3ab1819b          	addiw	x3,x3,939 # 123ab <offset+0x123ab>
    80000a54:	0030bc23          	sd	x3,24(x1)
    80000a58:	0000d1b7          	lui	x3,0xd
    80000a5c:	ccc1819b          	addiw	x3,x3,-820 # cccc <offset+0xcccc>
    80000a60:	00c009ef          	jal	x19,80000a6c <rvtest_code_begin+0x65c>
    80000a64:	000121b7          	lui	x3,0x12
    80000a68:	3ab1819b          	addiw	x3,x3,939 # 123ab <offset+0x123ab>
    80000a6c:	0230b023          	sd	x3,32(x1)
    80000a70:	00003097          	auipc	x1,0x3
    80000a74:	78008093          	addi	x1,x1,1920 # 800041f0 <signature_13_0>
    80000a78:	0000d1b7          	lui	x3,0xd
    80000a7c:	ccc1819b          	addiw	x3,x3,-820 # cccc <offset+0xcccc>
    80000a80:	00c00a6f          	jal	x20,80000a8c <rvtest_code_begin+0x67c>
    80000a84:	000121b7          	lui	x3,0x12
    80000a88:	3ab1819b          	addiw	x3,x3,939 # 123ab <offset+0x123ab>
    80000a8c:	0030b023          	sd	x3,0(x1)
    80000a90:	0000d1b7          	lui	x3,0xd
    80000a94:	ccc1819b          	addiw	x3,x3,-820 # cccc <offset+0xcccc>
    80000a98:	00c00aef          	jal	x21,80000aa4 <rvtest_code_begin+0x694>
    80000a9c:	000121b7          	lui	x3,0x12
    80000aa0:	3ab1819b          	addiw	x3,x3,939 # 123ab <offset+0x123ab>
    80000aa4:	0030b423          	sd	x3,8(x1)
    80000aa8:	0080006f          	jal	x0,80000ab0 <rvtest_code_begin+0x6a0>
    80000aac:	0180006f          	jal	x0,80000ac4 <rvtest_code_begin+0x6b4>
    80000ab0:	0000d1b7          	lui	x3,0xd
    80000ab4:	ccc1819b          	addiw	x3,x3,-820 # cccc <offset+0xcccc>
    80000ab8:	ff5ffb6f          	jal	x22,80000aac <rvtest_code_begin+0x69c>
    80000abc:	000121b7          	lui	x3,0x12
    80000ac0:	3ab1819b          	addiw	x3,x3,939 # 123ab <offset+0x123ab>
    80000ac4:	0030b823          	sd	x3,16(x1)
    80000ac8:	0000d1b7          	lui	x3,0xd
    80000acc:	ccc1819b          	addiw	x3,x3,-820 # cccc <offset+0xcccc>
    80000ad0:	00c00bef          	jal	x23,80000adc <rvtest_code_begin+0x6cc>
    80000ad4:	000121b7          	lui	x3,0x12
    80000ad8:	3ab1819b          	addiw	x3,x3,939 # 123ab <offset+0x123ab>
    80000adc:	0030bc23          	sd	x3,24(x1)
    80000ae0:	0000d1b7          	lui	x3,0xd
    80000ae4:	ccc1819b          	addiw	x3,x3,-820 # cccc <offset+0xcccc>
    80000ae8:	00c00c6f          	jal	x24,80000af4 <rvtest_code_begin+0x6e4>
    80000aec:	000121b7          	lui	x3,0x12
    80000af0:	3ab1819b          	addiw	x3,x3,939 # 123ab <offset+0x123ab>
    80000af4:	0230b023          	sd	x3,32(x1)
    80000af8:	00003097          	auipc	x1,0x3
    80000afc:	72008093          	addi	x1,x1,1824 # 80004218 <signature_14_0>
    80000b00:	0000d1b7          	lui	x3,0xd
    80000b04:	ccc1819b          	addiw	x3,x3,-820 # cccc <offset+0xcccc>
    80000b08:	00c00cef          	jal	x25,80000b14 <rvtest_code_begin+0x704>
    80000b0c:	000121b7          	lui	x3,0x12
    80000b10:	3ab1819b          	addiw	x3,x3,939 # 123ab <offset+0x123ab>
    80000b14:	0030b023          	sd	x3,0(x1)
    80000b18:	0000d1b7          	lui	x3,0xd
    80000b1c:	ccc1819b          	addiw	x3,x3,-820 # cccc <offset+0xcccc>
    80000b20:	00c00d6f          	jal	x26,80000b2c <rvtest_code_begin+0x71c>
    80000b24:	000121b7          	lui	x3,0x12
    80000b28:	3ab1819b          	addiw	x3,x3,939 # 123ab <offset+0x123ab>
    80000b2c:	0030b423          	sd	x3,8(x1)
    80000b30:	0080006f          	jal	x0,80000b38 <rvtest_code_begin+0x728>
    80000b34:	0180006f          	jal	x0,80000b4c <rvtest_code_begin+0x73c>
    80000b38:	0000d1b7          	lui	x3,0xd
    80000b3c:	ccc1819b          	addiw	x3,x3,-820 # cccc <offset+0xcccc>
    80000b40:	ff5ffdef          	jal	x27,80000b34 <rvtest_code_begin+0x724>
    80000b44:	000121b7          	lui	x3,0x12
    80000b48:	3ab1819b          	addiw	x3,x3,939 # 123ab <offset+0x123ab>
    80000b4c:	0030b823          	sd	x3,16(x1)
    80000b50:	0000d1b7          	lui	x3,0xd
    80000b54:	ccc1819b          	addiw	x3,x3,-820 # cccc <offset+0xcccc>
    80000b58:	00c00e6f          	jal	x28,80000b64 <rvtest_code_begin+0x754>
    80000b5c:	000121b7          	lui	x3,0x12
    80000b60:	3ab1819b          	addiw	x3,x3,939 # 123ab <offset+0x123ab>
    80000b64:	0030bc23          	sd	x3,24(x1)
    80000b68:	0000d1b7          	lui	x3,0xd
    80000b6c:	ccc1819b          	addiw	x3,x3,-820 # cccc <offset+0xcccc>
    80000b70:	00c00eef          	jal	x29,80000b7c <rvtest_code_begin+0x76c>
    80000b74:	000121b7          	lui	x3,0x12
    80000b78:	3ab1819b          	addiw	x3,x3,939 # 123ab <offset+0x123ab>
    80000b7c:	0230b023          	sd	x3,32(x1)
    80000b80:	00003217          	auipc	x4,0x3
    80000b84:	6c020213          	addi	x4,x4,1728 # 80004240 <signature_15_0>
    80000b88:	0000d337          	lui	x6,0xd
    80000b8c:	ccc3031b          	addiw	x6,x6,-820 # cccc <offset+0xcccc>
    80000b90:	00c00f6f          	jal	x30,80000b9c <rvtest_code_begin+0x78c>
    80000b94:	00012337          	lui	x6,0x12
    80000b98:	3ab3031b          	addiw	x6,x6,939 # 123ab <offset+0x123ab>
    80000b9c:	00623023          	sd	x6,0(x4) # 0 <offset>
    80000ba0:	0000d337          	lui	x6,0xd
    80000ba4:	ccc3031b          	addiw	x6,x6,-820 # cccc <offset+0xcccc>
    80000ba8:	00c00fef          	jal	x31,80000bb4 <rvtest_code_begin+0x7a4>
    80000bac:	00012337          	lui	x6,0x12
    80000bb0:	3ab3031b          	addiw	x6,x6,939 # 123ab <offset+0x123ab>
    80000bb4:	00623423          	sd	x6,8(x4) # 8 <offset+0x8>
    80000bb8:	0080006f          	jal	x0,80000bc0 <rvtest_code_begin+0x7b0>
    80000bbc:	0180006f          	jal	x0,80000bd4 <rvtest_code_begin+0x7c4>
    80000bc0:	0000d337          	lui	x6,0xd
    80000bc4:	ccc3031b          	addiw	x6,x6,-820 # cccc <offset+0xcccc>
    80000bc8:	ff5ff0ef          	jal	x1,80000bbc <rvtest_code_begin+0x7ac>
    80000bcc:	00012337          	lui	x6,0x12
    80000bd0:	3ab3031b          	addiw	x6,x6,939 # 123ab <offset+0x123ab>
    80000bd4:	00623823          	sd	x6,16(x4) # 10 <offset+0x10>
    80000bd8:	0000d337          	lui	x6,0xd
    80000bdc:	ccc3031b          	addiw	x6,x6,-820 # cccc <offset+0xcccc>
    80000be0:	00c000ef          	jal	x1,80000bec <rvtest_code_begin+0x7dc>
    80000be4:	00012337          	lui	x6,0x12
    80000be8:	3ab3031b          	addiw	x6,x6,939 # 123ab <offset+0x123ab>
    80000bec:	00623c23          	sd	x6,24(x4) # 18 <offset+0x18>
    80000bf0:	0000d337          	lui	x6,0xd
    80000bf4:	ccc3031b          	addiw	x6,x6,-820 # cccc <offset+0xcccc>
    80000bf8:	00c0016f          	jal	x2,80000c04 <rvtest_code_begin+0x7f4>
    80000bfc:	00012337          	lui	x6,0x12
    80000c00:	3ab3031b          	addiw	x6,x6,939 # 123ab <offset+0x123ab>
    80000c04:	02623023          	sd	x6,32(x4) # 20 <offset+0x20>
    80000c08:	00003097          	auipc	x1,0x3
    80000c0c:	66008093          	addi	x1,x1,1632 # 80004268 <signature_16_0>
    80000c10:	0000d4b7          	lui	x9,0xd
    80000c14:	ccc4849b          	addiw	x9,x9,-820 # cccc <offset+0xcccc>
    80000c18:	00c001ef          	jal	x3,80000c24 <rvtest_code_begin+0x814>
    80000c1c:	000124b7          	lui	x9,0x12
    80000c20:	3ab4849b          	addiw	x9,x9,939 # 123ab <offset+0x123ab>
    80000c24:	0090b023          	sd	x9,0(x1)
    80000c28:	0000d4b7          	lui	x9,0xd
    80000c2c:	ccc4849b          	addiw	x9,x9,-820 # cccc <offset+0xcccc>
    80000c30:	00c0026f          	jal	x4,80000c3c <rvtest_code_begin+0x82c>
    80000c34:	000124b7          	lui	x9,0x12
    80000c38:	3ab4849b          	addiw	x9,x9,939 # 123ab <offset+0x123ab>
    80000c3c:	0090b423          	sd	x9,8(x1)
    80000c40:	0080006f          	jal	x0,80000c48 <rvtest_code_begin+0x838>
    80000c44:	0180006f          	jal	x0,80000c5c <rvtest_code_begin+0x84c>
    80000c48:	0000d4b7          	lui	x9,0xd
    80000c4c:	ccc4849b          	addiw	x9,x9,-820 # cccc <offset+0xcccc>
    80000c50:	ff5ff2ef          	jal	x5,80000c44 <rvtest_code_begin+0x834>
    80000c54:	000124b7          	lui	x9,0x12
    80000c58:	3ab4849b          	addiw	x9,x9,939 # 123ab <offset+0x123ab>
    80000c5c:	0090b823          	sd	x9,16(x1)
    80000c60:	0000d4b7          	lui	x9,0xd
    80000c64:	ccc4849b          	addiw	x9,x9,-820 # cccc <offset+0xcccc>
    80000c68:	00c0036f          	jal	x6,80000c74 <rvtest_code_begin+0x864>
    80000c6c:	000124b7          	lui	x9,0x12
    80000c70:	3ab4849b          	addiw	x9,x9,939 # 123ab <offset+0x123ab>
    80000c74:	0090bc23          	sd	x9,24(x1)
    80000c78:	0000d4b7          	lui	x9,0xd
    80000c7c:	ccc4849b          	addiw	x9,x9,-820 # cccc <offset+0xcccc>
    80000c80:	00c003ef          	jal	x7,80000c8c <rvtest_code_begin+0x87c>
    80000c84:	000124b7          	lui	x9,0x12
    80000c88:	3ab4849b          	addiw	x9,x9,939 # 123ab <offset+0x123ab>
    80000c8c:	0290b023          	sd	x9,32(x1)
    80000c90:	00003097          	auipc	x1,0x3
    80000c94:	60008093          	addi	x1,x1,1536 # 80004290 <signature_17_0>
    80000c98:	0000d1b7          	lui	x3,0xd
    80000c9c:	ccc1819b          	addiw	x3,x3,-820 # cccc <offset+0xcccc>
    80000ca0:	00c0046f          	jal	x8,80000cac <rvtest_code_begin+0x89c>
    80000ca4:	000121b7          	lui	x3,0x12
    80000ca8:	3ab1819b          	addiw	x3,x3,939 # 123ab <offset+0x123ab>
    80000cac:	0030b023          	sd	x3,0(x1)
    80000cb0:	0000d1b7          	lui	x3,0xd
    80000cb4:	ccc1819b          	addiw	x3,x3,-820 # cccc <offset+0xcccc>
    80000cb8:	00c004ef          	jal	x9,80000cc4 <rvtest_code_begin+0x8b4>
    80000cbc:	000121b7          	lui	x3,0x12
    80000cc0:	3ab1819b          	addiw	x3,x3,939 # 123ab <offset+0x123ab>
    80000cc4:	0030b423          	sd	x3,8(x1)
    80000cc8:	0080006f          	jal	x0,80000cd0 <rvtest_code_begin+0x8c0>
    80000ccc:	0180006f          	jal	x0,80000ce4 <rvtest_code_begin+0x8d4>
    80000cd0:	0000d1b7          	lui	x3,0xd
    80000cd4:	ccc1819b          	addiw	x3,x3,-820 # cccc <offset+0xcccc>
    80000cd8:	ff5ff56f          	jal	x10,80000ccc <rvtest_code_begin+0x8bc>
    80000cdc:	000121b7          	lui	x3,0x12
    80000ce0:	3ab1819b          	addiw	x3,x3,939 # 123ab <offset+0x123ab>
    80000ce4:	0030b823          	sd	x3,16(x1)
    80000ce8:	0000d1b7          	lui	x3,0xd
    80000cec:	ccc1819b          	addiw	x3,x3,-820 # cccc <offset+0xcccc>
    80000cf0:	00c005ef          	jal	x11,80000cfc <rvtest_code_begin+0x8ec>
    80000cf4:	000121b7          	lui	x3,0x12
    80000cf8:	3ab1819b          	addiw	x3,x3,939 # 123ab <offset+0x123ab>
    80000cfc:	0030bc23          	sd	x3,24(x1)
    80000d00:	0000d1b7          	lui	x3,0xd
    80000d04:	ccc1819b          	addiw	x3,x3,-820 # cccc <offset+0xcccc>
    80000d08:	00c0066f          	jal	x12,80000d14 <rvtest_code_begin+0x904>
    80000d0c:	000121b7          	lui	x3,0x12
    80000d10:	3ab1819b          	addiw	x3,x3,939 # 123ab <offset+0x123ab>
    80000d14:	0230b023          	sd	x3,32(x1)
    80000d18:	00003097          	auipc	x1,0x3
    80000d1c:	5a008093          	addi	x1,x1,1440 # 800042b8 <signature_18_0>
    80000d20:	0000d1b7          	lui	x3,0xd
    80000d24:	ccc1819b          	addiw	x3,x3,-820 # cccc <offset+0xcccc>
    80000d28:	00c006ef          	jal	x13,80000d34 <rvtest_code_begin+0x924>
    80000d2c:	000121b7          	lui	x3,0x12
    80000d30:	3ab1819b          	addiw	x3,x3,939 # 123ab <offset+0x123ab>
    80000d34:	0030b023          	sd	x3,0(x1)
    80000d38:	0000d1b7          	lui	x3,0xd
    80000d3c:	ccc1819b          	addiw	x3,x3,-820 # cccc <offset+0xcccc>
    80000d40:	00c0076f          	jal	x14,80000d4c <rvtest_code_begin+0x93c>
    80000d44:	000121b7          	lui	x3,0x12
    80000d48:	3ab1819b          	addiw	x3,x3,939 # 123ab <offset+0x123ab>
    80000d4c:	0030b423          	sd	x3,8(x1)
    80000d50:	0080006f          	jal	x0,80000d58 <rvtest_code_begin+0x948>
    80000d54:	0180006f          	jal	x0,80000d6c <rvtest_code_begin+0x95c>
    80000d58:	0000d1b7          	lui	x3,0xd
    80000d5c:	ccc1819b          	addiw	x3,x3,-820 # cccc <offset+0xcccc>
    80000d60:	ff5ff7ef          	jal	x15,80000d54 <rvtest_code_begin+0x944>
    80000d64:	000121b7          	lui	x3,0x12
    80000d68:	3ab1819b          	addiw	x3,x3,939 # 123ab <offset+0x123ab>
    80000d6c:	0030b823          	sd	x3,16(x1)
    80000d70:	0000d1b7          	lui	x3,0xd
    80000d74:	ccc1819b          	addiw	x3,x3,-820 # cccc <offset+0xcccc>
    80000d78:	00c0086f          	jal	x16,80000d84 <rvtest_code_begin+0x974>
    80000d7c:	000121b7          	lui	x3,0x12
    80000d80:	3ab1819b          	addiw	x3,x3,939 # 123ab <offset+0x123ab>
    80000d84:	0030bc23          	sd	x3,24(x1)
    80000d88:	0000d1b7          	lui	x3,0xd
    80000d8c:	ccc1819b          	addiw	x3,x3,-820 # cccc <offset+0xcccc>
    80000d90:	00c008ef          	jal	x17,80000d9c <rvtest_code_begin+0x98c>
    80000d94:	000121b7          	lui	x3,0x12
    80000d98:	3ab1819b          	addiw	x3,x3,939 # 123ab <offset+0x123ab>
    80000d9c:	0230b023          	sd	x3,32(x1)
    80000da0:	00003097          	auipc	x1,0x3
    80000da4:	54008093          	addi	x1,x1,1344 # 800042e0 <signature_19_0>
    80000da8:	0000d1b7          	lui	x3,0xd
    80000dac:	ccc1819b          	addiw	x3,x3,-820 # cccc <offset+0xcccc>
    80000db0:	00c0096f          	jal	x18,80000dbc <rvtest_code_begin+0x9ac>
    80000db4:	000121b7          	lui	x3,0x12
    80000db8:	3ab1819b          	addiw	x3,x3,939 # 123ab <offset+0x123ab>
    80000dbc:	0030b023          	sd	x3,0(x1)
    80000dc0:	0000d1b7          	lui	x3,0xd
    80000dc4:	ccc1819b          	addiw	x3,x3,-820 # cccc <offset+0xcccc>
    80000dc8:	00c009ef          	jal	x19,80000dd4 <rvtest_code_begin+0x9c4>
    80000dcc:	000121b7          	lui	x3,0x12
    80000dd0:	3ab1819b          	addiw	x3,x3,939 # 123ab <offset+0x123ab>
    80000dd4:	0030b423          	sd	x3,8(x1)
    80000dd8:	0080006f          	jal	x0,80000de0 <rvtest_code_begin+0x9d0>
    80000ddc:	0180006f          	jal	x0,80000df4 <rvtest_code_begin+0x9e4>
    80000de0:	0000d1b7          	lui	x3,0xd
    80000de4:	ccc1819b          	addiw	x3,x3,-820 # cccc <offset+0xcccc>
    80000de8:	ff5ffa6f          	jal	x20,80000ddc <rvtest_code_begin+0x9cc>
    80000dec:	000121b7          	lui	x3,0x12
    80000df0:	3ab1819b          	addiw	x3,x3,939 # 123ab <offset+0x123ab>
    80000df4:	0030b823          	sd	x3,16(x1)
    80000df8:	0000d1b7          	lui	x3,0xd
    80000dfc:	ccc1819b          	addiw	x3,x3,-820 # cccc <offset+0xcccc>
    80000e00:	00c00aef          	jal	x21,80000e0c <rvtest_code_begin+0x9fc>
    80000e04:	000121b7          	lui	x3,0x12
    80000e08:	3ab1819b          	addiw	x3,x3,939 # 123ab <offset+0x123ab>
    80000e0c:	0030bc23          	sd	x3,24(x1)
    80000e10:	0000d1b7          	lui	x3,0xd
    80000e14:	ccc1819b          	addiw	x3,x3,-820 # cccc <offset+0xcccc>
    80000e18:	00c00b6f          	jal	x22,80000e24 <rvtest_code_begin+0xa14>
    80000e1c:	000121b7          	lui	x3,0x12
    80000e20:	3ab1819b          	addiw	x3,x3,939 # 123ab <offset+0x123ab>
    80000e24:	0230b023          	sd	x3,32(x1)
    80000e28:	00003097          	auipc	x1,0x3
    80000e2c:	4e008093          	addi	x1,x1,1248 # 80004308 <signature_20_0>
    80000e30:	0000d1b7          	lui	x3,0xd
    80000e34:	ccc1819b          	addiw	x3,x3,-820 # cccc <offset+0xcccc>
    80000e38:	00c00bef          	jal	x23,80000e44 <rvtest_code_begin+0xa34>
    80000e3c:	000121b7          	lui	x3,0x12
    80000e40:	3ab1819b          	addiw	x3,x3,939 # 123ab <offset+0x123ab>
    80000e44:	0030b023          	sd	x3,0(x1)
    80000e48:	0000d1b7          	lui	x3,0xd
    80000e4c:	ccc1819b          	addiw	x3,x3,-820 # cccc <offset+0xcccc>
    80000e50:	00c00c6f          	jal	x24,80000e5c <rvtest_code_begin+0xa4c>
    80000e54:	000121b7          	lui	x3,0x12
    80000e58:	3ab1819b          	addiw	x3,x3,939 # 123ab <offset+0x123ab>
    80000e5c:	0030b423          	sd	x3,8(x1)
    80000e60:	0080006f          	jal	x0,80000e68 <rvtest_code_begin+0xa58>
    80000e64:	0180006f          	jal	x0,80000e7c <rvtest_code_begin+0xa6c>
    80000e68:	0000d1b7          	lui	x3,0xd
    80000e6c:	ccc1819b          	addiw	x3,x3,-820 # cccc <offset+0xcccc>
    80000e70:	ff5ffcef          	jal	x25,80000e64 <rvtest_code_begin+0xa54>
    80000e74:	000121b7          	lui	x3,0x12
    80000e78:	3ab1819b          	addiw	x3,x3,939 # 123ab <offset+0x123ab>
    80000e7c:	0030b823          	sd	x3,16(x1)
    80000e80:	0000d1b7          	lui	x3,0xd
    80000e84:	ccc1819b          	addiw	x3,x3,-820 # cccc <offset+0xcccc>
    80000e88:	00c00d6f          	jal	x26,80000e94 <rvtest_code_begin+0xa84>
    80000e8c:	000121b7          	lui	x3,0x12
    80000e90:	3ab1819b          	addiw	x3,x3,939 # 123ab <offset+0x123ab>
    80000e94:	0030bc23          	sd	x3,24(x1)
    80000e98:	0000d1b7          	lui	x3,0xd
    80000e9c:	ccc1819b          	addiw	x3,x3,-820 # cccc <offset+0xcccc>
    80000ea0:	00c00def          	jal	x27,80000eac <rvtest_code_begin+0xa9c>
    80000ea4:	000121b7          	lui	x3,0x12
    80000ea8:	3ab1819b          	addiw	x3,x3,939 # 123ab <offset+0x123ab>
    80000eac:	0230b023          	sd	x3,32(x1)
    80000eb0:	00003197          	auipc	x3,0x3
    80000eb4:	48018193          	addi	x3,x3,1152 # 80004330 <signature_21_0>
    80000eb8:	0000d2b7          	lui	x5,0xd
    80000ebc:	ccc2829b          	addiw	x5,x5,-820 # cccc <offset+0xcccc>
    80000ec0:	00c00e6f          	jal	x28,80000ecc <rvtest_code_begin+0xabc>
    80000ec4:	000122b7          	lui	x5,0x12
    80000ec8:	3ab2829b          	addiw	x5,x5,939 # 123ab <offset+0x123ab>
    80000ecc:	0051b023          	sd	x5,0(x3)
    80000ed0:	0000d2b7          	lui	x5,0xd
    80000ed4:	ccc2829b          	addiw	x5,x5,-820 # cccc <offset+0xcccc>
    80000ed8:	00c00eef          	jal	x29,80000ee4 <rvtest_code_begin+0xad4>
    80000edc:	000122b7          	lui	x5,0x12
    80000ee0:	3ab2829b          	addiw	x5,x5,939 # 123ab <offset+0x123ab>
    80000ee4:	0051b423          	sd	x5,8(x3)
    80000ee8:	0080006f          	jal	x0,80000ef0 <rvtest_code_begin+0xae0>
    80000eec:	0180006f          	jal	x0,80000f04 <rvtest_code_begin+0xaf4>
    80000ef0:	0000d2b7          	lui	x5,0xd
    80000ef4:	ccc2829b          	addiw	x5,x5,-820 # cccc <offset+0xcccc>
    80000ef8:	ff5fff6f          	jal	x30,80000eec <rvtest_code_begin+0xadc>
    80000efc:	000122b7          	lui	x5,0x12
    80000f00:	3ab2829b          	addiw	x5,x5,939 # 123ab <offset+0x123ab>
    80000f04:	0051b823          	sd	x5,16(x3)
    80000f08:	0000d2b7          	lui	x5,0xd
    80000f0c:	ccc2829b          	addiw	x5,x5,-820 # cccc <offset+0xcccc>
    80000f10:	00c00fef          	jal	x31,80000f1c <rvtest_code_begin+0xb0c>
    80000f14:	000122b7          	lui	x5,0x12
    80000f18:	3ab2829b          	addiw	x5,x5,939 # 123ab <offset+0x123ab>
    80000f1c:	0051bc23          	sd	x5,24(x3)
    80000f20:	0000d2b7          	lui	x5,0xd
    80000f24:	ccc2829b          	addiw	x5,x5,-820 # cccc <offset+0xcccc>
    80000f28:	00c000ef          	jal	x1,80000f34 <rvtest_code_begin+0xb24>
    80000f2c:	000122b7          	lui	x5,0x12
    80000f30:	3ab2829b          	addiw	x5,x5,939 # 123ab <offset+0x123ab>
    80000f34:	0251b023          	sd	x5,32(x3)
    80000f38:	00003397          	auipc	x7,0x3
    80000f3c:	42038393          	addi	x7,x7,1056 # 80004358 <signature_22_0>
    80000f40:	0000d4b7          	lui	x9,0xd
    80000f44:	ccc4849b          	addiw	x9,x9,-820 # cccc <offset+0xcccc>
    80000f48:	00c000ef          	jal	x1,80000f54 <rvtest_code_begin+0xb44>
    80000f4c:	000124b7          	lui	x9,0x12
    80000f50:	3ab4849b          	addiw	x9,x9,939 # 123ab <offset+0x123ab>
    80000f54:	0093b023          	sd	x9,0(x7)
    80000f58:	0000d4b7          	lui	x9,0xd
    80000f5c:	ccc4849b          	addiw	x9,x9,-820 # cccc <offset+0xcccc>
    80000f60:	00c0016f          	jal	x2,80000f6c <rvtest_code_begin+0xb5c>
    80000f64:	000124b7          	lui	x9,0x12
    80000f68:	3ab4849b          	addiw	x9,x9,939 # 123ab <offset+0x123ab>
    80000f6c:	0093b423          	sd	x9,8(x7)
    80000f70:	0080006f          	jal	x0,80000f78 <rvtest_code_begin+0xb68>
    80000f74:	0180006f          	jal	x0,80000f8c <rvtest_code_begin+0xb7c>
    80000f78:	0000d4b7          	lui	x9,0xd
    80000f7c:	ccc4849b          	addiw	x9,x9,-820 # cccc <offset+0xcccc>
    80000f80:	ff5ff1ef          	jal	x3,80000f74 <rvtest_code_begin+0xb64>
    80000f84:	000124b7          	lui	x9,0x12
    80000f88:	3ab4849b          	addiw	x9,x9,939 # 123ab <offset+0x123ab>
    80000f8c:	0093b823          	sd	x9,16(x7)
    80000f90:	0000d4b7          	lui	x9,0xd
    80000f94:	ccc4849b          	addiw	x9,x9,-820 # cccc <offset+0xcccc>
    80000f98:	00c0026f          	jal	x4,80000fa4 <rvtest_code_begin+0xb94>
    80000f9c:	000124b7          	lui	x9,0x12
    80000fa0:	3ab4849b          	addiw	x9,x9,939 # 123ab <offset+0x123ab>
    80000fa4:	0093bc23          	sd	x9,24(x7)
    80000fa8:	0000d4b7          	lui	x9,0xd
    80000fac:	ccc4849b          	addiw	x9,x9,-820 # cccc <offset+0xcccc>
    80000fb0:	00c002ef          	jal	x5,80000fbc <rvtest_code_begin+0xbac>
    80000fb4:	000124b7          	lui	x9,0x12
    80000fb8:	3ab4849b          	addiw	x9,x9,939 # 123ab <offset+0x123ab>
    80000fbc:	0293b023          	sd	x9,32(x7)
    80000fc0:	00003097          	auipc	x1,0x3
    80000fc4:	3c008093          	addi	x1,x1,960 # 80004380 <signature_23_0>
    80000fc8:	0000d1b7          	lui	x3,0xd
    80000fcc:	ccc1819b          	addiw	x3,x3,-820 # cccc <offset+0xcccc>
    80000fd0:	00c0036f          	jal	x6,80000fdc <rvtest_code_begin+0xbcc>
    80000fd4:	000121b7          	lui	x3,0x12
    80000fd8:	3ab1819b          	addiw	x3,x3,939 # 123ab <offset+0x123ab>
    80000fdc:	0030b023          	sd	x3,0(x1)
    80000fe0:	0000d1b7          	lui	x3,0xd
    80000fe4:	ccc1819b          	addiw	x3,x3,-820 # cccc <offset+0xcccc>
    80000fe8:	00c003ef          	jal	x7,80000ff4 <rvtest_code_begin+0xbe4>
    80000fec:	000121b7          	lui	x3,0x12
    80000ff0:	3ab1819b          	addiw	x3,x3,939 # 123ab <offset+0x123ab>
    80000ff4:	0030b423          	sd	x3,8(x1)
    80000ff8:	0080006f          	jal	x0,80001000 <rvtest_code_begin+0xbf0>
    80000ffc:	0180006f          	jal	x0,80001014 <rvtest_code_begin+0xc04>
    80001000:	0000d1b7          	lui	x3,0xd
    80001004:	ccc1819b          	addiw	x3,x3,-820 # cccc <offset+0xcccc>
    80001008:	ff5ff46f          	jal	x8,80000ffc <rvtest_code_begin+0xbec>
    8000100c:	000121b7          	lui	x3,0x12
    80001010:	3ab1819b          	addiw	x3,x3,939 # 123ab <offset+0x123ab>
    80001014:	0030b823          	sd	x3,16(x1)
    80001018:	0000d1b7          	lui	x3,0xd
    8000101c:	ccc1819b          	addiw	x3,x3,-820 # cccc <offset+0xcccc>
    80001020:	00c004ef          	jal	x9,8000102c <rvtest_code_begin+0xc1c>
    80001024:	000121b7          	lui	x3,0x12
    80001028:	3ab1819b          	addiw	x3,x3,939 # 123ab <offset+0x123ab>
    8000102c:	0030bc23          	sd	x3,24(x1)
    80001030:	0000d1b7          	lui	x3,0xd
    80001034:	ccc1819b          	addiw	x3,x3,-820 # cccc <offset+0xcccc>
    80001038:	00c0056f          	jal	x10,80001044 <rvtest_code_begin+0xc34>
    8000103c:	000121b7          	lui	x3,0x12
    80001040:	3ab1819b          	addiw	x3,x3,939 # 123ab <offset+0x123ab>
    80001044:	0230b023          	sd	x3,32(x1)
    80001048:	00003097          	auipc	x1,0x3
    8000104c:	36008093          	addi	x1,x1,864 # 800043a8 <signature_24_0>
    80001050:	0000d1b7          	lui	x3,0xd
    80001054:	ccc1819b          	addiw	x3,x3,-820 # cccc <offset+0xcccc>
    80001058:	00c005ef          	jal	x11,80001064 <rvtest_code_begin+0xc54>
    8000105c:	000121b7          	lui	x3,0x12
    80001060:	3ab1819b          	addiw	x3,x3,939 # 123ab <offset+0x123ab>
    80001064:	0030b023          	sd	x3,0(x1)
    80001068:	0000d1b7          	lui	x3,0xd
    8000106c:	ccc1819b          	addiw	x3,x3,-820 # cccc <offset+0xcccc>
    80001070:	00c0066f          	jal	x12,8000107c <rvtest_code_begin+0xc6c>
    80001074:	000121b7          	lui	x3,0x12
    80001078:	3ab1819b          	addiw	x3,x3,939 # 123ab <offset+0x123ab>
    8000107c:	0030b423          	sd	x3,8(x1)
    80001080:	0080006f          	jal	x0,80001088 <rvtest_code_begin+0xc78>
    80001084:	0180006f          	jal	x0,8000109c <rvtest_code_begin+0xc8c>
    80001088:	0000d1b7          	lui	x3,0xd
    8000108c:	ccc1819b          	addiw	x3,x3,-820 # cccc <offset+0xcccc>
    80001090:	ff5ff6ef          	jal	x13,80001084 <rvtest_code_begin+0xc74>
    80001094:	000121b7          	lui	x3,0x12
    80001098:	3ab1819b          	addiw	x3,x3,939 # 123ab <offset+0x123ab>
    8000109c:	0030b823          	sd	x3,16(x1)
    800010a0:	0000d1b7          	lui	x3,0xd
    800010a4:	ccc1819b          	addiw	x3,x3,-820 # cccc <offset+0xcccc>
    800010a8:	00c0076f          	jal	x14,800010b4 <rvtest_code_begin+0xca4>
    800010ac:	000121b7          	lui	x3,0x12
    800010b0:	3ab1819b          	addiw	x3,x3,939 # 123ab <offset+0x123ab>
    800010b4:	0030bc23          	sd	x3,24(x1)
    800010b8:	0000d1b7          	lui	x3,0xd
    800010bc:	ccc1819b          	addiw	x3,x3,-820 # cccc <offset+0xcccc>
    800010c0:	00c007ef          	jal	x15,800010cc <rvtest_code_begin+0xcbc>
    800010c4:	000121b7          	lui	x3,0x12
    800010c8:	3ab1819b          	addiw	x3,x3,939 # 123ab <offset+0x123ab>
    800010cc:	0230b023          	sd	x3,32(x1)
    800010d0:	00003097          	auipc	x1,0x3
    800010d4:	30008093          	addi	x1,x1,768 # 800043d0 <signature_25_0>
    800010d8:	0000d1b7          	lui	x3,0xd
    800010dc:	ccc1819b          	addiw	x3,x3,-820 # cccc <offset+0xcccc>
    800010e0:	00c0086f          	jal	x16,800010ec <rvtest_code_begin+0xcdc>
    800010e4:	000121b7          	lui	x3,0x12
    800010e8:	3ab1819b          	addiw	x3,x3,939 # 123ab <offset+0x123ab>
    800010ec:	0030b023          	sd	x3,0(x1)
    800010f0:	0000d1b7          	lui	x3,0xd
    800010f4:	ccc1819b          	addiw	x3,x3,-820 # cccc <offset+0xcccc>
    800010f8:	00c008ef          	jal	x17,80001104 <rvtest_code_begin+0xcf4>
    800010fc:	000121b7          	lui	x3,0x12
    80001100:	3ab1819b          	addiw	x3,x3,939 # 123ab <offset+0x123ab>
    80001104:	0030b423          	sd	x3,8(x1)
    80001108:	0080006f          	jal	x0,80001110 <rvtest_code_begin+0xd00>
    8000110c:	0180006f          	jal	x0,80001124 <rvtest_code_begin+0xd14>
    80001110:	0000d1b7          	lui	x3,0xd
    80001114:	ccc1819b          	addiw	x3,x3,-820 # cccc <offset+0xcccc>
    80001118:	ff5ff96f          	jal	x18,8000110c <rvtest_code_begin+0xcfc>
    8000111c:	000121b7          	lui	x3,0x12
    80001120:	3ab1819b          	addiw	x3,x3,939 # 123ab <offset+0x123ab>
    80001124:	0030b823          	sd	x3,16(x1)
    80001128:	0000d1b7          	lui	x3,0xd
    8000112c:	ccc1819b          	addiw	x3,x3,-820 # cccc <offset+0xcccc>
    80001130:	00c009ef          	jal	x19,8000113c <rvtest_code_begin+0xd2c>
    80001134:	000121b7          	lui	x3,0x12
    80001138:	3ab1819b          	addiw	x3,x3,939 # 123ab <offset+0x123ab>
    8000113c:	0030bc23          	sd	x3,24(x1)
    80001140:	0000d1b7          	lui	x3,0xd
    80001144:	ccc1819b          	addiw	x3,x3,-820 # cccc <offset+0xcccc>
    80001148:	00c00a6f          	jal	x20,80001154 <rvtest_code_begin+0xd44>
    8000114c:	000121b7          	lui	x3,0x12
    80001150:	3ab1819b          	addiw	x3,x3,939 # 123ab <offset+0x123ab>
    80001154:	0230b023          	sd	x3,32(x1)
    80001158:	00003097          	auipc	x1,0x3
    8000115c:	2a008093          	addi	x1,x1,672 # 800043f8 <signature_26_0>
    80001160:	0000d1b7          	lui	x3,0xd
    80001164:	ccc1819b          	addiw	x3,x3,-820 # cccc <offset+0xcccc>
    80001168:	00c00aef          	jal	x21,80001174 <rvtest_code_begin+0xd64>
    8000116c:	000121b7          	lui	x3,0x12
    80001170:	3ab1819b          	addiw	x3,x3,939 # 123ab <offset+0x123ab>
    80001174:	0030b023          	sd	x3,0(x1)
    80001178:	0000d1b7          	lui	x3,0xd
    8000117c:	ccc1819b          	addiw	x3,x3,-820 # cccc <offset+0xcccc>
    80001180:	00c00b6f          	jal	x22,8000118c <rvtest_code_begin+0xd7c>
    80001184:	000121b7          	lui	x3,0x12
    80001188:	3ab1819b          	addiw	x3,x3,939 # 123ab <offset+0x123ab>
    8000118c:	0030b423          	sd	x3,8(x1)
    80001190:	0080006f          	jal	x0,80001198 <rvtest_code_begin+0xd88>
    80001194:	0180006f          	jal	x0,800011ac <rvtest_code_begin+0xd9c>
    80001198:	0000d1b7          	lui	x3,0xd
    8000119c:	ccc1819b          	addiw	x3,x3,-820 # cccc <offset+0xcccc>
    800011a0:	ff5ffbef          	jal	x23,80001194 <rvtest_code_begin+0xd84>
    800011a4:	000121b7          	lui	x3,0x12
    800011a8:	3ab1819b          	addiw	x3,x3,939 # 123ab <offset+0x123ab>
    800011ac:	0030b823          	sd	x3,16(x1)
    800011b0:	0000d1b7          	lui	x3,0xd
    800011b4:	ccc1819b          	addiw	x3,x3,-820 # cccc <offset+0xcccc>
    800011b8:	00c00c6f          	jal	x24,800011c4 <rvtest_code_begin+0xdb4>
    800011bc:	000121b7          	lui	x3,0x12
    800011c0:	3ab1819b          	addiw	x3,x3,939 # 123ab <offset+0x123ab>
    800011c4:	0030bc23          	sd	x3,24(x1)
    800011c8:	0000d1b7          	lui	x3,0xd
    800011cc:	ccc1819b          	addiw	x3,x3,-820 # cccc <offset+0xcccc>
    800011d0:	00c00cef          	jal	x25,800011dc <rvtest_code_begin+0xdcc>
    800011d4:	000121b7          	lui	x3,0x12
    800011d8:	3ab1819b          	addiw	x3,x3,939 # 123ab <offset+0x123ab>
    800011dc:	0230b023          	sd	x3,32(x1)
    800011e0:	00003097          	auipc	x1,0x3
    800011e4:	24008093          	addi	x1,x1,576 # 80004420 <signature_27_0>
    800011e8:	0000d1b7          	lui	x3,0xd
    800011ec:	ccc1819b          	addiw	x3,x3,-820 # cccc <offset+0xcccc>
    800011f0:	00c00d6f          	jal	x26,800011fc <rvtest_code_begin+0xdec>
    800011f4:	000121b7          	lui	x3,0x12
    800011f8:	3ab1819b          	addiw	x3,x3,939 # 123ab <offset+0x123ab>
    800011fc:	0030b023          	sd	x3,0(x1)
    80001200:	0000d1b7          	lui	x3,0xd
    80001204:	ccc1819b          	addiw	x3,x3,-820 # cccc <offset+0xcccc>
    80001208:	00c00def          	jal	x27,80001214 <rvtest_code_begin+0xe04>
    8000120c:	000121b7          	lui	x3,0x12
    80001210:	3ab1819b          	addiw	x3,x3,939 # 123ab <offset+0x123ab>
    80001214:	0030b423          	sd	x3,8(x1)
    80001218:	0080006f          	jal	x0,80001220 <rvtest_code_begin+0xe10>
    8000121c:	0180006f          	jal	x0,80001234 <rvtest_code_begin+0xe24>
    80001220:	0000d1b7          	lui	x3,0xd
    80001224:	ccc1819b          	addiw	x3,x3,-820 # cccc <offset+0xcccc>
    80001228:	ff5ffe6f          	jal	x28,8000121c <rvtest_code_begin+0xe0c>
    8000122c:	000121b7          	lui	x3,0x12
    80001230:	3ab1819b          	addiw	x3,x3,939 # 123ab <offset+0x123ab>
    80001234:	0030b823          	sd	x3,16(x1)
    80001238:	0000d1b7          	lui	x3,0xd
    8000123c:	ccc1819b          	addiw	x3,x3,-820 # cccc <offset+0xcccc>
    80001240:	00c00eef          	jal	x29,8000124c <rvtest_code_begin+0xe3c>
    80001244:	000121b7          	lui	x3,0x12
    80001248:	3ab1819b          	addiw	x3,x3,939 # 123ab <offset+0x123ab>
    8000124c:	0030bc23          	sd	x3,24(x1)
    80001250:	0000d1b7          	lui	x3,0xd
    80001254:	ccc1819b          	addiw	x3,x3,-820 # cccc <offset+0xcccc>
    80001258:	00c00f6f          	jal	x30,80001264 <rvtest_code_begin+0xe54>
    8000125c:	000121b7          	lui	x3,0x12
    80001260:	3ab1819b          	addiw	x3,x3,939 # 123ab <offset+0x123ab>
    80001264:	0230b023          	sd	x3,32(x1)
    80001268:	00003297          	auipc	x5,0x3
    8000126c:	1e028293          	addi	x5,x5,480 # 80004448 <signature_28_0>
    80001270:	0000d3b7          	lui	x7,0xd
    80001274:	ccc3839b          	addiw	x7,x7,-820 # cccc <offset+0xcccc>
    80001278:	00c00fef          	jal	x31,80001284 <rvtest_code_begin+0xe74>
    8000127c:	000123b7          	lui	x7,0x12
    80001280:	3ab3839b          	addiw	x7,x7,939 # 123ab <offset+0x123ab>
    80001284:	0072b023          	sd	x7,0(x5)
    80001288:	0000d3b7          	lui	x7,0xd
    8000128c:	ccc3839b          	addiw	x7,x7,-820 # cccc <offset+0xcccc>
    80001290:	00c000ef          	jal	x1,8000129c <rvtest_code_begin+0xe8c>
    80001294:	000123b7          	lui	x7,0x12
    80001298:	3ab3839b          	addiw	x7,x7,939 # 123ab <offset+0x123ab>
    8000129c:	0072b423          	sd	x7,8(x5)
    800012a0:	0080006f          	jal	x0,800012a8 <rvtest_code_begin+0xe98>
    800012a4:	0180006f          	jal	x0,800012bc <rvtest_code_begin+0xeac>
    800012a8:	0000d3b7          	lui	x7,0xd
    800012ac:	ccc3839b          	addiw	x7,x7,-820 # cccc <offset+0xcccc>
    800012b0:	ff5ff0ef          	jal	x1,800012a4 <rvtest_code_begin+0xe94>
    800012b4:	000123b7          	lui	x7,0x12
    800012b8:	3ab3839b          	addiw	x7,x7,939 # 123ab <offset+0x123ab>
    800012bc:	0072b823          	sd	x7,16(x5)
    800012c0:	0000d3b7          	lui	x7,0xd
    800012c4:	ccc3839b          	addiw	x7,x7,-820 # cccc <offset+0xcccc>
    800012c8:	00c0016f          	jal	x2,800012d4 <rvtest_code_begin+0xec4>
    800012cc:	000123b7          	lui	x7,0x12
    800012d0:	3ab3839b          	addiw	x7,x7,939 # 123ab <offset+0x123ab>
    800012d4:	0072bc23          	sd	x7,24(x5)
    800012d8:	0000d3b7          	lui	x7,0xd
    800012dc:	ccc3839b          	addiw	x7,x7,-820 # cccc <offset+0xcccc>
    800012e0:	00c001ef          	jal	x3,800012ec <rvtest_code_begin+0xedc>
    800012e4:	000123b7          	lui	x7,0x12
    800012e8:	3ab3839b          	addiw	x7,x7,939 # 123ab <offset+0x123ab>
    800012ec:	0272b023          	sd	x7,32(x5)
    800012f0:	00003097          	auipc	x1,0x3
    800012f4:	18008093          	addi	x1,x1,384 # 80004470 <signature_29_0>
    800012f8:	0000d1b7          	lui	x3,0xd
    800012fc:	ccc1819b          	addiw	x3,x3,-820 # cccc <offset+0xcccc>
    80001300:	00c0026f          	jal	x4,8000130c <rvtest_code_begin+0xefc>
    80001304:	000121b7          	lui	x3,0x12
    80001308:	3ab1819b          	addiw	x3,x3,939 # 123ab <offset+0x123ab>
    8000130c:	0030b023          	sd	x3,0(x1)
    80001310:	0000d1b7          	lui	x3,0xd
    80001314:	ccc1819b          	addiw	x3,x3,-820 # cccc <offset+0xcccc>
    80001318:	00c002ef          	jal	x5,80001324 <rvtest_code_begin+0xf14>
    8000131c:	000121b7          	lui	x3,0x12
    80001320:	3ab1819b          	addiw	x3,x3,939 # 123ab <offset+0x123ab>
    80001324:	0030b423          	sd	x3,8(x1)
    80001328:	0080006f          	jal	x0,80001330 <rvtest_code_begin+0xf20>
    8000132c:	0180006f          	jal	x0,80001344 <rvtest_code_begin+0xf34>
    80001330:	0000d1b7          	lui	x3,0xd
    80001334:	ccc1819b          	addiw	x3,x3,-820 # cccc <offset+0xcccc>
    80001338:	ff5ff36f          	jal	x6,8000132c <rvtest_code_begin+0xf1c>
    8000133c:	000121b7          	lui	x3,0x12
    80001340:	3ab1819b          	addiw	x3,x3,939 # 123ab <offset+0x123ab>
    80001344:	0030b823          	sd	x3,16(x1)
    80001348:	0000d1b7          	lui	x3,0xd
    8000134c:	ccc1819b          	addiw	x3,x3,-820 # cccc <offset+0xcccc>
    80001350:	00c003ef          	jal	x7,8000135c <rvtest_code_begin+0xf4c>
    80001354:	000121b7          	lui	x3,0x12
    80001358:	3ab1819b          	addiw	x3,x3,939 # 123ab <offset+0x123ab>
    8000135c:	0030bc23          	sd	x3,24(x1)
    80001360:	0000d1b7          	lui	x3,0xd
    80001364:	ccc1819b          	addiw	x3,x3,-820 # cccc <offset+0xcccc>
    80001368:	00c0046f          	jal	x8,80001374 <rvtest_code_begin+0xf64>
    8000136c:	000121b7          	lui	x3,0x12
    80001370:	3ab1819b          	addiw	x3,x3,939 # 123ab <offset+0x123ab>
    80001374:	0230b023          	sd	x3,32(x1)
    80001378:	00003097          	auipc	x1,0x3
    8000137c:	12008093          	addi	x1,x1,288 # 80004498 <signature_30_0>
    80001380:	0000d1b7          	lui	x3,0xd
    80001384:	ccc1819b          	addiw	x3,x3,-820 # cccc <offset+0xcccc>
    80001388:	00c004ef          	jal	x9,80001394 <rvtest_code_begin+0xf84>
    8000138c:	000121b7          	lui	x3,0x12
    80001390:	3ab1819b          	addiw	x3,x3,939 # 123ab <offset+0x123ab>
    80001394:	0030b023          	sd	x3,0(x1)
    80001398:	0000d1b7          	lui	x3,0xd
    8000139c:	ccc1819b          	addiw	x3,x3,-820 # cccc <offset+0xcccc>
    800013a0:	00c0056f          	jal	x10,800013ac <rvtest_code_begin+0xf9c>
    800013a4:	000121b7          	lui	x3,0x12
    800013a8:	3ab1819b          	addiw	x3,x3,939 # 123ab <offset+0x123ab>
    800013ac:	0030b423          	sd	x3,8(x1)
    800013b0:	0080006f          	jal	x0,800013b8 <rvtest_code_begin+0xfa8>
    800013b4:	0180006f          	jal	x0,800013cc <rvtest_code_begin+0xfbc>
    800013b8:	0000d1b7          	lui	x3,0xd
    800013bc:	ccc1819b          	addiw	x3,x3,-820 # cccc <offset+0xcccc>
    800013c0:	ff5ff5ef          	jal	x11,800013b4 <rvtest_code_begin+0xfa4>
    800013c4:	000121b7          	lui	x3,0x12
    800013c8:	3ab1819b          	addiw	x3,x3,939 # 123ab <offset+0x123ab>
    800013cc:	0030b823          	sd	x3,16(x1)
    800013d0:	0000d1b7          	lui	x3,0xd
    800013d4:	ccc1819b          	addiw	x3,x3,-820 # cccc <offset+0xcccc>
    800013d8:	00c0066f          	jal	x12,800013e4 <rvtest_code_begin+0xfd4>
    800013dc:	000121b7          	lui	x3,0x12
    800013e0:	3ab1819b          	addiw	x3,x3,939 # 123ab <offset+0x123ab>
    800013e4:	0030bc23          	sd	x3,24(x1)
    800013e8:	0000d1b7          	lui	x3,0xd
    800013ec:	ccc1819b          	addiw	x3,x3,-820 # cccc <offset+0xcccc>
    800013f0:	00c006ef          	jal	x13,800013fc <rvtest_code_begin+0xfec>
    800013f4:	000121b7          	lui	x3,0x12
    800013f8:	3ab1819b          	addiw	x3,x3,939 # 123ab <offset+0x123ab>
    800013fc:	0230b023          	sd	x3,32(x1)
    80001400:	00003097          	auipc	x1,0x3
    80001404:	0c008093          	addi	x1,x1,192 # 800044c0 <signature_31_0>
    80001408:	0000d1b7          	lui	x3,0xd
    8000140c:	ccc1819b          	addiw	x3,x3,-820 # cccc <offset+0xcccc>
    80001410:	00c0076f          	jal	x14,8000141c <rvtest_code_begin+0x100c>
    80001414:	000121b7          	lui	x3,0x12
    80001418:	3ab1819b          	addiw	x3,x3,939 # 123ab <offset+0x123ab>
    8000141c:	0030b023          	sd	x3,0(x1)
    80001420:	0000d1b7          	lui	x3,0xd
    80001424:	ccc1819b          	addiw	x3,x3,-820 # cccc <offset+0xcccc>
    80001428:	00c007ef          	jal	x15,80001434 <rvtest_code_begin+0x1024>
    8000142c:	000121b7          	lui	x3,0x12
    80001430:	3ab1819b          	addiw	x3,x3,939 # 123ab <offset+0x123ab>
    80001434:	0030b423          	sd	x3,8(x1)
    80001438:	0080006f          	jal	x0,80001440 <rvtest_code_begin+0x1030>
    8000143c:	0180006f          	jal	x0,80001454 <rvtest_code_begin+0x1044>
    80001440:	0000d1b7          	lui	x3,0xd
    80001444:	ccc1819b          	addiw	x3,x3,-820 # cccc <offset+0xcccc>
    80001448:	ff5ff86f          	jal	x16,8000143c <rvtest_code_begin+0x102c>
    8000144c:	000121b7          	lui	x3,0x12
    80001450:	3ab1819b          	addiw	x3,x3,939 # 123ab <offset+0x123ab>
    80001454:	0030b823          	sd	x3,16(x1)
    80001458:	0000d1b7          	lui	x3,0xd
    8000145c:	ccc1819b          	addiw	x3,x3,-820 # cccc <offset+0xcccc>
    80001460:	00c008ef          	jal	x17,8000146c <rvtest_code_begin+0x105c>
    80001464:	000121b7          	lui	x3,0x12
    80001468:	3ab1819b          	addiw	x3,x3,939 # 123ab <offset+0x123ab>
    8000146c:	0030bc23          	sd	x3,24(x1)
    80001470:	0000d1b7          	lui	x3,0xd
    80001474:	ccc1819b          	addiw	x3,x3,-820 # cccc <offset+0xcccc>
    80001478:	00c0096f          	jal	x18,80001484 <rvtest_code_begin+0x1074>
    8000147c:	000121b7          	lui	x3,0x12
    80001480:	3ab1819b          	addiw	x3,x3,939 # 123ab <offset+0x123ab>
    80001484:	0230b023          	sd	x3,32(x1)
    80001488:	00003097          	auipc	x1,0x3
    8000148c:	06008093          	addi	x1,x1,96 # 800044e8 <signature_32_0>
    80001490:	0000d1b7          	lui	x3,0xd
    80001494:	ccc1819b          	addiw	x3,x3,-820 # cccc <offset+0xcccc>
    80001498:	00c009ef          	jal	x19,800014a4 <rvtest_code_begin+0x1094>
    8000149c:	000121b7          	lui	x3,0x12
    800014a0:	3ab1819b          	addiw	x3,x3,939 # 123ab <offset+0x123ab>
    800014a4:	0030b023          	sd	x3,0(x1)
    800014a8:	0000d1b7          	lui	x3,0xd
    800014ac:	ccc1819b          	addiw	x3,x3,-820 # cccc <offset+0xcccc>
    800014b0:	00c00a6f          	jal	x20,800014bc <rvtest_code_begin+0x10ac>
    800014b4:	000121b7          	lui	x3,0x12
    800014b8:	3ab1819b          	addiw	x3,x3,939 # 123ab <offset+0x123ab>
    800014bc:	0030b423          	sd	x3,8(x1)
    800014c0:	0080006f          	jal	x0,800014c8 <rvtest_code_begin+0x10b8>
    800014c4:	0180006f          	jal	x0,800014dc <rvtest_code_begin+0x10cc>
    800014c8:	0000d1b7          	lui	x3,0xd
    800014cc:	ccc1819b          	addiw	x3,x3,-820 # cccc <offset+0xcccc>
    800014d0:	ff5ffaef          	jal	x21,800014c4 <rvtest_code_begin+0x10b4>
    800014d4:	000121b7          	lui	x3,0x12
    800014d8:	3ab1819b          	addiw	x3,x3,939 # 123ab <offset+0x123ab>
    800014dc:	0030b823          	sd	x3,16(x1)
    800014e0:	0000d1b7          	lui	x3,0xd
    800014e4:	ccc1819b          	addiw	x3,x3,-820 # cccc <offset+0xcccc>
    800014e8:	00c00b6f          	jal	x22,800014f4 <rvtest_code_begin+0x10e4>
    800014ec:	000121b7          	lui	x3,0x12
    800014f0:	3ab1819b          	addiw	x3,x3,939 # 123ab <offset+0x123ab>
    800014f4:	0030bc23          	sd	x3,24(x1)
    800014f8:	0000d1b7          	lui	x3,0xd
    800014fc:	ccc1819b          	addiw	x3,x3,-820 # cccc <offset+0xcccc>
    80001500:	00c00bef          	jal	x23,8000150c <rvtest_code_begin+0x10fc>
    80001504:	000121b7          	lui	x3,0x12
    80001508:	3ab1819b          	addiw	x3,x3,939 # 123ab <offset+0x123ab>
    8000150c:	0230b023          	sd	x3,32(x1)
    80001510:	00003097          	auipc	x1,0x3
    80001514:	00008093          	addi	x1,x1,0 # 80004510 <signature_33_0>
    80001518:	0000d1b7          	lui	x3,0xd
    8000151c:	ccc1819b          	addiw	x3,x3,-820 # cccc <offset+0xcccc>
    80001520:	00c00c6f          	jal	x24,8000152c <rvtest_code_begin+0x111c>
    80001524:	000121b7          	lui	x3,0x12
    80001528:	3ab1819b          	addiw	x3,x3,939 # 123ab <offset+0x123ab>
    8000152c:	0030b023          	sd	x3,0(x1)
    80001530:	0000d1b7          	lui	x3,0xd
    80001534:	ccc1819b          	addiw	x3,x3,-820 # cccc <offset+0xcccc>
    80001538:	00c00cef          	jal	x25,80001544 <rvtest_code_begin+0x1134>
    8000153c:	000121b7          	lui	x3,0x12
    80001540:	3ab1819b          	addiw	x3,x3,939 # 123ab <offset+0x123ab>
    80001544:	0030b423          	sd	x3,8(x1)
    80001548:	0080006f          	jal	x0,80001550 <rvtest_code_begin+0x1140>
    8000154c:	0180006f          	jal	x0,80001564 <rvtest_code_begin+0x1154>
    80001550:	0000d1b7          	lui	x3,0xd
    80001554:	ccc1819b          	addiw	x3,x3,-820 # cccc <offset+0xcccc>
    80001558:	ff5ffd6f          	jal	x26,8000154c <rvtest_code_begin+0x113c>
    8000155c:	000121b7          	lui	x3,0x12
    80001560:	3ab1819b          	addiw	x3,x3,939 # 123ab <offset+0x123ab>
    80001564:	0030b823          	sd	x3,16(x1)
    80001568:	0000d1b7          	lui	x3,0xd
    8000156c:	ccc1819b          	addiw	x3,x3,-820 # cccc <offset+0xcccc>
    80001570:	00c00def          	jal	x27,8000157c <rvtest_code_begin+0x116c>
    80001574:	000121b7          	lui	x3,0x12
    80001578:	3ab1819b          	addiw	x3,x3,939 # 123ab <offset+0x123ab>
    8000157c:	0030bc23          	sd	x3,24(x1)
    80001580:	0000d1b7          	lui	x3,0xd
    80001584:	ccc1819b          	addiw	x3,x3,-820 # cccc <offset+0xcccc>
    80001588:	00c00e6f          	jal	x28,80001594 <rvtest_code_begin+0x1184>
    8000158c:	000121b7          	lui	x3,0x12
    80001590:	3ab1819b          	addiw	x3,x3,939 # 123ab <offset+0x123ab>
    80001594:	0230b023          	sd	x3,32(x1)
    80001598:	00003197          	auipc	x3,0x3
    8000159c:	fa018193          	addi	x3,x3,-96 # 80004538 <signature_34_0>
    800015a0:	0000d2b7          	lui	x5,0xd
    800015a4:	ccc2829b          	addiw	x5,x5,-820 # cccc <offset+0xcccc>
    800015a8:	00c00eef          	jal	x29,800015b4 <rvtest_code_begin+0x11a4>
    800015ac:	000122b7          	lui	x5,0x12
    800015b0:	3ab2829b          	addiw	x5,x5,939 # 123ab <offset+0x123ab>
    800015b4:	0051b023          	sd	x5,0(x3)
    800015b8:	0000d2b7          	lui	x5,0xd
    800015bc:	ccc2829b          	addiw	x5,x5,-820 # cccc <offset+0xcccc>
    800015c0:	00c00f6f          	jal	x30,800015cc <rvtest_code_begin+0x11bc>
    800015c4:	000122b7          	lui	x5,0x12
    800015c8:	3ab2829b          	addiw	x5,x5,939 # 123ab <offset+0x123ab>
    800015cc:	0051b423          	sd	x5,8(x3)
    800015d0:	0080006f          	jal	x0,800015d8 <rvtest_code_begin+0x11c8>
    800015d4:	0180006f          	jal	x0,800015ec <rvtest_code_begin+0x11dc>
    800015d8:	0000d2b7          	lui	x5,0xd
    800015dc:	ccc2829b          	addiw	x5,x5,-820 # cccc <offset+0xcccc>
    800015e0:	ff5fffef          	jal	x31,800015d4 <rvtest_code_begin+0x11c4>
    800015e4:	000122b7          	lui	x5,0x12
    800015e8:	3ab2829b          	addiw	x5,x5,939 # 123ab <offset+0x123ab>
    800015ec:	0051b823          	sd	x5,16(x3)
    800015f0:	0000d2b7          	lui	x5,0xd
    800015f4:	ccc2829b          	addiw	x5,x5,-820 # cccc <offset+0xcccc>
    800015f8:	00c000ef          	jal	x1,80001604 <rvtest_code_begin+0x11f4>
    800015fc:	000122b7          	lui	x5,0x12
    80001600:	3ab2829b          	addiw	x5,x5,939 # 123ab <offset+0x123ab>
    80001604:	0051bc23          	sd	x5,24(x3)
    80001608:	0000d2b7          	lui	x5,0xd
    8000160c:	ccc2829b          	addiw	x5,x5,-820 # cccc <offset+0xcccc>
    80001610:	00c000ef          	jal	x1,8000161c <rvtest_code_begin+0x120c>
    80001614:	000122b7          	lui	x5,0x12
    80001618:	3ab2829b          	addiw	x5,x5,939 # 123ab <offset+0x123ab>
    8000161c:	0251b023          	sd	x5,32(x3)
    80001620:	00003097          	auipc	x1,0x3
    80001624:	f4008093          	addi	x1,x1,-192 # 80004560 <signature_35_0>
    80001628:	0000d4b7          	lui	x9,0xd
    8000162c:	ccc4849b          	addiw	x9,x9,-820 # cccc <offset+0xcccc>
    80001630:	00c0016f          	jal	x2,8000163c <rvtest_code_begin+0x122c>
    80001634:	000124b7          	lui	x9,0x12
    80001638:	3ab4849b          	addiw	x9,x9,939 # 123ab <offset+0x123ab>
    8000163c:	0090b023          	sd	x9,0(x1)
    80001640:	0000d4b7          	lui	x9,0xd
    80001644:	ccc4849b          	addiw	x9,x9,-820 # cccc <offset+0xcccc>
    80001648:	00c001ef          	jal	x3,80001654 <rvtest_code_begin+0x1244>
    8000164c:	000124b7          	lui	x9,0x12
    80001650:	3ab4849b          	addiw	x9,x9,939 # 123ab <offset+0x123ab>
    80001654:	0090b423          	sd	x9,8(x1)
    80001658:	0080006f          	jal	x0,80001660 <rvtest_code_begin+0x1250>
    8000165c:	0180006f          	jal	x0,80001674 <rvtest_code_begin+0x1264>
    80001660:	0000d4b7          	lui	x9,0xd
    80001664:	ccc4849b          	addiw	x9,x9,-820 # cccc <offset+0xcccc>
    80001668:	ff5ff26f          	jal	x4,8000165c <rvtest_code_begin+0x124c>
    8000166c:	000124b7          	lui	x9,0x12
    80001670:	3ab4849b          	addiw	x9,x9,939 # 123ab <offset+0x123ab>
    80001674:	0090b823          	sd	x9,16(x1)
    80001678:	0000d4b7          	lui	x9,0xd
    8000167c:	ccc4849b          	addiw	x9,x9,-820 # cccc <offset+0xcccc>
    80001680:	00c002ef          	jal	x5,8000168c <rvtest_code_begin+0x127c>
    80001684:	000124b7          	lui	x9,0x12
    80001688:	3ab4849b          	addiw	x9,x9,939 # 123ab <offset+0x123ab>
    8000168c:	0090bc23          	sd	x9,24(x1)
    80001690:	0000d4b7          	lui	x9,0xd
    80001694:	ccc4849b          	addiw	x9,x9,-820 # cccc <offset+0xcccc>
    80001698:	00c0036f          	jal	x6,800016a4 <rvtest_code_begin+0x1294>
    8000169c:	000124b7          	lui	x9,0x12
    800016a0:	3ab4849b          	addiw	x9,x9,939 # 123ab <offset+0x123ab>
    800016a4:	0290b023          	sd	x9,32(x1)
    800016a8:	00003097          	auipc	x1,0x3
    800016ac:	ee008093          	addi	x1,x1,-288 # 80004588 <signature_36_0>
    800016b0:	0000d1b7          	lui	x3,0xd
    800016b4:	ccc1819b          	addiw	x3,x3,-820 # cccc <offset+0xcccc>
    800016b8:	00c003ef          	jal	x7,800016c4 <rvtest_code_begin+0x12b4>
    800016bc:	000121b7          	lui	x3,0x12
    800016c0:	3ab1819b          	addiw	x3,x3,939 # 123ab <offset+0x123ab>
    800016c4:	0030b023          	sd	x3,0(x1)
    800016c8:	0000d1b7          	lui	x3,0xd
    800016cc:	ccc1819b          	addiw	x3,x3,-820 # cccc <offset+0xcccc>
    800016d0:	00c0046f          	jal	x8,800016dc <rvtest_code_begin+0x12cc>
    800016d4:	000121b7          	lui	x3,0x12
    800016d8:	3ab1819b          	addiw	x3,x3,939 # 123ab <offset+0x123ab>
    800016dc:	0030b423          	sd	x3,8(x1)
    800016e0:	0080006f          	jal	x0,800016e8 <rvtest_code_begin+0x12d8>
    800016e4:	0180006f          	jal	x0,800016fc <rvtest_code_begin+0x12ec>
    800016e8:	0000d1b7          	lui	x3,0xd
    800016ec:	ccc1819b          	addiw	x3,x3,-820 # cccc <offset+0xcccc>
    800016f0:	ff5ff4ef          	jal	x9,800016e4 <rvtest_code_begin+0x12d4>
    800016f4:	000121b7          	lui	x3,0x12
    800016f8:	3ab1819b          	addiw	x3,x3,939 # 123ab <offset+0x123ab>
    800016fc:	0030b823          	sd	x3,16(x1)
    80001700:	0000d1b7          	lui	x3,0xd
    80001704:	ccc1819b          	addiw	x3,x3,-820 # cccc <offset+0xcccc>
    80001708:	00c0056f          	jal	x10,80001714 <rvtest_code_begin+0x1304>
    8000170c:	000121b7          	lui	x3,0x12
    80001710:	3ab1819b          	addiw	x3,x3,939 # 123ab <offset+0x123ab>
    80001714:	0030bc23          	sd	x3,24(x1)
    80001718:	0000d1b7          	lui	x3,0xd
    8000171c:	ccc1819b          	addiw	x3,x3,-820 # cccc <offset+0xcccc>
    80001720:	00c005ef          	jal	x11,8000172c <rvtest_code_begin+0x131c>
    80001724:	000121b7          	lui	x3,0x12
    80001728:	3ab1819b          	addiw	x3,x3,939 # 123ab <offset+0x123ab>
    8000172c:	0230b023          	sd	x3,32(x1)
    80001730:	00003097          	auipc	x1,0x3
    80001734:	e8008093          	addi	x1,x1,-384 # 800045b0 <signature_37_0>
    80001738:	0000d1b7          	lui	x3,0xd
    8000173c:	ccc1819b          	addiw	x3,x3,-820 # cccc <offset+0xcccc>
    80001740:	00c0066f          	jal	x12,8000174c <rvtest_code_begin+0x133c>
    80001744:	000121b7          	lui	x3,0x12
    80001748:	3ab1819b          	addiw	x3,x3,939 # 123ab <offset+0x123ab>
    8000174c:	0030b023          	sd	x3,0(x1)
    80001750:	0000d1b7          	lui	x3,0xd
    80001754:	ccc1819b          	addiw	x3,x3,-820 # cccc <offset+0xcccc>
    80001758:	00c006ef          	jal	x13,80001764 <rvtest_code_begin+0x1354>
    8000175c:	000121b7          	lui	x3,0x12
    80001760:	3ab1819b          	addiw	x3,x3,939 # 123ab <offset+0x123ab>
    80001764:	0030b423          	sd	x3,8(x1)
    80001768:	0080006f          	jal	x0,80001770 <rvtest_code_begin+0x1360>
    8000176c:	0180006f          	jal	x0,80001784 <rvtest_code_begin+0x1374>
    80001770:	0000d1b7          	lui	x3,0xd
    80001774:	ccc1819b          	addiw	x3,x3,-820 # cccc <offset+0xcccc>
    80001778:	ff5ff76f          	jal	x14,8000176c <rvtest_code_begin+0x135c>
    8000177c:	000121b7          	lui	x3,0x12
    80001780:	3ab1819b          	addiw	x3,x3,939 # 123ab <offset+0x123ab>
    80001784:	0030b823          	sd	x3,16(x1)
    80001788:	0000d1b7          	lui	x3,0xd
    8000178c:	ccc1819b          	addiw	x3,x3,-820 # cccc <offset+0xcccc>
    80001790:	00c007ef          	jal	x15,8000179c <rvtest_code_begin+0x138c>
    80001794:	000121b7          	lui	x3,0x12
    80001798:	3ab1819b          	addiw	x3,x3,939 # 123ab <offset+0x123ab>
    8000179c:	0030bc23          	sd	x3,24(x1)
    800017a0:	0000d1b7          	lui	x3,0xd
    800017a4:	ccc1819b          	addiw	x3,x3,-820 # cccc <offset+0xcccc>
    800017a8:	00c0086f          	jal	x16,800017b4 <rvtest_code_begin+0x13a4>
    800017ac:	000121b7          	lui	x3,0x12
    800017b0:	3ab1819b          	addiw	x3,x3,939 # 123ab <offset+0x123ab>
    800017b4:	0230b023          	sd	x3,32(x1)
    800017b8:	00003097          	auipc	x1,0x3
    800017bc:	e2008093          	addi	x1,x1,-480 # 800045d8 <signature_38_0>
    800017c0:	0000d1b7          	lui	x3,0xd
    800017c4:	ccc1819b          	addiw	x3,x3,-820 # cccc <offset+0xcccc>
    800017c8:	00c008ef          	jal	x17,800017d4 <rvtest_code_begin+0x13c4>
    800017cc:	000121b7          	lui	x3,0x12
    800017d0:	3ab1819b          	addiw	x3,x3,939 # 123ab <offset+0x123ab>
    800017d4:	0030b023          	sd	x3,0(x1)
    800017d8:	0000d1b7          	lui	x3,0xd
    800017dc:	ccc1819b          	addiw	x3,x3,-820 # cccc <offset+0xcccc>
    800017e0:	00c0096f          	jal	x18,800017ec <rvtest_code_begin+0x13dc>
    800017e4:	000121b7          	lui	x3,0x12
    800017e8:	3ab1819b          	addiw	x3,x3,939 # 123ab <offset+0x123ab>
    800017ec:	0030b423          	sd	x3,8(x1)
    800017f0:	0080006f          	jal	x0,800017f8 <rvtest_code_begin+0x13e8>
    800017f4:	0180006f          	jal	x0,8000180c <rvtest_code_begin+0x13fc>
    800017f8:	0000d1b7          	lui	x3,0xd
    800017fc:	ccc1819b          	addiw	x3,x3,-820 # cccc <offset+0xcccc>
    80001800:	ff5ff9ef          	jal	x19,800017f4 <rvtest_code_begin+0x13e4>
    80001804:	000121b7          	lui	x3,0x12
    80001808:	3ab1819b          	addiw	x3,x3,939 # 123ab <offset+0x123ab>
    8000180c:	0030b823          	sd	x3,16(x1)
    80001810:	0000d1b7          	lui	x3,0xd
    80001814:	ccc1819b          	addiw	x3,x3,-820 # cccc <offset+0xcccc>
    80001818:	00c00a6f          	jal	x20,80001824 <rvtest_code_begin+0x1414>
    8000181c:	000121b7          	lui	x3,0x12
    80001820:	3ab1819b          	addiw	x3,x3,939 # 123ab <offset+0x123ab>
    80001824:	0030bc23          	sd	x3,24(x1)
    80001828:	0000d1b7          	lui	x3,0xd
    8000182c:	ccc1819b          	addiw	x3,x3,-820 # cccc <offset+0xcccc>
    80001830:	00c00aef          	jal	x21,8000183c <rvtest_code_begin+0x142c>
    80001834:	000121b7          	lui	x3,0x12
    80001838:	3ab1819b          	addiw	x3,x3,939 # 123ab <offset+0x123ab>
    8000183c:	0230b023          	sd	x3,32(x1)
    80001840:	00003097          	auipc	x1,0x3
    80001844:	dc008093          	addi	x1,x1,-576 # 80004600 <signature_39_0>
    80001848:	0000d1b7          	lui	x3,0xd
    8000184c:	ccc1819b          	addiw	x3,x3,-820 # cccc <offset+0xcccc>
    80001850:	00c00b6f          	jal	x22,8000185c <rvtest_code_begin+0x144c>
    80001854:	000121b7          	lui	x3,0x12
    80001858:	3ab1819b          	addiw	x3,x3,939 # 123ab <offset+0x123ab>
    8000185c:	0030b023          	sd	x3,0(x1)
    80001860:	0000d1b7          	lui	x3,0xd
    80001864:	ccc1819b          	addiw	x3,x3,-820 # cccc <offset+0xcccc>
    80001868:	00c00bef          	jal	x23,80001874 <rvtest_code_begin+0x1464>
    8000186c:	000121b7          	lui	x3,0x12
    80001870:	3ab1819b          	addiw	x3,x3,939 # 123ab <offset+0x123ab>
    80001874:	0030b423          	sd	x3,8(x1)
    80001878:	0080006f          	jal	x0,80001880 <rvtest_code_begin+0x1470>
    8000187c:	0180006f          	jal	x0,80001894 <rvtest_code_begin+0x1484>
    80001880:	0000d1b7          	lui	x3,0xd
    80001884:	ccc1819b          	addiw	x3,x3,-820 # cccc <offset+0xcccc>
    80001888:	ff5ffc6f          	jal	x24,8000187c <rvtest_code_begin+0x146c>
    8000188c:	000121b7          	lui	x3,0x12
    80001890:	3ab1819b          	addiw	x3,x3,939 # 123ab <offset+0x123ab>
    80001894:	0030b823          	sd	x3,16(x1)
    80001898:	0000d1b7          	lui	x3,0xd
    8000189c:	ccc1819b          	addiw	x3,x3,-820 # cccc <offset+0xcccc>
    800018a0:	00c00cef          	jal	x25,800018ac <rvtest_code_begin+0x149c>
    800018a4:	000121b7          	lui	x3,0x12
    800018a8:	3ab1819b          	addiw	x3,x3,939 # 123ab <offset+0x123ab>
    800018ac:	0030bc23          	sd	x3,24(x1)
    800018b0:	0000d1b7          	lui	x3,0xd
    800018b4:	ccc1819b          	addiw	x3,x3,-820 # cccc <offset+0xcccc>
    800018b8:	00c00d6f          	jal	x26,800018c4 <rvtest_code_begin+0x14b4>
    800018bc:	000121b7          	lui	x3,0x12
    800018c0:	3ab1819b          	addiw	x3,x3,939 # 123ab <offset+0x123ab>
    800018c4:	0230b023          	sd	x3,32(x1)
    800018c8:	00003117          	auipc	x2,0x3
    800018cc:	d6010113          	addi	x2,x2,-672 # 80004628 <signature_40_0>
    800018d0:	0000d237          	lui	x4,0xd
    800018d4:	ccc2021b          	addiw	x4,x4,-820 # cccc <offset+0xcccc>
    800018d8:	00c00def          	jal	x27,800018e4 <rvtest_code_begin+0x14d4>
    800018dc:	00012237          	lui	x4,0x12
    800018e0:	3ab2021b          	addiw	x4,x4,939 # 123ab <offset+0x123ab>
    800018e4:	00413023          	sd	x4,0(x2)
    800018e8:	0000d237          	lui	x4,0xd
    800018ec:	ccc2021b          	addiw	x4,x4,-820 # cccc <offset+0xcccc>
    800018f0:	00c00e6f          	jal	x28,800018fc <rvtest_code_begin+0x14ec>
    800018f4:	00012237          	lui	x4,0x12
    800018f8:	3ab2021b          	addiw	x4,x4,939 # 123ab <offset+0x123ab>
    800018fc:	00413423          	sd	x4,8(x2)
    80001900:	0080006f          	jal	x0,80001908 <rvtest_code_begin+0x14f8>
    80001904:	0180006f          	jal	x0,8000191c <rvtest_code_begin+0x150c>
    80001908:	0000d237          	lui	x4,0xd
    8000190c:	ccc2021b          	addiw	x4,x4,-820 # cccc <offset+0xcccc>
    80001910:	ff5ffeef          	jal	x29,80001904 <rvtest_code_begin+0x14f4>
    80001914:	00012237          	lui	x4,0x12
    80001918:	3ab2021b          	addiw	x4,x4,939 # 123ab <offset+0x123ab>
    8000191c:	00413823          	sd	x4,16(x2)
    80001920:	0000d237          	lui	x4,0xd
    80001924:	ccc2021b          	addiw	x4,x4,-820 # cccc <offset+0xcccc>
    80001928:	00c00f6f          	jal	x30,80001934 <rvtest_code_begin+0x1524>
    8000192c:	00012237          	lui	x4,0x12
    80001930:	3ab2021b          	addiw	x4,x4,939 # 123ab <offset+0x123ab>
    80001934:	00413c23          	sd	x4,24(x2)
    80001938:	0000d237          	lui	x4,0xd
    8000193c:	ccc2021b          	addiw	x4,x4,-820 # cccc <offset+0xcccc>
    80001940:	00c00fef          	jal	x31,8000194c <rvtest_code_begin+0x153c>
    80001944:	00012237          	lui	x4,0x12
    80001948:	3ab2021b          	addiw	x4,x4,939 # 123ab <offset+0x123ab>
    8000194c:	02413023          	sd	x4,32(x2)
    80001950:	00003317          	auipc	x6,0x3
    80001954:	d0030313          	addi	x6,x6,-768 # 80004650 <signature_41_0>
    80001958:	0000d437          	lui	x8,0xd
    8000195c:	ccc4041b          	addiw	x8,x8,-820 # cccc <offset+0xcccc>
    80001960:	00c000ef          	jal	x1,8000196c <rvtest_code_begin+0x155c>
    80001964:	00012437          	lui	x8,0x12
    80001968:	3ab4041b          	addiw	x8,x8,939 # 123ab <offset+0x123ab>
    8000196c:	00833023          	sd	x8,0(x6)
    80001970:	0000d437          	lui	x8,0xd
    80001974:	ccc4041b          	addiw	x8,x8,-820 # cccc <offset+0xcccc>
    80001978:	00c000ef          	jal	x1,80001984 <rvtest_code_begin+0x1574>
    8000197c:	00012437          	lui	x8,0x12
    80001980:	3ab4041b          	addiw	x8,x8,939 # 123ab <offset+0x123ab>
    80001984:	00833423          	sd	x8,8(x6)
    80001988:	0080006f          	jal	x0,80001990 <rvtest_code_begin+0x1580>
    8000198c:	0180006f          	jal	x0,800019a4 <rvtest_code_begin+0x1594>
    80001990:	0000d437          	lui	x8,0xd
    80001994:	ccc4041b          	addiw	x8,x8,-820 # cccc <offset+0xcccc>
    80001998:	ff5ff16f          	jal	x2,8000198c <rvtest_code_begin+0x157c>
    8000199c:	00012437          	lui	x8,0x12
    800019a0:	3ab4041b          	addiw	x8,x8,939 # 123ab <offset+0x123ab>
    800019a4:	00833823          	sd	x8,16(x6)
    800019a8:	0000d437          	lui	x8,0xd
    800019ac:	ccc4041b          	addiw	x8,x8,-820 # cccc <offset+0xcccc>
    800019b0:	00c001ef          	jal	x3,800019bc <rvtest_code_begin+0x15ac>
    800019b4:	00012437          	lui	x8,0x12
    800019b8:	3ab4041b          	addiw	x8,x8,939 # 123ab <offset+0x123ab>
    800019bc:	00833c23          	sd	x8,24(x6)
    800019c0:	0000d437          	lui	x8,0xd
    800019c4:	ccc4041b          	addiw	x8,x8,-820 # cccc <offset+0xcccc>
    800019c8:	00c0026f          	jal	x4,800019d4 <rvtest_code_begin+0x15c4>
    800019cc:	00012437          	lui	x8,0x12
    800019d0:	3ab4041b          	addiw	x8,x8,939 # 123ab <offset+0x123ab>
    800019d4:	02833023          	sd	x8,32(x6)
    800019d8:	00003097          	auipc	x1,0x3
    800019dc:	ca008093          	addi	x1,x1,-864 # 80004678 <signature_42_0>
    800019e0:	0000d1b7          	lui	x3,0xd
    800019e4:	ccc1819b          	addiw	x3,x3,-820 # cccc <offset+0xcccc>
    800019e8:	00c002ef          	jal	x5,800019f4 <rvtest_code_begin+0x15e4>
    800019ec:	000121b7          	lui	x3,0x12
    800019f0:	3ab1819b          	addiw	x3,x3,939 # 123ab <offset+0x123ab>
    800019f4:	0030b023          	sd	x3,0(x1)
    800019f8:	0000d1b7          	lui	x3,0xd
    800019fc:	ccc1819b          	addiw	x3,x3,-820 # cccc <offset+0xcccc>
    80001a00:	00c0036f          	jal	x6,80001a0c <rvtest_code_begin+0x15fc>
    80001a04:	000121b7          	lui	x3,0x12
    80001a08:	3ab1819b          	addiw	x3,x3,939 # 123ab <offset+0x123ab>
    80001a0c:	0030b423          	sd	x3,8(x1)
    80001a10:	0080006f          	jal	x0,80001a18 <rvtest_code_begin+0x1608>
    80001a14:	0180006f          	jal	x0,80001a2c <rvtest_code_begin+0x161c>
    80001a18:	0000d1b7          	lui	x3,0xd
    80001a1c:	ccc1819b          	addiw	x3,x3,-820 # cccc <offset+0xcccc>
    80001a20:	ff5ff3ef          	jal	x7,80001a14 <rvtest_code_begin+0x1604>
    80001a24:	000121b7          	lui	x3,0x12
    80001a28:	3ab1819b          	addiw	x3,x3,939 # 123ab <offset+0x123ab>
    80001a2c:	0030b823          	sd	x3,16(x1)
    80001a30:	0000d1b7          	lui	x3,0xd
    80001a34:	ccc1819b          	addiw	x3,x3,-820 # cccc <offset+0xcccc>
    80001a38:	00c0046f          	jal	x8,80001a44 <rvtest_code_begin+0x1634>
    80001a3c:	000121b7          	lui	x3,0x12
    80001a40:	3ab1819b          	addiw	x3,x3,939 # 123ab <offset+0x123ab>
    80001a44:	0030bc23          	sd	x3,24(x1)
    80001a48:	0000d1b7          	lui	x3,0xd
    80001a4c:	ccc1819b          	addiw	x3,x3,-820 # cccc <offset+0xcccc>
    80001a50:	00c004ef          	jal	x9,80001a5c <rvtest_code_begin+0x164c>
    80001a54:	000121b7          	lui	x3,0x12
    80001a58:	3ab1819b          	addiw	x3,x3,939 # 123ab <offset+0x123ab>
    80001a5c:	0230b023          	sd	x3,32(x1)
    80001a60:	00003097          	auipc	x1,0x3
    80001a64:	c4008093          	addi	x1,x1,-960 # 800046a0 <signature_43_0>
    80001a68:	0000d1b7          	lui	x3,0xd
    80001a6c:	ccc1819b          	addiw	x3,x3,-820 # cccc <offset+0xcccc>
    80001a70:	00c0056f          	jal	x10,80001a7c <rvtest_code_begin+0x166c>
    80001a74:	000121b7          	lui	x3,0x12
    80001a78:	3ab1819b          	addiw	x3,x3,939 # 123ab <offset+0x123ab>
    80001a7c:	0030b023          	sd	x3,0(x1)
    80001a80:	0000d1b7          	lui	x3,0xd
    80001a84:	ccc1819b          	addiw	x3,x3,-820 # cccc <offset+0xcccc>
    80001a88:	00c005ef          	jal	x11,80001a94 <rvtest_code_begin+0x1684>
    80001a8c:	000121b7          	lui	x3,0x12
    80001a90:	3ab1819b          	addiw	x3,x3,939 # 123ab <offset+0x123ab>
    80001a94:	0030b423          	sd	x3,8(x1)
    80001a98:	0080006f          	jal	x0,80001aa0 <rvtest_code_begin+0x1690>
    80001a9c:	0180006f          	jal	x0,80001ab4 <rvtest_code_begin+0x16a4>
    80001aa0:	0000d1b7          	lui	x3,0xd
    80001aa4:	ccc1819b          	addiw	x3,x3,-820 # cccc <offset+0xcccc>
    80001aa8:	ff5ff66f          	jal	x12,80001a9c <rvtest_code_begin+0x168c>
    80001aac:	000121b7          	lui	x3,0x12
    80001ab0:	3ab1819b          	addiw	x3,x3,939 # 123ab <offset+0x123ab>
    80001ab4:	0030b823          	sd	x3,16(x1)
    80001ab8:	0000d1b7          	lui	x3,0xd
    80001abc:	ccc1819b          	addiw	x3,x3,-820 # cccc <offset+0xcccc>
    80001ac0:	00c006ef          	jal	x13,80001acc <rvtest_code_begin+0x16bc>
    80001ac4:	000121b7          	lui	x3,0x12
    80001ac8:	3ab1819b          	addiw	x3,x3,939 # 123ab <offset+0x123ab>
    80001acc:	0030bc23          	sd	x3,24(x1)
    80001ad0:	0000d1b7          	lui	x3,0xd
    80001ad4:	ccc1819b          	addiw	x3,x3,-820 # cccc <offset+0xcccc>
    80001ad8:	00c0076f          	jal	x14,80001ae4 <rvtest_code_begin+0x16d4>
    80001adc:	000121b7          	lui	x3,0x12
    80001ae0:	3ab1819b          	addiw	x3,x3,939 # 123ab <offset+0x123ab>
    80001ae4:	0230b023          	sd	x3,32(x1)
    80001ae8:	00003097          	auipc	x1,0x3
    80001aec:	be008093          	addi	x1,x1,-1056 # 800046c8 <signature_44_0>
    80001af0:	0000d1b7          	lui	x3,0xd
    80001af4:	ccc1819b          	addiw	x3,x3,-820 # cccc <offset+0xcccc>
    80001af8:	00c007ef          	jal	x15,80001b04 <rvtest_code_begin+0x16f4>
    80001afc:	000121b7          	lui	x3,0x12
    80001b00:	3ab1819b          	addiw	x3,x3,939 # 123ab <offset+0x123ab>
    80001b04:	0030b023          	sd	x3,0(x1)
    80001b08:	0000d1b7          	lui	x3,0xd
    80001b0c:	ccc1819b          	addiw	x3,x3,-820 # cccc <offset+0xcccc>
    80001b10:	00c0086f          	jal	x16,80001b1c <rvtest_code_begin+0x170c>
    80001b14:	000121b7          	lui	x3,0x12
    80001b18:	3ab1819b          	addiw	x3,x3,939 # 123ab <offset+0x123ab>
    80001b1c:	0030b423          	sd	x3,8(x1)
    80001b20:	0080006f          	jal	x0,80001b28 <rvtest_code_begin+0x1718>
    80001b24:	0180006f          	jal	x0,80001b3c <rvtest_code_begin+0x172c>
    80001b28:	0000d1b7          	lui	x3,0xd
    80001b2c:	ccc1819b          	addiw	x3,x3,-820 # cccc <offset+0xcccc>
    80001b30:	ff5ff8ef          	jal	x17,80001b24 <rvtest_code_begin+0x1714>
    80001b34:	000121b7          	lui	x3,0x12
    80001b38:	3ab1819b          	addiw	x3,x3,939 # 123ab <offset+0x123ab>
    80001b3c:	0030b823          	sd	x3,16(x1)
    80001b40:	0000d1b7          	lui	x3,0xd
    80001b44:	ccc1819b          	addiw	x3,x3,-820 # cccc <offset+0xcccc>
    80001b48:	00c0096f          	jal	x18,80001b54 <rvtest_code_begin+0x1744>
    80001b4c:	000121b7          	lui	x3,0x12
    80001b50:	3ab1819b          	addiw	x3,x3,939 # 123ab <offset+0x123ab>
    80001b54:	0030bc23          	sd	x3,24(x1)
    80001b58:	0000d1b7          	lui	x3,0xd
    80001b5c:	ccc1819b          	addiw	x3,x3,-820 # cccc <offset+0xcccc>
    80001b60:	00c009ef          	jal	x19,80001b6c <rvtest_code_begin+0x175c>
    80001b64:	000121b7          	lui	x3,0x12
    80001b68:	3ab1819b          	addiw	x3,x3,939 # 123ab <offset+0x123ab>
    80001b6c:	0230b023          	sd	x3,32(x1)
    80001b70:	00003097          	auipc	x1,0x3
    80001b74:	b8008093          	addi	x1,x1,-1152 # 800046f0 <signature_45_0>
    80001b78:	0000d1b7          	lui	x3,0xd
    80001b7c:	ccc1819b          	addiw	x3,x3,-820 # cccc <offset+0xcccc>
    80001b80:	00c00a6f          	jal	x20,80001b8c <rvtest_code_begin+0x177c>
    80001b84:	000121b7          	lui	x3,0x12
    80001b88:	3ab1819b          	addiw	x3,x3,939 # 123ab <offset+0x123ab>
    80001b8c:	0030b023          	sd	x3,0(x1)
    80001b90:	0000d1b7          	lui	x3,0xd
    80001b94:	ccc1819b          	addiw	x3,x3,-820 # cccc <offset+0xcccc>
    80001b98:	00c00aef          	jal	x21,80001ba4 <rvtest_code_begin+0x1794>
    80001b9c:	000121b7          	lui	x3,0x12
    80001ba0:	3ab1819b          	addiw	x3,x3,939 # 123ab <offset+0x123ab>
    80001ba4:	0030b423          	sd	x3,8(x1)
    80001ba8:	0080006f          	jal	x0,80001bb0 <rvtest_code_begin+0x17a0>
    80001bac:	0180006f          	jal	x0,80001bc4 <rvtest_code_begin+0x17b4>
    80001bb0:	0000d1b7          	lui	x3,0xd
    80001bb4:	ccc1819b          	addiw	x3,x3,-820 # cccc <offset+0xcccc>
    80001bb8:	ff5ffb6f          	jal	x22,80001bac <rvtest_code_begin+0x179c>
    80001bbc:	000121b7          	lui	x3,0x12
    80001bc0:	3ab1819b          	addiw	x3,x3,939 # 123ab <offset+0x123ab>
    80001bc4:	0030b823          	sd	x3,16(x1)
    80001bc8:	0000d1b7          	lui	x3,0xd
    80001bcc:	ccc1819b          	addiw	x3,x3,-820 # cccc <offset+0xcccc>
    80001bd0:	00c00bef          	jal	x23,80001bdc <rvtest_code_begin+0x17cc>
    80001bd4:	000121b7          	lui	x3,0x12
    80001bd8:	3ab1819b          	addiw	x3,x3,939 # 123ab <offset+0x123ab>
    80001bdc:	0030bc23          	sd	x3,24(x1)
    80001be0:	0000d1b7          	lui	x3,0xd
    80001be4:	ccc1819b          	addiw	x3,x3,-820 # cccc <offset+0xcccc>
    80001be8:	00c00c6f          	jal	x24,80001bf4 <rvtest_code_begin+0x17e4>
    80001bec:	000121b7          	lui	x3,0x12
    80001bf0:	3ab1819b          	addiw	x3,x3,939 # 123ab <offset+0x123ab>
    80001bf4:	0230b023          	sd	x3,32(x1)
    80001bf8:	00003097          	auipc	x1,0x3
    80001bfc:	b2008093          	addi	x1,x1,-1248 # 80004718 <signature_46_0>
    80001c00:	0000d1b7          	lui	x3,0xd
    80001c04:	ccc1819b          	addiw	x3,x3,-820 # cccc <offset+0xcccc>
    80001c08:	00c00cef          	jal	x25,80001c14 <rvtest_code_begin+0x1804>
    80001c0c:	000121b7          	lui	x3,0x12
    80001c10:	3ab1819b          	addiw	x3,x3,939 # 123ab <offset+0x123ab>
    80001c14:	0030b023          	sd	x3,0(x1)
    80001c18:	0000d1b7          	lui	x3,0xd
    80001c1c:	ccc1819b          	addiw	x3,x3,-820 # cccc <offset+0xcccc>
    80001c20:	00c00d6f          	jal	x26,80001c2c <rvtest_code_begin+0x181c>
    80001c24:	000121b7          	lui	x3,0x12
    80001c28:	3ab1819b          	addiw	x3,x3,939 # 123ab <offset+0x123ab>
    80001c2c:	0030b423          	sd	x3,8(x1)
    80001c30:	0080006f          	jal	x0,80001c38 <rvtest_code_begin+0x1828>
    80001c34:	0180006f          	jal	x0,80001c4c <rvtest_code_begin+0x183c>
    80001c38:	0000d1b7          	lui	x3,0xd
    80001c3c:	ccc1819b          	addiw	x3,x3,-820 # cccc <offset+0xcccc>
    80001c40:	ff5ffdef          	jal	x27,80001c34 <rvtest_code_begin+0x1824>
    80001c44:	000121b7          	lui	x3,0x12
    80001c48:	3ab1819b          	addiw	x3,x3,939 # 123ab <offset+0x123ab>
    80001c4c:	0030b823          	sd	x3,16(x1)
    80001c50:	0000d1b7          	lui	x3,0xd
    80001c54:	ccc1819b          	addiw	x3,x3,-820 # cccc <offset+0xcccc>
    80001c58:	00c00e6f          	jal	x28,80001c64 <rvtest_code_begin+0x1854>
    80001c5c:	000121b7          	lui	x3,0x12
    80001c60:	3ab1819b          	addiw	x3,x3,939 # 123ab <offset+0x123ab>
    80001c64:	0030bc23          	sd	x3,24(x1)
    80001c68:	0000d1b7          	lui	x3,0xd
    80001c6c:	ccc1819b          	addiw	x3,x3,-820 # cccc <offset+0xcccc>
    80001c70:	00c00eef          	jal	x29,80001c7c <rvtest_code_begin+0x186c>
    80001c74:	000121b7          	lui	x3,0x12
    80001c78:	3ab1819b          	addiw	x3,x3,939 # 123ab <offset+0x123ab>
    80001c7c:	0230b023          	sd	x3,32(x1)
    80001c80:	00003217          	auipc	x4,0x3
    80001c84:	ac020213          	addi	x4,x4,-1344 # 80004740 <signature_47_0>
    80001c88:	0000d337          	lui	x6,0xd
    80001c8c:	ccc3031b          	addiw	x6,x6,-820 # cccc <offset+0xcccc>
    80001c90:	00c00f6f          	jal	x30,80001c9c <rvtest_code_begin+0x188c>
    80001c94:	00012337          	lui	x6,0x12
    80001c98:	3ab3031b          	addiw	x6,x6,939 # 123ab <offset+0x123ab>
    80001c9c:	00623023          	sd	x6,0(x4) # 0 <offset>
    80001ca0:	0000d337          	lui	x6,0xd
    80001ca4:	ccc3031b          	addiw	x6,x6,-820 # cccc <offset+0xcccc>
    80001ca8:	00c00fef          	jal	x31,80001cb4 <rvtest_code_begin+0x18a4>
    80001cac:	00012337          	lui	x6,0x12
    80001cb0:	3ab3031b          	addiw	x6,x6,939 # 123ab <offset+0x123ab>
    80001cb4:	00623423          	sd	x6,8(x4) # 8 <offset+0x8>
    80001cb8:	0080006f          	jal	x0,80001cc0 <rvtest_code_begin+0x18b0>
    80001cbc:	0180006f          	jal	x0,80001cd4 <rvtest_code_begin+0x18c4>
    80001cc0:	0000d337          	lui	x6,0xd
    80001cc4:	ccc3031b          	addiw	x6,x6,-820 # cccc <offset+0xcccc>
    80001cc8:	ff5ff0ef          	jal	x1,80001cbc <rvtest_code_begin+0x18ac>
    80001ccc:	00012337          	lui	x6,0x12
    80001cd0:	3ab3031b          	addiw	x6,x6,939 # 123ab <offset+0x123ab>
    80001cd4:	00623823          	sd	x6,16(x4) # 10 <offset+0x10>
    80001cd8:	0000d337          	lui	x6,0xd
    80001cdc:	ccc3031b          	addiw	x6,x6,-820 # cccc <offset+0xcccc>
    80001ce0:	00c000ef          	jal	x1,80001cec <rvtest_code_begin+0x18dc>
    80001ce4:	00012337          	lui	x6,0x12
    80001ce8:	3ab3031b          	addiw	x6,x6,939 # 123ab <offset+0x123ab>
    80001cec:	00623c23          	sd	x6,24(x4) # 18 <offset+0x18>
    80001cf0:	0000d337          	lui	x6,0xd
    80001cf4:	ccc3031b          	addiw	x6,x6,-820 # cccc <offset+0xcccc>
    80001cf8:	00c0016f          	jal	x2,80001d04 <rvtest_code_begin+0x18f4>
    80001cfc:	00012337          	lui	x6,0x12
    80001d00:	3ab3031b          	addiw	x6,x6,939 # 123ab <offset+0x123ab>
    80001d04:	02623023          	sd	x6,32(x4) # 20 <offset+0x20>
    80001d08:	00003097          	auipc	x1,0x3
    80001d0c:	a6008093          	addi	x1,x1,-1440 # 80004768 <signature_48_0>
    80001d10:	0000d4b7          	lui	x9,0xd
    80001d14:	ccc4849b          	addiw	x9,x9,-820 # cccc <offset+0xcccc>
    80001d18:	00c001ef          	jal	x3,80001d24 <rvtest_code_begin+0x1914>
    80001d1c:	000124b7          	lui	x9,0x12
    80001d20:	3ab4849b          	addiw	x9,x9,939 # 123ab <offset+0x123ab>
    80001d24:	0090b023          	sd	x9,0(x1)
    80001d28:	0000d4b7          	lui	x9,0xd
    80001d2c:	ccc4849b          	addiw	x9,x9,-820 # cccc <offset+0xcccc>
    80001d30:	00c0026f          	jal	x4,80001d3c <rvtest_code_begin+0x192c>
    80001d34:	000124b7          	lui	x9,0x12
    80001d38:	3ab4849b          	addiw	x9,x9,939 # 123ab <offset+0x123ab>
    80001d3c:	0090b423          	sd	x9,8(x1)
    80001d40:	0080006f          	jal	x0,80001d48 <rvtest_code_begin+0x1938>
    80001d44:	0180006f          	jal	x0,80001d5c <rvtest_code_begin+0x194c>
    80001d48:	0000d4b7          	lui	x9,0xd
    80001d4c:	ccc4849b          	addiw	x9,x9,-820 # cccc <offset+0xcccc>
    80001d50:	ff5ff2ef          	jal	x5,80001d44 <rvtest_code_begin+0x1934>
    80001d54:	000124b7          	lui	x9,0x12
    80001d58:	3ab4849b          	addiw	x9,x9,939 # 123ab <offset+0x123ab>
    80001d5c:	0090b823          	sd	x9,16(x1)
    80001d60:	0000d4b7          	lui	x9,0xd
    80001d64:	ccc4849b          	addiw	x9,x9,-820 # cccc <offset+0xcccc>
    80001d68:	00c0036f          	jal	x6,80001d74 <rvtest_code_begin+0x1964>
    80001d6c:	000124b7          	lui	x9,0x12
    80001d70:	3ab4849b          	addiw	x9,x9,939 # 123ab <offset+0x123ab>
    80001d74:	0090bc23          	sd	x9,24(x1)
    80001d78:	0000d4b7          	lui	x9,0xd
    80001d7c:	ccc4849b          	addiw	x9,x9,-820 # cccc <offset+0xcccc>
    80001d80:	00c003ef          	jal	x7,80001d8c <rvtest_code_begin+0x197c>
    80001d84:	000124b7          	lui	x9,0x12
    80001d88:	3ab4849b          	addiw	x9,x9,939 # 123ab <offset+0x123ab>
    80001d8c:	0290b023          	sd	x9,32(x1)
    80001d90:	00003097          	auipc	x1,0x3
    80001d94:	a0008093          	addi	x1,x1,-1536 # 80004790 <signature_49_0>
    80001d98:	0000d1b7          	lui	x3,0xd
    80001d9c:	ccc1819b          	addiw	x3,x3,-820 # cccc <offset+0xcccc>
    80001da0:	00c0046f          	jal	x8,80001dac <rvtest_code_begin+0x199c>
    80001da4:	000121b7          	lui	x3,0x12
    80001da8:	3ab1819b          	addiw	x3,x3,939 # 123ab <offset+0x123ab>
    80001dac:	0030b023          	sd	x3,0(x1)
    80001db0:	0000d1b7          	lui	x3,0xd
    80001db4:	ccc1819b          	addiw	x3,x3,-820 # cccc <offset+0xcccc>
    80001db8:	00c004ef          	jal	x9,80001dc4 <rvtest_code_begin+0x19b4>
    80001dbc:	000121b7          	lui	x3,0x12
    80001dc0:	3ab1819b          	addiw	x3,x3,939 # 123ab <offset+0x123ab>
    80001dc4:	0030b423          	sd	x3,8(x1)
    80001dc8:	0080006f          	jal	x0,80001dd0 <rvtest_code_begin+0x19c0>
    80001dcc:	0180006f          	jal	x0,80001de4 <rvtest_code_begin+0x19d4>
    80001dd0:	0000d1b7          	lui	x3,0xd
    80001dd4:	ccc1819b          	addiw	x3,x3,-820 # cccc <offset+0xcccc>
    80001dd8:	ff5ff56f          	jal	x10,80001dcc <rvtest_code_begin+0x19bc>
    80001ddc:	000121b7          	lui	x3,0x12
    80001de0:	3ab1819b          	addiw	x3,x3,939 # 123ab <offset+0x123ab>
    80001de4:	0030b823          	sd	x3,16(x1)
    80001de8:	0000d1b7          	lui	x3,0xd
    80001dec:	ccc1819b          	addiw	x3,x3,-820 # cccc <offset+0xcccc>
    80001df0:	00c005ef          	jal	x11,80001dfc <rvtest_code_begin+0x19ec>
    80001df4:	000121b7          	lui	x3,0x12
    80001df8:	3ab1819b          	addiw	x3,x3,939 # 123ab <offset+0x123ab>
    80001dfc:	0030bc23          	sd	x3,24(x1)
    80001e00:	0000d1b7          	lui	x3,0xd
    80001e04:	ccc1819b          	addiw	x3,x3,-820 # cccc <offset+0xcccc>
    80001e08:	00c0066f          	jal	x12,80001e14 <rvtest_code_begin+0x1a04>
    80001e0c:	000121b7          	lui	x3,0x12
    80001e10:	3ab1819b          	addiw	x3,x3,939 # 123ab <offset+0x123ab>
    80001e14:	0230b023          	sd	x3,32(x1)
    80001e18:	00003097          	auipc	x1,0x3
    80001e1c:	9a008093          	addi	x1,x1,-1632 # 800047b8 <signature_50_0>
    80001e20:	0000d1b7          	lui	x3,0xd
    80001e24:	ccc1819b          	addiw	x3,x3,-820 # cccc <offset+0xcccc>
    80001e28:	00c006ef          	jal	x13,80001e34 <rvtest_code_begin+0x1a24>
    80001e2c:	000121b7          	lui	x3,0x12
    80001e30:	3ab1819b          	addiw	x3,x3,939 # 123ab <offset+0x123ab>
    80001e34:	0030b023          	sd	x3,0(x1)
    80001e38:	0000d1b7          	lui	x3,0xd
    80001e3c:	ccc1819b          	addiw	x3,x3,-820 # cccc <offset+0xcccc>
    80001e40:	00c0076f          	jal	x14,80001e4c <rvtest_code_begin+0x1a3c>
    80001e44:	000121b7          	lui	x3,0x12
    80001e48:	3ab1819b          	addiw	x3,x3,939 # 123ab <offset+0x123ab>
    80001e4c:	0030b423          	sd	x3,8(x1)
    80001e50:	0080006f          	jal	x0,80001e58 <rvtest_code_begin+0x1a48>
    80001e54:	0180006f          	jal	x0,80001e6c <rvtest_code_begin+0x1a5c>
    80001e58:	0000d1b7          	lui	x3,0xd
    80001e5c:	ccc1819b          	addiw	x3,x3,-820 # cccc <offset+0xcccc>
    80001e60:	ff5ff7ef          	jal	x15,80001e54 <rvtest_code_begin+0x1a44>
    80001e64:	000121b7          	lui	x3,0x12
    80001e68:	3ab1819b          	addiw	x3,x3,939 # 123ab <offset+0x123ab>
    80001e6c:	0030b823          	sd	x3,16(x1)
    80001e70:	0000d1b7          	lui	x3,0xd
    80001e74:	ccc1819b          	addiw	x3,x3,-820 # cccc <offset+0xcccc>
    80001e78:	00c0086f          	jal	x16,80001e84 <rvtest_code_begin+0x1a74>
    80001e7c:	000121b7          	lui	x3,0x12
    80001e80:	3ab1819b          	addiw	x3,x3,939 # 123ab <offset+0x123ab>
    80001e84:	0030bc23          	sd	x3,24(x1)
    80001e88:	0000d1b7          	lui	x3,0xd
    80001e8c:	ccc1819b          	addiw	x3,x3,-820 # cccc <offset+0xcccc>
    80001e90:	00c008ef          	jal	x17,80001e9c <rvtest_code_begin+0x1a8c>
    80001e94:	000121b7          	lui	x3,0x12
    80001e98:	3ab1819b          	addiw	x3,x3,939 # 123ab <offset+0x123ab>
    80001e9c:	0230b023          	sd	x3,32(x1)
    80001ea0:	00003097          	auipc	x1,0x3
    80001ea4:	94008093          	addi	x1,x1,-1728 # 800047e0 <signature_51_0>
    80001ea8:	0000d1b7          	lui	x3,0xd
    80001eac:	ccc1819b          	addiw	x3,x3,-820 # cccc <offset+0xcccc>
    80001eb0:	00c0096f          	jal	x18,80001ebc <rvtest_code_begin+0x1aac>
    80001eb4:	000121b7          	lui	x3,0x12
    80001eb8:	3ab1819b          	addiw	x3,x3,939 # 123ab <offset+0x123ab>
    80001ebc:	0030b023          	sd	x3,0(x1)
    80001ec0:	0000d1b7          	lui	x3,0xd
    80001ec4:	ccc1819b          	addiw	x3,x3,-820 # cccc <offset+0xcccc>
    80001ec8:	00c009ef          	jal	x19,80001ed4 <rvtest_code_begin+0x1ac4>
    80001ecc:	000121b7          	lui	x3,0x12
    80001ed0:	3ab1819b          	addiw	x3,x3,939 # 123ab <offset+0x123ab>
    80001ed4:	0030b423          	sd	x3,8(x1)
    80001ed8:	0080006f          	jal	x0,80001ee0 <rvtest_code_begin+0x1ad0>
    80001edc:	0180006f          	jal	x0,80001ef4 <rvtest_code_begin+0x1ae4>
    80001ee0:	0000d1b7          	lui	x3,0xd
    80001ee4:	ccc1819b          	addiw	x3,x3,-820 # cccc <offset+0xcccc>
    80001ee8:	ff5ffa6f          	jal	x20,80001edc <rvtest_code_begin+0x1acc>
    80001eec:	000121b7          	lui	x3,0x12
    80001ef0:	3ab1819b          	addiw	x3,x3,939 # 123ab <offset+0x123ab>
    80001ef4:	0030b823          	sd	x3,16(x1)
    80001ef8:	0000d1b7          	lui	x3,0xd
    80001efc:	ccc1819b          	addiw	x3,x3,-820 # cccc <offset+0xcccc>
    80001f00:	00c00aef          	jal	x21,80001f0c <rvtest_code_begin+0x1afc>
    80001f04:	000121b7          	lui	x3,0x12
    80001f08:	3ab1819b          	addiw	x3,x3,939 # 123ab <offset+0x123ab>
    80001f0c:	0030bc23          	sd	x3,24(x1)
    80001f10:	0000d1b7          	lui	x3,0xd
    80001f14:	ccc1819b          	addiw	x3,x3,-820 # cccc <offset+0xcccc>
    80001f18:	00c00b6f          	jal	x22,80001f24 <rvtest_code_begin+0x1b14>
    80001f1c:	000121b7          	lui	x3,0x12
    80001f20:	3ab1819b          	addiw	x3,x3,939 # 123ab <offset+0x123ab>
    80001f24:	0230b023          	sd	x3,32(x1)
    80001f28:	00003097          	auipc	x1,0x3
    80001f2c:	8e008093          	addi	x1,x1,-1824 # 80004808 <signature_52_0>
    80001f30:	0000d1b7          	lui	x3,0xd
    80001f34:	ccc1819b          	addiw	x3,x3,-820 # cccc <offset+0xcccc>
    80001f38:	00c00bef          	jal	x23,80001f44 <rvtest_code_begin+0x1b34>
    80001f3c:	000121b7          	lui	x3,0x12
    80001f40:	3ab1819b          	addiw	x3,x3,939 # 123ab <offset+0x123ab>
    80001f44:	0030b023          	sd	x3,0(x1)
    80001f48:	0000d1b7          	lui	x3,0xd
    80001f4c:	ccc1819b          	addiw	x3,x3,-820 # cccc <offset+0xcccc>
    80001f50:	00c00c6f          	jal	x24,80001f5c <rvtest_code_begin+0x1b4c>
    80001f54:	000121b7          	lui	x3,0x12
    80001f58:	3ab1819b          	addiw	x3,x3,939 # 123ab <offset+0x123ab>
    80001f5c:	0030b423          	sd	x3,8(x1)
    80001f60:	0080006f          	jal	x0,80001f68 <rvtest_code_begin+0x1b58>
    80001f64:	0180006f          	jal	x0,80001f7c <rvtest_code_begin+0x1b6c>
    80001f68:	0000d1b7          	lui	x3,0xd
    80001f6c:	ccc1819b          	addiw	x3,x3,-820 # cccc <offset+0xcccc>
    80001f70:	ff5ffcef          	jal	x25,80001f64 <rvtest_code_begin+0x1b54>
    80001f74:	000121b7          	lui	x3,0x12
    80001f78:	3ab1819b          	addiw	x3,x3,939 # 123ab <offset+0x123ab>
    80001f7c:	0030b823          	sd	x3,16(x1)
    80001f80:	0000d1b7          	lui	x3,0xd
    80001f84:	ccc1819b          	addiw	x3,x3,-820 # cccc <offset+0xcccc>
    80001f88:	00c00d6f          	jal	x26,80001f94 <rvtest_code_begin+0x1b84>
    80001f8c:	000121b7          	lui	x3,0x12
    80001f90:	3ab1819b          	addiw	x3,x3,939 # 123ab <offset+0x123ab>
    80001f94:	0030bc23          	sd	x3,24(x1)
    80001f98:	0000d1b7          	lui	x3,0xd
    80001f9c:	ccc1819b          	addiw	x3,x3,-820 # cccc <offset+0xcccc>
    80001fa0:	00c00def          	jal	x27,80001fac <rvtest_code_begin+0x1b9c>
    80001fa4:	000121b7          	lui	x3,0x12
    80001fa8:	3ab1819b          	addiw	x3,x3,939 # 123ab <offset+0x123ab>
    80001fac:	0230b023          	sd	x3,32(x1)
    80001fb0:	00003197          	auipc	x3,0x3
    80001fb4:	88018193          	addi	x3,x3,-1920 # 80004830 <signature_53_0>
    80001fb8:	0000d2b7          	lui	x5,0xd
    80001fbc:	ccc2829b          	addiw	x5,x5,-820 # cccc <offset+0xcccc>
    80001fc0:	00c00e6f          	jal	x28,80001fcc <rvtest_code_begin+0x1bbc>
    80001fc4:	000122b7          	lui	x5,0x12
    80001fc8:	3ab2829b          	addiw	x5,x5,939 # 123ab <offset+0x123ab>
    80001fcc:	0051b023          	sd	x5,0(x3)
    80001fd0:	0000d2b7          	lui	x5,0xd
    80001fd4:	ccc2829b          	addiw	x5,x5,-820 # cccc <offset+0xcccc>
    80001fd8:	00c00eef          	jal	x29,80001fe4 <rvtest_code_begin+0x1bd4>
    80001fdc:	000122b7          	lui	x5,0x12
    80001fe0:	3ab2829b          	addiw	x5,x5,939 # 123ab <offset+0x123ab>
    80001fe4:	0051b423          	sd	x5,8(x3)
    80001fe8:	0080006f          	jal	x0,80001ff0 <rvtest_code_begin+0x1be0>
    80001fec:	0180006f          	jal	x0,80002004 <rvtest_code_begin+0x1bf4>
    80001ff0:	0000d2b7          	lui	x5,0xd
    80001ff4:	ccc2829b          	addiw	x5,x5,-820 # cccc <offset+0xcccc>
    80001ff8:	ff5fff6f          	jal	x30,80001fec <rvtest_code_begin+0x1bdc>
    80001ffc:	000122b7          	lui	x5,0x12
    80002000:	3ab2829b          	addiw	x5,x5,939 # 123ab <offset+0x123ab>
    80002004:	0051b823          	sd	x5,16(x3)
    80002008:	0000d2b7          	lui	x5,0xd
    8000200c:	ccc2829b          	addiw	x5,x5,-820 # cccc <offset+0xcccc>
    80002010:	00c00fef          	jal	x31,8000201c <rvtest_code_begin+0x1c0c>
    80002014:	000122b7          	lui	x5,0x12
    80002018:	3ab2829b          	addiw	x5,x5,939 # 123ab <offset+0x123ab>
    8000201c:	0051bc23          	sd	x5,24(x3)
    80002020:	0000d2b7          	lui	x5,0xd
    80002024:	ccc2829b          	addiw	x5,x5,-820 # cccc <offset+0xcccc>
    80002028:	00c000ef          	jal	x1,80002034 <rvtest_code_begin+0x1c24>
    8000202c:	000122b7          	lui	x5,0x12
    80002030:	3ab2829b          	addiw	x5,x5,939 # 123ab <offset+0x123ab>
    80002034:	0251b023          	sd	x5,32(x3)
    80002038:	00003397          	auipc	x7,0x3
    8000203c:	82038393          	addi	x7,x7,-2016 # 80004858 <signature_54_0>
    80002040:	0000d4b7          	lui	x9,0xd
    80002044:	ccc4849b          	addiw	x9,x9,-820 # cccc <offset+0xcccc>
    80002048:	00c000ef          	jal	x1,80002054 <rvtest_code_begin+0x1c44>
    8000204c:	000124b7          	lui	x9,0x12
    80002050:	3ab4849b          	addiw	x9,x9,939 # 123ab <offset+0x123ab>
    80002054:	0093b023          	sd	x9,0(x7)
    80002058:	0000d4b7          	lui	x9,0xd
    8000205c:	ccc4849b          	addiw	x9,x9,-820 # cccc <offset+0xcccc>
    80002060:	00c0016f          	jal	x2,8000206c <rvtest_code_begin+0x1c5c>
    80002064:	000124b7          	lui	x9,0x12
    80002068:	3ab4849b          	addiw	x9,x9,939 # 123ab <offset+0x123ab>
    8000206c:	0093b423          	sd	x9,8(x7)
    80002070:	0080006f          	jal	x0,80002078 <rvtest_code_begin+0x1c68>
    80002074:	0180006f          	jal	x0,8000208c <rvtest_code_begin+0x1c7c>
    80002078:	0000d4b7          	lui	x9,0xd
    8000207c:	ccc4849b          	addiw	x9,x9,-820 # cccc <offset+0xcccc>
    80002080:	ff5ff1ef          	jal	x3,80002074 <rvtest_code_begin+0x1c64>
    80002084:	000124b7          	lui	x9,0x12
    80002088:	3ab4849b          	addiw	x9,x9,939 # 123ab <offset+0x123ab>
    8000208c:	0093b823          	sd	x9,16(x7)
    80002090:	0000d4b7          	lui	x9,0xd
    80002094:	ccc4849b          	addiw	x9,x9,-820 # cccc <offset+0xcccc>
    80002098:	00c0026f          	jal	x4,800020a4 <rvtest_code_begin+0x1c94>
    8000209c:	000124b7          	lui	x9,0x12
    800020a0:	3ab4849b          	addiw	x9,x9,939 # 123ab <offset+0x123ab>
    800020a4:	0093bc23          	sd	x9,24(x7)
    800020a8:	0000d4b7          	lui	x9,0xd
    800020ac:	ccc4849b          	addiw	x9,x9,-820 # cccc <offset+0xcccc>
    800020b0:	00c002ef          	jal	x5,800020bc <rvtest_code_begin+0x1cac>
    800020b4:	000124b7          	lui	x9,0x12
    800020b8:	3ab4849b          	addiw	x9,x9,939 # 123ab <offset+0x123ab>
    800020bc:	0293b023          	sd	x9,32(x7)
    800020c0:	00002097          	auipc	x1,0x2
    800020c4:	7c008093          	addi	x1,x1,1984 # 80004880 <signature_55_0>
    800020c8:	0000d1b7          	lui	x3,0xd
    800020cc:	ccc1819b          	addiw	x3,x3,-820 # cccc <offset+0xcccc>
    800020d0:	00c0036f          	jal	x6,800020dc <rvtest_code_begin+0x1ccc>
    800020d4:	000121b7          	lui	x3,0x12
    800020d8:	3ab1819b          	addiw	x3,x3,939 # 123ab <offset+0x123ab>
    800020dc:	0030b023          	sd	x3,0(x1)
    800020e0:	0000d1b7          	lui	x3,0xd
    800020e4:	ccc1819b          	addiw	x3,x3,-820 # cccc <offset+0xcccc>
    800020e8:	00c003ef          	jal	x7,800020f4 <rvtest_code_begin+0x1ce4>
    800020ec:	000121b7          	lui	x3,0x12
    800020f0:	3ab1819b          	addiw	x3,x3,939 # 123ab <offset+0x123ab>
    800020f4:	0030b423          	sd	x3,8(x1)
    800020f8:	0080006f          	jal	x0,80002100 <rvtest_code_begin+0x1cf0>
    800020fc:	0180006f          	jal	x0,80002114 <rvtest_code_begin+0x1d04>
    80002100:	0000d1b7          	lui	x3,0xd
    80002104:	ccc1819b          	addiw	x3,x3,-820 # cccc <offset+0xcccc>
    80002108:	ff5ff46f          	jal	x8,800020fc <rvtest_code_begin+0x1cec>
    8000210c:	000121b7          	lui	x3,0x12
    80002110:	3ab1819b          	addiw	x3,x3,939 # 123ab <offset+0x123ab>
    80002114:	0030b823          	sd	x3,16(x1)
    80002118:	0000d1b7          	lui	x3,0xd
    8000211c:	ccc1819b          	addiw	x3,x3,-820 # cccc <offset+0xcccc>
    80002120:	00c004ef          	jal	x9,8000212c <rvtest_code_begin+0x1d1c>
    80002124:	000121b7          	lui	x3,0x12
    80002128:	3ab1819b          	addiw	x3,x3,939 # 123ab <offset+0x123ab>
    8000212c:	0030bc23          	sd	x3,24(x1)
    80002130:	0000d1b7          	lui	x3,0xd
    80002134:	ccc1819b          	addiw	x3,x3,-820 # cccc <offset+0xcccc>
    80002138:	00c0056f          	jal	x10,80002144 <rvtest_code_begin+0x1d34>
    8000213c:	000121b7          	lui	x3,0x12
    80002140:	3ab1819b          	addiw	x3,x3,939 # 123ab <offset+0x123ab>
    80002144:	0230b023          	sd	x3,32(x1)
    80002148:	00002097          	auipc	x1,0x2
    8000214c:	76008093          	addi	x1,x1,1888 # 800048a8 <signature_56_0>
    80002150:	0000d1b7          	lui	x3,0xd
    80002154:	ccc1819b          	addiw	x3,x3,-820 # cccc <offset+0xcccc>
    80002158:	00c005ef          	jal	x11,80002164 <rvtest_code_begin+0x1d54>
    8000215c:	000121b7          	lui	x3,0x12
    80002160:	3ab1819b          	addiw	x3,x3,939 # 123ab <offset+0x123ab>
    80002164:	0030b023          	sd	x3,0(x1)
    80002168:	0000d1b7          	lui	x3,0xd
    8000216c:	ccc1819b          	addiw	x3,x3,-820 # cccc <offset+0xcccc>
    80002170:	00c0066f          	jal	x12,8000217c <rvtest_code_begin+0x1d6c>
    80002174:	000121b7          	lui	x3,0x12
    80002178:	3ab1819b          	addiw	x3,x3,939 # 123ab <offset+0x123ab>
    8000217c:	0030b423          	sd	x3,8(x1)
    80002180:	0080006f          	jal	x0,80002188 <rvtest_code_begin+0x1d78>
    80002184:	0180006f          	jal	x0,8000219c <rvtest_code_begin+0x1d8c>
    80002188:	0000d1b7          	lui	x3,0xd
    8000218c:	ccc1819b          	addiw	x3,x3,-820 # cccc <offset+0xcccc>
    80002190:	ff5ff6ef          	jal	x13,80002184 <rvtest_code_begin+0x1d74>
    80002194:	000121b7          	lui	x3,0x12
    80002198:	3ab1819b          	addiw	x3,x3,939 # 123ab <offset+0x123ab>
    8000219c:	0030b823          	sd	x3,16(x1)
    800021a0:	0000d1b7          	lui	x3,0xd
    800021a4:	ccc1819b          	addiw	x3,x3,-820 # cccc <offset+0xcccc>
    800021a8:	00c0076f          	jal	x14,800021b4 <rvtest_code_begin+0x1da4>
    800021ac:	000121b7          	lui	x3,0x12
    800021b0:	3ab1819b          	addiw	x3,x3,939 # 123ab <offset+0x123ab>
    800021b4:	0030bc23          	sd	x3,24(x1)
    800021b8:	0000d1b7          	lui	x3,0xd
    800021bc:	ccc1819b          	addiw	x3,x3,-820 # cccc <offset+0xcccc>
    800021c0:	00c007ef          	jal	x15,800021cc <rvtest_code_begin+0x1dbc>
    800021c4:	000121b7          	lui	x3,0x12
    800021c8:	3ab1819b          	addiw	x3,x3,939 # 123ab <offset+0x123ab>
    800021cc:	0230b023          	sd	x3,32(x1)
    800021d0:	00002097          	auipc	x1,0x2
    800021d4:	70008093          	addi	x1,x1,1792 # 800048d0 <signature_57_0>
    800021d8:	0000d1b7          	lui	x3,0xd
    800021dc:	ccc1819b          	addiw	x3,x3,-820 # cccc <offset+0xcccc>
    800021e0:	00c0086f          	jal	x16,800021ec <rvtest_code_begin+0x1ddc>
    800021e4:	000121b7          	lui	x3,0x12
    800021e8:	3ab1819b          	addiw	x3,x3,939 # 123ab <offset+0x123ab>
    800021ec:	0030b023          	sd	x3,0(x1)
    800021f0:	0000d1b7          	lui	x3,0xd
    800021f4:	ccc1819b          	addiw	x3,x3,-820 # cccc <offset+0xcccc>
    800021f8:	00c008ef          	jal	x17,80002204 <rvtest_code_begin+0x1df4>
    800021fc:	000121b7          	lui	x3,0x12
    80002200:	3ab1819b          	addiw	x3,x3,939 # 123ab <offset+0x123ab>
    80002204:	0030b423          	sd	x3,8(x1)
    80002208:	0080006f          	jal	x0,80002210 <rvtest_code_begin+0x1e00>
    8000220c:	0180006f          	jal	x0,80002224 <rvtest_code_begin+0x1e14>
    80002210:	0000d1b7          	lui	x3,0xd
    80002214:	ccc1819b          	addiw	x3,x3,-820 # cccc <offset+0xcccc>
    80002218:	ff5ff96f          	jal	x18,8000220c <rvtest_code_begin+0x1dfc>
    8000221c:	000121b7          	lui	x3,0x12
    80002220:	3ab1819b          	addiw	x3,x3,939 # 123ab <offset+0x123ab>
    80002224:	0030b823          	sd	x3,16(x1)
    80002228:	0000d1b7          	lui	x3,0xd
    8000222c:	ccc1819b          	addiw	x3,x3,-820 # cccc <offset+0xcccc>
    80002230:	00c009ef          	jal	x19,8000223c <rvtest_code_begin+0x1e2c>
    80002234:	000121b7          	lui	x3,0x12
    80002238:	3ab1819b          	addiw	x3,x3,939 # 123ab <offset+0x123ab>
    8000223c:	0030bc23          	sd	x3,24(x1)
    80002240:	0000d1b7          	lui	x3,0xd
    80002244:	ccc1819b          	addiw	x3,x3,-820 # cccc <offset+0xcccc>
    80002248:	00c00a6f          	jal	x20,80002254 <rvtest_code_begin+0x1e44>
    8000224c:	000121b7          	lui	x3,0x12
    80002250:	3ab1819b          	addiw	x3,x3,939 # 123ab <offset+0x123ab>
    80002254:	0230b023          	sd	x3,32(x1)
    80002258:	00002097          	auipc	x1,0x2
    8000225c:	6a008093          	addi	x1,x1,1696 # 800048f8 <signature_58_0>
    80002260:	0000d1b7          	lui	x3,0xd
    80002264:	ccc1819b          	addiw	x3,x3,-820 # cccc <offset+0xcccc>
    80002268:	00c00aef          	jal	x21,80002274 <rvtest_code_begin+0x1e64>
    8000226c:	000121b7          	lui	x3,0x12
    80002270:	3ab1819b          	addiw	x3,x3,939 # 123ab <offset+0x123ab>
    80002274:	0030b023          	sd	x3,0(x1)
    80002278:	0000d1b7          	lui	x3,0xd
    8000227c:	ccc1819b          	addiw	x3,x3,-820 # cccc <offset+0xcccc>
    80002280:	00c00b6f          	jal	x22,8000228c <rvtest_code_begin+0x1e7c>
    80002284:	000121b7          	lui	x3,0x12
    80002288:	3ab1819b          	addiw	x3,x3,939 # 123ab <offset+0x123ab>
    8000228c:	0030b423          	sd	x3,8(x1)
    80002290:	0080006f          	jal	x0,80002298 <rvtest_code_begin+0x1e88>
    80002294:	0180006f          	jal	x0,800022ac <rvtest_code_begin+0x1e9c>
    80002298:	0000d1b7          	lui	x3,0xd
    8000229c:	ccc1819b          	addiw	x3,x3,-820 # cccc <offset+0xcccc>
    800022a0:	ff5ffbef          	jal	x23,80002294 <rvtest_code_begin+0x1e84>
    800022a4:	000121b7          	lui	x3,0x12
    800022a8:	3ab1819b          	addiw	x3,x3,939 # 123ab <offset+0x123ab>
    800022ac:	0030b823          	sd	x3,16(x1)
    800022b0:	0000d1b7          	lui	x3,0xd
    800022b4:	ccc1819b          	addiw	x3,x3,-820 # cccc <offset+0xcccc>
    800022b8:	00c00c6f          	jal	x24,800022c4 <rvtest_code_begin+0x1eb4>
    800022bc:	000121b7          	lui	x3,0x12
    800022c0:	3ab1819b          	addiw	x3,x3,939 # 123ab <offset+0x123ab>
    800022c4:	0030bc23          	sd	x3,24(x1)
    800022c8:	0000d1b7          	lui	x3,0xd
    800022cc:	ccc1819b          	addiw	x3,x3,-820 # cccc <offset+0xcccc>
    800022d0:	00c00cef          	jal	x25,800022dc <rvtest_code_begin+0x1ecc>
    800022d4:	000121b7          	lui	x3,0x12
    800022d8:	3ab1819b          	addiw	x3,x3,939 # 123ab <offset+0x123ab>
    800022dc:	0230b023          	sd	x3,32(x1)
    800022e0:	00002097          	auipc	x1,0x2
    800022e4:	64008093          	addi	x1,x1,1600 # 80004920 <signature_59_0>
    800022e8:	0000d1b7          	lui	x3,0xd
    800022ec:	ccc1819b          	addiw	x3,x3,-820 # cccc <offset+0xcccc>
    800022f0:	00c00d6f          	jal	x26,800022fc <rvtest_code_begin+0x1eec>
    800022f4:	000121b7          	lui	x3,0x12
    800022f8:	3ab1819b          	addiw	x3,x3,939 # 123ab <offset+0x123ab>
    800022fc:	0030b023          	sd	x3,0(x1)
    80002300:	0000d1b7          	lui	x3,0xd
    80002304:	ccc1819b          	addiw	x3,x3,-820 # cccc <offset+0xcccc>
    80002308:	00c00def          	jal	x27,80002314 <rvtest_code_begin+0x1f04>
    8000230c:	000121b7          	lui	x3,0x12
    80002310:	3ab1819b          	addiw	x3,x3,939 # 123ab <offset+0x123ab>
    80002314:	0030b423          	sd	x3,8(x1)
    80002318:	0080006f          	jal	x0,80002320 <rvtest_code_begin+0x1f10>
    8000231c:	0180006f          	jal	x0,80002334 <rvtest_code_begin+0x1f24>
    80002320:	0000d1b7          	lui	x3,0xd
    80002324:	ccc1819b          	addiw	x3,x3,-820 # cccc <offset+0xcccc>
    80002328:	ff5ffe6f          	jal	x28,8000231c <rvtest_code_begin+0x1f0c>
    8000232c:	000121b7          	lui	x3,0x12
    80002330:	3ab1819b          	addiw	x3,x3,939 # 123ab <offset+0x123ab>
    80002334:	0030b823          	sd	x3,16(x1)
    80002338:	0000d1b7          	lui	x3,0xd
    8000233c:	ccc1819b          	addiw	x3,x3,-820 # cccc <offset+0xcccc>
    80002340:	00c00eef          	jal	x29,8000234c <rvtest_code_begin+0x1f3c>
    80002344:	000121b7          	lui	x3,0x12
    80002348:	3ab1819b          	addiw	x3,x3,939 # 123ab <offset+0x123ab>
    8000234c:	0030bc23          	sd	x3,24(x1)
    80002350:	0000d1b7          	lui	x3,0xd
    80002354:	ccc1819b          	addiw	x3,x3,-820 # cccc <offset+0xcccc>
    80002358:	00c00f6f          	jal	x30,80002364 <rvtest_code_begin+0x1f54>
    8000235c:	000121b7          	lui	x3,0x12
    80002360:	3ab1819b          	addiw	x3,x3,939 # 123ab <offset+0x123ab>
    80002364:	0230b023          	sd	x3,32(x1)
    80002368:	00002117          	auipc	x2,0x2
    8000236c:	5e010113          	addi	x2,x2,1504 # 80004948 <signature_60_0>
    80002370:	0000d237          	lui	x4,0xd
    80002374:	ccc2021b          	addiw	x4,x4,-820 # cccc <offset+0xcccc>
    80002378:	00c00fef          	jal	x31,80002384 <rvtest_code_begin+0x1f74>
    8000237c:	00012237          	lui	x4,0x12
    80002380:	3ab2021b          	addiw	x4,x4,939 # 123ab <offset+0x123ab>
    80002384:	00413023          	sd	x4,0(x2)
    80002388:	0000d237          	lui	x4,0xd
    8000238c:	ccc2021b          	addiw	x4,x4,-820 # cccc <offset+0xcccc>
    80002390:	00c00b6f          	jal	x22,8000239c <rvtest_code_begin+0x1f8c>
    80002394:	00012237          	lui	x4,0x12
    80002398:	3ab2021b          	addiw	x4,x4,939 # 123ab <offset+0x123ab>
    8000239c:	00413423          	sd	x4,8(x2)
    800023a0:	0080006f          	jal	x0,800023a8 <rvtest_code_begin+0x1f98>
    800023a4:	0180006f          	jal	x0,800023bc <rvtest_code_begin+0x1fac>
    800023a8:	0000d237          	lui	x4,0xd
    800023ac:	ccc2021b          	addiw	x4,x4,-820 # cccc <offset+0xcccc>
    800023b0:	ff5ff06f          	jal	x0,800023a4 <rvtest_code_begin+0x1f94>
    800023b4:	00012237          	lui	x4,0x12
    800023b8:	3ab2021b          	addiw	x4,x4,939 # 123ab <offset+0x123ab>
    800023bc:	00413823          	sd	x4,16(x2)
    800023c0:	0000d237          	lui	x4,0xd
    800023c4:	ccc2021b          	addiw	x4,x4,-820 # cccc <offset+0xcccc>
    800023c8:	00c003ef          	jal	x7,800023d4 <rvtest_code_begin+0x1fc4>
    800023cc:	00012237          	lui	x4,0x12
    800023d0:	3ab2021b          	addiw	x4,x4,939 # 123ab <offset+0x123ab>
    800023d4:	00413c23          	sd	x4,24(x2)
    800023d8:	00000013          	addi	x0,x0,0
    800023dc:	00000013          	addi	x0,x0,0

00000000800023e0 <rvtest_code_end>:
    800023e0:	0ff0000f          	fence	iorw,iorw
    800023e4:	00000073          	ecall
	...
