
BEQ-01.elf:     file format elf64-littleriscv


Disassembly of section .text.init:

0000000080000000 <rvtest_entry_point>:
    80000000:	0440006f          	jal	x0,80000044 <reset_vector>

0000000080000004 <trap_vector>:
    80000004:	342022f3          	csrrs	x5,mcause,x0
    80000008:	00800313          	addi	x6,x0,8
    8000000c:	02628663          	beq	x5,x6,80000038 <write_tohost>
    80000010:	00900313          	addi	x6,x0,9
    80000014:	02628263          	beq	x5,x6,80000038 <write_tohost>
    80000018:	00b00313          	addi	x6,x0,11
    8000001c:	00628e63          	beq	x5,x6,80000038 <write_tohost>
    80000020:	00000293          	addi	x5,x0,0
    80000024:	00028463          	beq	x5,x0,8000002c <trap_vector+0x28>
    80000028:	00028067          	jalr	x0,0(x5)
    8000002c:	342022f3          	csrrs	x5,mcause,x0
    80000030:	0002d263          	bge	x5,x0,80000034 <handle_exception>

0000000080000034 <handle_exception>:
    80000034:	5391e193          	ori	x3,x3,1337

0000000080000038 <write_tohost>:
    80000038:	00004297          	auipc	x5,0x4
    8000003c:	fc32a423          	sw	x3,-56(x5) # 80004000 <tohost>
    80000040:	ff9ff06f          	jal	x0,80000038 <write_tohost>

0000000080000044 <reset_vector>:
    80000044:	00002537          	lui	x10,0x2
    80000048:	8005051b          	addiw	x10,x10,-2048 # 1800 <offset+0x1800>
    8000004c:	30052073          	csrrs	x0,mstatus,x10
    80000050:	00000297          	auipc	x5,0x0
    80000054:	fb428293          	addi	x5,x5,-76 # 80000004 <trap_vector>
    80000058:	30529073          	csrrw	x0,mtvec,x5
    8000005c:	00000297          	auipc	x5,0x0
    80000060:	02428293          	addi	x5,x5,36 # 80000080 <rvtest_init>
    80000064:	34129073          	csrrw	x0,mepc,x5
    80000068:	f1402573          	csrrs	x10,mhartid,x0
    8000006c:	30200073          	mret
    80000070:	00000013          	addi	x0,x0,0
    80000074:	00000013          	addi	x0,x0,0
    80000078:	00000013          	addi	x0,x0,0
    8000007c:	00000013          	addi	x0,x0,0

0000000080000080 <rvtest_init>:
    80000080:	ff76e0b7          	lui	x1,0xff76e
    80000084:	f570809b          	addiw	x1,x1,-169 # ffffffffff76df57 <_end+0xffffffff7f76844f>
    80000088:	01309093          	slli	x1,x1,0x13
    8000008c:	bb708093          	addi	x1,x1,-1097
    80000090:	00e09093          	slli	x1,x1,0xe
    80000094:	ead08093          	addi	x1,x1,-339
    80000098:	ff76e137          	lui	x2,0xff76e
    8000009c:	f571011b          	addiw	x2,x2,-169 # ffffffffff76df57 <_end+0xffffffff7f76844f>
    800000a0:	01311113          	slli	x2,x2,0x13
    800000a4:	bb710113          	addi	x2,x2,-1097
    800000a8:	00d11113          	slli	x2,x2,0xd
    800000ac:	f5610113          	addi	x2,x2,-170
    800000b0:	000801b7          	lui	x3,0x80
    800000b4:	bb71819b          	addiw	x3,x3,-1097 # 7fbb7 <offset+0x7fbb7>
    800000b8:	00d19193          	slli	x3,x3,0xd
    800000bc:	f5718193          	addi	x3,x3,-169
    800000c0:	01319193          	slli	x3,x3,0x13
    800000c4:	bb718193          	addi	x3,x3,-1097
    800000c8:	00c19193          	slli	x3,x3,0xc
    800000cc:	fab18193          	addi	x3,x3,-85
    800000d0:	fff80237          	lui	x4,0xfff80
    800000d4:	bb72021b          	addiw	x4,x4,-1097 # fffffffffff7fbb7 <_end+0xffffffff7ff7a0af>
    800000d8:	00d21213          	slli	x4,x4,0xd
    800000dc:	f5720213          	addi	x4,x4,-169 # ffffffffffffff57 <_end+0xffffffff7fffa44f>
    800000e0:	01221213          	slli	x4,x4,0x12
    800000e4:	ddb20213          	addi	x4,x4,-549 # fffffffffffffddb <_end+0xffffffff7fffa2d3>
    800000e8:	00c21213          	slli	x4,x4,0xc
    800000ec:	7d520213          	addi	x4,x4,2005 # 7d5 <offset+0x7d5>
    800000f0:	00000297          	auipc	x5,0x0
    800000f4:	32028293          	addi	x5,x5,800 # 80000410 <rvtest_code_begin>
    800000f8:	00005317          	auipc	x6,0x5
    800000fc:	f0830313          	addi	x6,x6,-248 # 80005000 <rvtest_data_begin>
    80000100:	ffb803b7          	lui	x7,0xffb80
    80000104:	bb73839b          	addiw	x7,x7,-1097 # ffffffffffb7fbb7 <_end+0xffffffff7fb7a0af>
    80000108:	00d39393          	slli	x7,x7,0xd
    8000010c:	f5738393          	addi	x7,x7,-169
    80000110:	00f39393          	slli	x7,x7,0xf
    80000114:	fbb38393          	addi	x7,x7,-69
    80000118:	00c39393          	slli	x7,x7,0xc
    8000011c:	6fa38393          	addi	x7,x7,1786
    80000120:	00b80437          	lui	x8,0xb80
    80000124:	bb74041b          	addiw	x8,x8,-1097 # b7fbb7 <offset+0xb7fbb7>
    80000128:	00d41413          	slli	x8,x8,0xd
    8000012c:	f5740413          	addi	x8,x8,-169
    80000130:	00d41413          	slli	x8,x8,0xd
    80000134:	fef40413          	addi	x8,x8,-17
    80000138:	00d41413          	slli	x8,x8,0xd
    8000013c:	b7d40413          	addi	x8,x8,-1155
    80000140:	feb804b7          	lui	x9,0xfeb80
    80000144:	bb74849b          	addiw	x9,x9,-1097 # fffffffffeb7fbb7 <_end+0xffffffff7eb7a0af>
    80000148:	00d49493          	slli	x9,x9,0xd
    8000014c:	f5748493          	addi	x9,x9,-169
    80000150:	00d49493          	slli	x9,x9,0xd
    80000154:	fef48493          	addi	x9,x9,-17
    80000158:	00c49493          	slli	x9,x9,0xc
    8000015c:	dbe48493          	addi	x9,x9,-578
    80000160:	02b80537          	lui	x10,0x2b80
    80000164:	bb75051b          	addiw	x10,x10,-1097 # 2b7fbb7 <offset+0x2b7fbb7>
    80000168:	00d51513          	slli	x10,x10,0xd
    8000016c:	f5750513          	addi	x10,x10,-169
    80000170:	00c51513          	slli	x10,x10,0xc
    80000174:	ff750513          	addi	x10,x10,-9
    80000178:	00c51513          	slli	x10,x10,0xc
    8000017c:	6df50513          	addi	x10,x10,1759
    80000180:	ff5705b7          	lui	x11,0xff570
    80000184:	f775859b          	addiw	x11,x11,-137 # ffffffffff56ff77 <_end+0xffffffff7f56a46f>
    80000188:	00d59593          	slli	x11,x11,0xd
    8000018c:	beb58593          	addi	x11,x11,-1045
    80000190:	00c59593          	slli	x11,x11,0xc
    80000194:	dff58593          	addi	x11,x11,-513
    80000198:	00e59593          	slli	x11,x11,0xe
    8000019c:	b6f58593          	addi	x11,x11,-1169
    800001a0:	ff570637          	lui	x12,0xff570
    800001a4:	f776061b          	addiw	x12,x12,-137 # ffffffffff56ff77 <_end+0xffffffff7f56a46f>
    800001a8:	00d61613          	slli	x12,x12,0xd
    800001ac:	beb60613          	addi	x12,x12,-1045
    800001b0:	00c61613          	slli	x12,x12,0xc
    800001b4:	dff60613          	addi	x12,x12,-513
    800001b8:	00d61613          	slli	x12,x12,0xd
    800001bc:	db760613          	addi	x12,x12,-585
    800001c0:	ff5706b7          	lui	x13,0xff570
    800001c4:	f776869b          	addiw	x13,x13,-137 # ffffffffff56ff77 <_end+0xffffffff7f56a46f>
    800001c8:	00d69693          	slli	x13,x13,0xd
    800001cc:	beb68693          	addi	x13,x13,-1045
    800001d0:	00c69693          	slli	x13,x13,0xc
    800001d4:	dff68693          	addi	x13,x13,-513
    800001d8:	00c69693          	slli	x13,x13,0xc
    800001dc:	edb68693          	addi	x13,x13,-293
    800001e0:	ff570737          	lui	x14,0xff570
    800001e4:	f777071b          	addiw	x14,x14,-137 # ffffffffff56ff77 <_end+0xffffffff7f56a46f>
    800001e8:	00c71713          	slli	x14,x14,0xc
    800001ec:	df570713          	addi	x14,x14,-523
    800001f0:	00c71713          	slli	x14,x14,0xc
    800001f4:	6ff70713          	addi	x14,x14,1791
    800001f8:	00c71713          	slli	x14,x14,0xc
    800001fc:	76d70713          	addi	x14,x14,1901
    80000200:	fab807b7          	lui	x15,0xfab80
    80000204:	bb77879b          	addiw	x15,x15,-1097 # fffffffffab7fbb7 <_end+0xffffffff7ab7a0af>
    80000208:	00d79793          	slli	x15,x15,0xd
    8000020c:	f5778793          	addi	x15,x15,-169
    80000210:	01379793          	slli	x15,x15,0x13
    80000214:	bb678793          	addi	x15,x15,-1098
    80000218:	00002837          	lui	x16,0x2
    8000021c:	f578081b          	addiw	x16,x16,-169 # 1f57 <offset+0x1f57>
    80000220:	01381813          	slli	x16,x16,0x13
    80000224:	bb780813          	addi	x16,x16,-1097
    80000228:	00d81813          	slli	x16,x16,0xd
    8000022c:	f5780813          	addi	x16,x16,-169
    80000230:	01281813          	slli	x16,x16,0x12
    80000234:	ddb80813          	addi	x16,x16,-549
    80000238:	ffffe8b7          	lui	x17,0xffffe
    8000023c:	f578889b          	addiw	x17,x17,-169 # ffffffffffffdf57 <_end+0xffffffff7fff844f>
    80000240:	01389893          	slli	x17,x17,0x13
    80000244:	bb788893          	addi	x17,x17,-1097
    80000248:	00d89893          	slli	x17,x17,0xd
    8000024c:	f5788893          	addi	x17,x17,-169
    80000250:	01189893          	slli	x17,x17,0x11
    80000254:	eed88893          	addi	x17,x17,-275
    80000258:	ffffe937          	lui	x18,0xffffe
    8000025c:	f579091b          	addiw	x18,x18,-169 # ffffffffffffdf57 <_end+0xffffffff7fff844f>
    80000260:	01391913          	slli	x18,x18,0x13
    80000264:	bb790913          	addi	x18,x18,-1097
    80000268:	00d91913          	slli	x18,x18,0xd
    8000026c:	f5790913          	addi	x18,x18,-169
    80000270:	01091913          	slli	x18,x18,0x10
    80000274:	f7690913          	addi	x18,x18,-138
    80000278:	0000e9b7          	lui	x19,0xe
    8000027c:	f579899b          	addiw	x19,x19,-169 # df57 <offset+0xdf57>
    80000280:	01399993          	slli	x19,x19,0x13
    80000284:	bb798993          	addi	x19,x19,-1097
    80000288:	00d99993          	slli	x19,x19,0xd
    8000028c:	f5798993          	addi	x19,x19,-169
    80000290:	00f99993          	slli	x19,x19,0xf
    80000294:	fbb98993          	addi	x19,x19,-69
    80000298:	fffeea37          	lui	x20,0xfffee
    8000029c:	f57a0a1b          	addiw	x20,x20,-169 # fffffffffffedf57 <_end+0xffffffff7ffe844f>
    800002a0:	013a1a13          	slli	x20,x20,0x13
    800002a4:	bb7a0a13          	addi	x20,x20,-1097
    800002a8:	00da1a13          	slli	x20,x20,0xd
    800002ac:	f57a0a13          	addi	x20,x20,-169
    800002b0:	00ea1a13          	slli	x20,x20,0xe
    800002b4:	fdda0a13          	addi	x20,x20,-35
    800002b8:	fffeeab7          	lui	x21,0xfffee
    800002bc:	f57a8a9b          	addiw	x21,x21,-169 # fffffffffffedf57 <_end+0xffffffff7ffe844f>
    800002c0:	013a9a93          	slli	x21,x21,0x13
    800002c4:	bb7a8a93          	addi	x21,x21,-1097
    800002c8:	00da9a93          	slli	x21,x21,0xd
    800002cc:	f57a8a93          	addi	x21,x21,-169
    800002d0:	00da9a93          	slli	x21,x21,0xd
    800002d4:	feea8a93          	addi	x21,x21,-18
    800002d8:	0006eb37          	lui	x22,0x6e
    800002dc:	f57b0b1b          	addiw	x22,x22,-169 # 6df57 <offset+0x6df57>
    800002e0:	013b1b13          	slli	x22,x22,0x13
    800002e4:	bb7b0b13          	addi	x22,x22,-1097
    800002e8:	00db1b13          	slli	x22,x22,0xd
    800002ec:	f57b0b13          	addi	x22,x22,-169
    800002f0:	00cb1b13          	slli	x22,x22,0xc
    800002f4:	ff7b0b13          	addi	x22,x22,-9
    800002f8:	fff6ebb7          	lui	x23,0xfff6e
    800002fc:	f57b8b9b          	addiw	x23,x23,-169 # fffffffffff6df57 <_end+0xffffffff7ff6844f>
    80000300:	013b9b93          	slli	x23,x23,0x13
    80000304:	bb7b8b93          	addi	x23,x23,-1097
    80000308:	00cb9b93          	slli	x23,x23,0xc
    8000030c:	fabb8b93          	addi	x23,x23,-85
    80000310:	00cb9b93          	slli	x23,x23,0xc
    80000314:	7fbb8b93          	addi	x23,x23,2043
    80000318:	fff6ec37          	lui	x24,0xfff6e
    8000031c:	f57c0c1b          	addiw	x24,x24,-169 # fffffffffff6df57 <_end+0xffffffff7ff6844f>
    80000320:	010c1c13          	slli	x24,x24,0x10
    80000324:	f77c0c13          	addi	x24,x24,-137
    80000328:	00dc1c13          	slli	x24,x24,0xd
    8000032c:	bebc0c13          	addi	x24,x24,-1045
    80000330:	00dc1c13          	slli	x24,x24,0xd
    80000334:	bfdc0c13          	addi	x24,x24,-1027
    80000338:	fff6ecb7          	lui	x25,0xfff6e
    8000033c:	f57c8c9b          	addiw	x25,x25,-169 # fffffffffff6df57 <_end+0xffffffff7ff6844f>
    80000340:	010c9c93          	slli	x25,x25,0x10
    80000344:	f77c8c93          	addi	x25,x25,-137
    80000348:	00dc9c93          	slli	x25,x25,0xd
    8000034c:	bebc8c93          	addi	x25,x25,-1045
    80000350:	00cc9c93          	slli	x25,x25,0xc
    80000354:	dfec8c93          	addi	x25,x25,-514
    80000358:	0076ed37          	lui	x26,0x76e
    8000035c:	f57d0d1b          	addiw	x26,x26,-169 # 76df57 <offset+0x76df57>
    80000360:	010d1d13          	slli	x26,x26,0x10
    80000364:	f77d0d13          	addi	x26,x26,-137
    80000368:	00cd1d13          	slli	x26,x26,0xc
    8000036c:	df5d0d13          	addi	x26,x26,-523
    80000370:	00cd1d13          	slli	x26,x26,0xc
    80000374:	6ffd0d13          	addi	x26,x26,1791
    80000378:	ff76edb7          	lui	x27,0xff76e
    8000037c:	f57d8d9b          	addiw	x27,x27,-169 # ffffffffff76df57 <_end+0xffffffff7f76844f>
    80000380:	00fd9d93          	slli	x27,x27,0xf
    80000384:	fbbd8d93          	addi	x27,x27,-69
    80000388:	00cd9d93          	slli	x27,x27,0xc
    8000038c:	6fbd8d93          	addi	x27,x27,1787
    80000390:	00cd9d93          	slli	x27,x27,0xc
    80000394:	b7fd8d93          	addi	x27,x27,-1153
    80000398:	ff76ee37          	lui	x28,0xff76e
    8000039c:	f57e0e1b          	addiw	x28,x28,-169 # ffffffffff76df57 <_end+0xffffffff7f76844f>
    800003a0:	00de1e13          	slli	x28,x28,0xd
    800003a4:	fefe0e13          	addi	x28,x28,-17
    800003a8:	00de1e13          	slli	x28,x28,0xd
    800003ac:	b7de0e13          	addi	x28,x28,-1155
    800003b0:	00ce1e13          	slli	x28,x28,0xc
    800003b4:	5bfe0e13          	addi	x28,x28,1471
    800003b8:	ff76eeb7          	lui	x29,0xff76e
    800003bc:	f57e8e9b          	addiw	x29,x29,-169 # ffffffffff76df57 <_end+0xffffffff7f76844f>
    800003c0:	00de9e93          	slli	x29,x29,0xd
    800003c4:	fefe8e93          	addi	x29,x29,-17
    800003c8:	00ce9e93          	slli	x29,x29,0xc
    800003cc:	dbfe8e93          	addi	x29,x29,-577
    800003d0:	00ce9e93          	slli	x29,x29,0xc
    800003d4:	adfe8e93          	addi	x29,x29,-1313
    800003d8:	ff76ef37          	lui	x30,0xff76e
    800003dc:	f57f0f1b          	addiw	x30,x30,-169 # ffffffffff76df57 <_end+0xffffffff7f76844f>
    800003e0:	00cf1f13          	slli	x30,x30,0xc
    800003e4:	ff7f0f13          	addi	x30,x30,-9
    800003e8:	00cf1f13          	slli	x30,x30,0xc
    800003ec:	6dff0f13          	addi	x30,x30,1759
    800003f0:	00cf1f13          	slli	x30,x30,0xc
    800003f4:	56ff0f13          	addi	x30,x30,1391
    800003f8:	ff76efb7          	lui	x31,0xff76e
    800003fc:	f57f8f9b          	addiw	x31,x31,-169 # ffffffffff76df57 <_end+0xffffffff7f76844f>
    80000400:	013f9f93          	slli	x31,x31,0x13
    80000404:	bb7f8f93          	addi	x31,x31,-1097
    80000408:	010f9f93          	slli	x31,x31,0x10
    8000040c:	ab7f8f93          	addi	x31,x31,-1353

0000000080000410 <rvtest_code_begin>:
    80000410:	00005097          	auipc	x1,0x5
    80000414:	c0008093          	addi	x1,x1,-1024 # 80005010 <begin_signature>
    80000418:	0000d237          	lui	x4,0xd
    8000041c:	ccc2021b          	addiw	x4,x4,-820 # cccc <offset+0xcccc>
    80000420:	002a89b7          	lui	x19,0x2a8
    80000424:	a579899b          	addiw	x19,x19,-1449 # 2a7a57 <offset+0x2a7a57>
    80000428:	00c99993          	slli	x19,x19,0xc
    8000042c:	75998993          	addi	x19,x19,1881
    80000430:	00c99993          	slli	x19,x19,0xc
    80000434:	a8d98993          	addi	x19,x19,-1395
    80000438:	01199993          	slli	x19,x19,0x11
    8000043c:	1ef98993          	addi	x19,x19,495
    80000440:	ffa5ee37          	lui	x28,0xffa5e
    80000444:	7a5e0e1b          	addiw	x28,x28,1957 # ffffffffffa5e7a5 <_end+0xffffffff7fa58c9d>
    80000448:	00ce1e13          	slli	x28,x28,0xc
    8000044c:	3c3e0e13          	addi	x28,x28,963
    80000450:	00ce1e13          	slli	x28,x28,0xc
    80000454:	2b5e0e13          	addi	x28,x28,693
    80000458:	00de1e13          	slli	x28,x28,0xd
    8000045c:	d27e0e13          	addi	x28,x28,-729
    80000460:	01c98663          	beq	x19,x28,8000046c <rvtest_code_begin+0x5c>
    80000464:	00012237          	lui	x4,0x12
    80000468:	3ab2021b          	addiw	x4,x4,939 # 123ab <offset+0x123ab>
    8000046c:	0040b023          	sd	x4,0(x1)
    80000470:	0000d237          	lui	x4,0xd
    80000474:	ccc2021b          	addiw	x4,x4,-820 # cccc <offset+0xcccc>
    80000478:	fff1df37          	lui	x30,0xfff1d
    8000047c:	bbff0f1b          	addiw	x30,x30,-1089 # fffffffffff1cbbf <_end+0xffffffff7ff170b7>
    80000480:	00cf1f13          	slli	x30,x30,0xc
    80000484:	609f0f13          	addi	x30,x30,1545
    80000488:	010f1f13          	slli	x30,x30,0x10
    8000048c:	10df0f13          	addi	x30,x30,269
    80000490:	00df1f13          	slli	x30,x30,0xd
    80000494:	a51f0f13          	addi	x30,x30,-1455
    80000498:	fd933a37          	lui	x20,0xfd933
    8000049c:	b35a0a1b          	addiw	x20,x20,-1227 # fffffffffd932b35 <_end+0xffffffff7d92d02d>
    800004a0:	00ca1a13          	slli	x20,x20,0xc
    800004a4:	049a0a13          	addi	x20,x20,73
    800004a8:	00da1a13          	slli	x20,x20,0xd
    800004ac:	a8da0a13          	addi	x20,x20,-1395
    800004b0:	00ca1a13          	slli	x20,x20,0xc
    800004b4:	5fda0a13          	addi	x20,x20,1533
    800004b8:	014f0663          	beq	x30,x20,800004c4 <rvtest_code_begin+0xb4>
    800004bc:	00012237          	lui	x4,0x12
    800004c0:	3ab2021b          	addiw	x4,x4,939 # 123ab <offset+0x123ab>
    800004c4:	0040b423          	sd	x4,8(x1)
    800004c8:	0080006f          	jal	x0,800004d0 <rvtest_code_begin+0xc0>
    800004cc:	0500006f          	jal	x0,8000051c <rvtest_code_begin+0x10c>
    800004d0:	0000d237          	lui	x4,0xd
    800004d4:	ccc2021b          	addiw	x4,x4,-820 # cccc <offset+0xcccc>
    800004d8:	fff27537          	lui	x10,0xfff27
    800004dc:	0095051b          	addiw	x10,x10,9 # fffffffffff27009 <_end+0xffffffff7ff21501>
    800004e0:	00e51513          	slli	x10,x10,0xe
    800004e4:	98150513          	addi	x10,x10,-1663
    800004e8:	00d51513          	slli	x10,x10,0xd
    800004ec:	33150513          	addi	x10,x10,817
    800004f0:	00d51513          	slli	x10,x10,0xd
    800004f4:	50f50513          	addi	x10,x10,1295
    800004f8:	e1f13037          	lui	x0,0xe1f13
    800004fc:	05f0001b          	addiw	x0,x0,95
    80000500:	00c01013          	slli	x0,x0,0xc
    80000504:	f1900013          	addi	x0,x0,-231
    80000508:	01501013          	slli	x0,x0,0x15
    8000050c:	a6400013          	addi	x0,x0,-1436
    80000510:	fa050ee3          	beq	x10,x0,800004cc <rvtest_code_begin+0xbc>
    80000514:	00012237          	lui	x4,0x12
    80000518:	3ab2021b          	addiw	x4,x4,939 # 123ab <offset+0x123ab>
    8000051c:	0040b823          	sd	x4,16(x1)
    80000520:	0000d237          	lui	x4,0xd
    80000524:	ccc2021b          	addiw	x4,x4,-820 # cccc <offset+0xcccc>
    80000528:	02f7b1b7          	lui	x3,0x2f7b
    8000052c:	22b1819b          	addiw	x3,x3,555 # 2f7b22b <offset+0x2f7b22b>
    80000530:	00c19193          	slli	x3,x3,0xc
    80000534:	7e518193          	addi	x3,x3,2021
    80000538:	00c19193          	slli	x3,x3,0xc
    8000053c:	4c918193          	addi	x3,x3,1225
    80000540:	00c19193          	slli	x3,x3,0xc
    80000544:	c1e18193          	addi	x3,x3,-994
    80000548:	fe9e1fb7          	lui	x31,0xfe9e1
    8000054c:	f41f8f9b          	addiw	x31,x31,-191 # fffffffffe9e0f41 <_end+0xffffffff7e9db439>
    80000550:	00cf9f93          	slli	x31,x31,0xc
    80000554:	fdff8f93          	addi	x31,x31,-33
    80000558:	00df9f93          	slli	x31,x31,0xd
    8000055c:	533f8f93          	addi	x31,x31,1331
    80000560:	00df9f93          	slli	x31,x31,0xd
    80000564:	0dbf8f93          	addi	x31,x31,219
    80000568:	01f18663          	beq	x3,x31,80000574 <rvtest_code_begin+0x164>
    8000056c:	00012237          	lui	x4,0x12
    80000570:	3ab2021b          	addiw	x4,x4,939 # 123ab <offset+0x123ab>
    80000574:	0040bc23          	sd	x4,24(x1)
    80000578:	0000d237          	lui	x4,0xd
    8000057c:	ccc2021b          	addiw	x4,x4,-820 # cccc <offset+0xcccc>
    80000580:	fffeceb7          	lui	x29,0xfffec
    80000584:	dcfe8e9b          	addiw	x29,x29,-561 # fffffffffffebdcf <_end+0xffffffff7ffe62c7>
    80000588:	00fe9e93          	slli	x29,x29,0xf
    8000058c:	e0be8e93          	addi	x29,x29,-501
    80000590:	00ee9e93          	slli	x29,x29,0xe
    80000594:	63de8e93          	addi	x29,x29,1597
    80000598:	00ce9e93          	slli	x29,x29,0xc
    8000059c:	847e8e93          	addi	x29,x29,-1977
    800005a0:	ffc042b7          	lui	x5,0xffc04
    800005a4:	ff12829b          	addiw	x5,x5,-15 # ffffffffffc03ff1 <_end+0xffffffff7fbfe4e9>
    800005a8:	00e29293          	slli	x5,x5,0xe
    800005ac:	07f28293          	addi	x5,x5,127
    800005b0:	00c29293          	slli	x5,x5,0xc
    800005b4:	77528293          	addi	x5,x5,1909
    800005b8:	00f29293          	slli	x5,x5,0xf
    800005bc:	ae728293          	addi	x5,x5,-1305
    800005c0:	005e8663          	beq	x29,x5,800005cc <rvtest_code_begin+0x1bc>
    800005c4:	00012237          	lui	x4,0x12
    800005c8:	3ab2021b          	addiw	x4,x4,939 # 123ab <offset+0x123ab>
    800005cc:	0240b023          	sd	x4,32(x1)
    800005d0:	00005097          	auipc	x1,0x5
    800005d4:	a6808093          	addi	x1,x1,-1432 # 80005038 <signature_2_0>
    800005d8:	0000d2b7          	lui	x5,0xd
    800005dc:	ccc2829b          	addiw	x5,x5,-820 # cccc <offset+0xcccc>
    800005e0:	fd0a6037          	lui	x0,0xfd0a6
    800005e4:	7c30001b          	addiw	x0,x0,1987
    800005e8:	00c01013          	slli	x0,x0,0xc
    800005ec:	37b00013          	addi	x0,x0,891
    800005f0:	00c01013          	slli	x0,x0,0xc
    800005f4:	00500013          	addi	x0,x0,5
    800005f8:	00d01013          	slli	x0,x0,0xd
    800005fc:	3d100013          	addi	x0,x0,977
    80000600:	020a06b7          	lui	x13,0x20a0
    80000604:	9636869b          	addiw	x13,x13,-1693 # 209f963 <offset+0x209f963>
    80000608:	00d69693          	slli	x13,x13,0xd
    8000060c:	23568693          	addi	x13,x13,565
    80000610:	00c69693          	slli	x13,x13,0xc
    80000614:	b8168693          	addi	x13,x13,-1151
    80000618:	00c69693          	slli	x13,x13,0xc
    8000061c:	fd468693          	addi	x13,x13,-44
    80000620:	00d00663          	beq	x0,x13,8000062c <rvtest_code_begin+0x21c>
    80000624:	000122b7          	lui	x5,0x12
    80000628:	3ab2829b          	addiw	x5,x5,939 # 123ab <offset+0x123ab>
    8000062c:	0050b023          	sd	x5,0(x1)
    80000630:	0000d2b7          	lui	x5,0xd
    80000634:	ccc2829b          	addiw	x5,x5,-820 # cccc <offset+0xcccc>
    80000638:	00587237          	lui	x4,0x587
    8000063c:	e152021b          	addiw	x4,x4,-491 # 586e15 <offset+0x586e15>
    80000640:	00c21213          	slli	x4,x4,0xc
    80000644:	34720213          	addi	x4,x4,839 # 347 <offset+0x347>
    80000648:	00c21213          	slli	x4,x4,0xc
    8000064c:	84d20213          	addi	x4,x4,-1971 # fffffffffffff84d <_end+0xffffffff7fff9d45>
    80000650:	00f21213          	slli	x4,x4,0xf
    80000654:	ad920213          	addi	x4,x4,-1319 # fffffffffffffad9 <_end+0xffffffff7fff9fd1>
    80000658:	007015b7          	lui	x11,0x701
    8000065c:	5135859b          	addiw	x11,x11,1299 # 701513 <offset+0x701513>
    80000660:	00d59593          	slli	x11,x11,0xd
    80000664:	ead58593          	addi	x11,x11,-339
    80000668:	00f59593          	slli	x11,x11,0xf
    8000066c:	14558593          	addi	x11,x11,325
    80000670:	00c59593          	slli	x11,x11,0xc
    80000674:	4c058593          	addi	x11,x11,1216
    80000678:	00b20663          	beq	x4,x11,80000684 <rvtest_code_begin+0x274>
    8000067c:	000122b7          	lui	x5,0x12
    80000680:	3ab2829b          	addiw	x5,x5,939 # 123ab <offset+0x123ab>
    80000684:	0050b423          	sd	x5,8(x1)
    80000688:	0080006f          	jal	x0,80000690 <rvtest_code_begin+0x280>
    8000068c:	0580006f          	jal	x0,800006e4 <rvtest_code_begin+0x2d4>
    80000690:	0000d2b7          	lui	x5,0xd
    80000694:	ccc2829b          	addiw	x5,x5,-820 # cccc <offset+0xcccc>
    80000698:	00055cb7          	lui	x25,0x55
    8000069c:	037c8c9b          	addiw	x25,x25,55 # 55037 <offset+0x55037>
    800006a0:	00fc9c93          	slli	x25,x25,0xf
    800006a4:	98bc8c93          	addi	x25,x25,-1653
    800006a8:	00fc9c93          	slli	x25,x25,0xf
    800006ac:	16bc8c93          	addi	x25,x25,363
    800006b0:	00dc9c93          	slli	x25,x25,0xd
    800006b4:	63ec8c93          	addi	x25,x25,1598
    800006b8:	f91dd137          	lui	x2,0xf91dd
    800006bc:	5ad1011b          	addiw	x2,x2,1453 # fffffffff91dd5ad <_end+0xffffffff791d7aa5>
    800006c0:	00c11113          	slli	x2,x2,0xc
    800006c4:	6b310113          	addi	x2,x2,1715
    800006c8:	00c11113          	slli	x2,x2,0xc
    800006cc:	d3f10113          	addi	x2,x2,-705
    800006d0:	00c11113          	slli	x2,x2,0xc
    800006d4:	1c510113          	addi	x2,x2,453
    800006d8:	fa2c8ae3          	beq	x25,x2,8000068c <rvtest_code_begin+0x27c>
    800006dc:	000122b7          	lui	x5,0x12
    800006e0:	3ab2829b          	addiw	x5,x5,939 # 123ab <offset+0x123ab>
    800006e4:	0050b823          	sd	x5,16(x1)
    800006e8:	0000d2b7          	lui	x5,0xd
    800006ec:	ccc2829b          	addiw	x5,x5,-820 # cccc <offset+0xcccc>
    800006f0:	02179937          	lui	x18,0x2179
    800006f4:	eb19091b          	addiw	x18,x18,-335 # 2178eb1 <offset+0x2178eb1>
    800006f8:	00c91913          	slli	x18,x18,0xc
    800006fc:	4a990913          	addi	x18,x18,1193
    80000700:	00c91913          	slli	x18,x18,0xc
    80000704:	19d90913          	addi	x18,x18,413
    80000708:	00d91913          	slli	x18,x18,0xd
    8000070c:	4dd90913          	addi	x18,x18,1245
    80000710:	0589f3b7          	lui	x7,0x589f
    80000714:	2cd3839b          	addiw	x7,x7,717 # 589f2cd <offset+0x589f2cd>
    80000718:	00c39393          	slli	x7,x7,0xc
    8000071c:	dd538393          	addi	x7,x7,-555
    80000720:	00c39393          	slli	x7,x7,0xc
    80000724:	98338393          	addi	x7,x7,-1661
    80000728:	00c39393          	slli	x7,x7,0xc
    8000072c:	65038393          	addi	x7,x7,1616
    80000730:	00790663          	beq	x18,x7,8000073c <rvtest_code_begin+0x32c>
    80000734:	000122b7          	lui	x5,0x12
    80000738:	3ab2829b          	addiw	x5,x5,939 # 123ab <offset+0x123ab>
    8000073c:	0050bc23          	sd	x5,24(x1)
    80000740:	0000d2b7          	lui	x5,0xd
    80000744:	ccc2829b          	addiw	x5,x5,-820 # cccc <offset+0xcccc>
    80000748:	299ea4b7          	lui	x9,0x299ea
    8000074c:	1c74849b          	addiw	x9,x9,455 # 299ea1c7 <offset+0x299ea1c7>
    80000750:	00d49493          	slli	x9,x9,0xd
    80000754:	efd48493          	addi	x9,x9,-259
    80000758:	00e49493          	slli	x9,x9,0xe
    8000075c:	07148493          	addi	x9,x9,113
    80000760:	004d2fb7          	lui	x31,0x4d2
    80000764:	36bf8f9b          	addiw	x31,x31,875 # 4d236b <offset+0x4d236b>
    80000768:	00df9f93          	slli	x31,x31,0xd
    8000076c:	f19f8f93          	addi	x31,x31,-231
    80000770:	00df9f93          	slli	x31,x31,0xd
    80000774:	0edf8f93          	addi	x31,x31,237
    80000778:	00ef9f93          	slli	x31,x31,0xe
    8000077c:	c30f8f93          	addi	x31,x31,-976
    80000780:	01f48663          	beq	x9,x31,8000078c <rvtest_code_begin+0x37c>
    80000784:	000122b7          	lui	x5,0x12
    80000788:	3ab2829b          	addiw	x5,x5,939 # 123ab <offset+0x123ab>
    8000078c:	0250b023          	sd	x5,32(x1)
    80000790:	00005097          	auipc	x1,0x5
    80000794:	8d008093          	addi	x1,x1,-1840 # 80005060 <signature_3_0>
    80000798:	0000d1b7          	lui	x3,0xd
    8000079c:	ccc1819b          	addiw	x3,x3,-820 # cccc <offset+0xcccc>
    800007a0:	fcc1e8b7          	lui	x17,0xfcc1e
    800007a4:	cfb8889b          	addiw	x17,x17,-773 # fffffffffcc1dcfb <_end+0xffffffff7cc181f3>
    800007a8:	00d89893          	slli	x17,x17,0xd
    800007ac:	3a988893          	addi	x17,x17,937
    800007b0:	00c89893          	slli	x17,x17,0xc
    800007b4:	68b88893          	addi	x17,x17,1675
    800007b8:	00c89893          	slli	x17,x17,0xc
    800007bc:	97f88893          	addi	x17,x17,-1665
    800007c0:	00485bb7          	lui	x23,0x485
    800007c4:	731b8b9b          	addiw	x23,x23,1841 # 485731 <offset+0x485731>
    800007c8:	00fb9b93          	slli	x23,x23,0xf
    800007cc:	863b8b93          	addi	x23,x23,-1949
    800007d0:	00cb9b93          	slli	x23,x23,0xc
    800007d4:	f6db8b93          	addi	x23,x23,-147
    800007d8:	00cb9b93          	slli	x23,x23,0xc
    800007dc:	b6db8b93          	addi	x23,x23,-1171
    800007e0:	01788663          	beq	x17,x23,800007ec <rvtest_code_begin+0x3dc>
    800007e4:	000121b7          	lui	x3,0x12
    800007e8:	3ab1819b          	addiw	x3,x3,939 # 123ab <offset+0x123ab>
    800007ec:	0030b023          	sd	x3,0(x1)
    800007f0:	0000d1b7          	lui	x3,0xd
    800007f4:	ccc1819b          	addiw	x3,x3,-820 # cccc <offset+0xcccc>
    800007f8:	000a3fb7          	lui	x31,0xa3
    800007fc:	ab7f8f9b          	addiw	x31,x31,-1353 # a2ab7 <offset+0xa2ab7>
    80000800:	00cf9f93          	slli	x31,x31,0xc
    80000804:	d6df8f93          	addi	x31,x31,-659
    80000808:	00ef9f93          	slli	x31,x31,0xe
    8000080c:	875f8f93          	addi	x31,x31,-1931
    80000810:	010f9f93          	slli	x31,x31,0x10
    80000814:	8a5f8f93          	addi	x31,x31,-1883
    80000818:	001aaab7          	lui	x21,0x1aa
    8000081c:	d43a8a9b          	addiw	x21,x21,-701 # 1a9d43 <offset+0x1a9d43>
    80000820:	00ca9a93          	slli	x21,x21,0xc
    80000824:	c9ba8a93          	addi	x21,x21,-869
    80000828:	00fa9a93          	slli	x21,x21,0xf
    8000082c:	1d7a8a93          	addi	x21,x21,471
    80000830:	00ea9a93          	slli	x21,x21,0xe
    80000834:	1a2a8a93          	addi	x21,x21,418
    80000838:	015f8663          	beq	x31,x21,80000844 <rvtest_code_begin+0x434>
    8000083c:	000121b7          	lui	x3,0x12
    80000840:	3ab1819b          	addiw	x3,x3,939 # 123ab <offset+0x123ab>
    80000844:	0030b423          	sd	x3,8(x1)
    80000848:	0080006f          	jal	x0,80000850 <rvtest_code_begin+0x440>
    8000084c:	0580006f          	jal	x0,800008a4 <rvtest_code_begin+0x494>
    80000850:	0000d1b7          	lui	x3,0xd
    80000854:	ccc1819b          	addiw	x3,x3,-820 # cccc <offset+0xcccc>
    80000858:	00331037          	lui	x0,0x331
    8000085c:	3450001b          	addiw	x0,x0,837
    80000860:	00d01013          	slli	x0,x0,0xd
    80000864:	1a500013          	addi	x0,x0,421
    80000868:	01001013          	slli	x0,x0,0x10
    8000086c:	f0900013          	addi	x0,x0,-247
    80000870:	00c01013          	slli	x0,x0,0xc
    80000874:	37800013          	addi	x0,x0,888
    80000878:	ffc35f37          	lui	x30,0xffc35
    8000087c:	7b9f0f1b          	addiw	x30,x30,1977 # ffffffffffc357b9 <_end+0xffffffff7fc2fcb1>
    80000880:	00df1f13          	slli	x30,x30,0xd
    80000884:	4b3f0f13          	addi	x30,x30,1203
    80000888:	00cf1f13          	slli	x30,x30,0xc
    8000088c:	665f0f13          	addi	x30,x30,1637
    80000890:	00ff1f13          	slli	x30,x30,0xf
    80000894:	ba8f0f13          	addi	x30,x30,-1112
    80000898:	fbe00ae3          	beq	x0,x30,8000084c <rvtest_code_begin+0x43c>
    8000089c:	000121b7          	lui	x3,0x12
    800008a0:	3ab1819b          	addiw	x3,x3,939 # 123ab <offset+0x123ab>
    800008a4:	0030b823          	sd	x3,16(x1)
    800008a8:	0000d1b7          	lui	x3,0xd
    800008ac:	ccc1819b          	addiw	x3,x3,-820 # cccc <offset+0xcccc>
    800008b0:	ffba4037          	lui	x0,0xffba4
    800008b4:	1950001b          	addiw	x0,x0,405
    800008b8:	00e01013          	slli	x0,x0,0xe
    800008bc:	e0100013          	addi	x0,x0,-511
    800008c0:	00e01013          	slli	x0,x0,0xe
    800008c4:	d5100013          	addi	x0,x0,-687
    800008c8:	00c01013          	slli	x0,x0,0xc
    800008cc:	81b00013          	addi	x0,x0,-2021
    800008d0:	fff718b7          	lui	x17,0xfff71
    800008d4:	dc58889b          	addiw	x17,x17,-571 # fffffffffff70dc5 <_end+0xffffffff7ff6b2bd>
    800008d8:	00e89893          	slli	x17,x17,0xe
    800008dc:	a2188893          	addi	x17,x17,-1503
    800008e0:	00c89893          	slli	x17,x17,0xc
    800008e4:	7a388893          	addi	x17,x17,1955
    800008e8:	01089893          	slli	x17,x17,0x10
    800008ec:	b1a88893          	addi	x17,x17,-1254
    800008f0:	01100663          	beq	x0,x17,800008fc <rvtest_code_begin+0x4ec>
    800008f4:	000121b7          	lui	x3,0x12
    800008f8:	3ab1819b          	addiw	x3,x3,939 # 123ab <offset+0x123ab>
    800008fc:	0030bc23          	sd	x3,24(x1)
    80000900:	0000d1b7          	lui	x3,0xd
    80000904:	ccc1819b          	addiw	x3,x3,-820 # cccc <offset+0xcccc>
    80000908:	001d2fb7          	lui	x31,0x1d2
    8000090c:	9d1f8f9b          	addiw	x31,x31,-1583 # 1d19d1 <offset+0x1d19d1>
    80000910:	00cf9f93          	slli	x31,x31,0xc
    80000914:	e65f8f93          	addi	x31,x31,-411
    80000918:	00df9f93          	slli	x31,x31,0xd
    8000091c:	423f8f93          	addi	x31,x31,1059
    80000920:	011f9f93          	slli	x31,x31,0x11
    80000924:	5f6f8f93          	addi	x31,x31,1526
    80000928:	0176c337          	lui	x6,0x176c
    8000092c:	94f3031b          	addiw	x6,x6,-1713 # 176b94f <offset+0x176b94f>
    80000930:	00c31313          	slli	x6,x6,0xc
    80000934:	05b30313          	addi	x6,x6,91
    80000938:	00d31313          	slli	x6,x6,0xd
    8000093c:	aef30313          	addi	x6,x6,-1297
    80000940:	00c31313          	slli	x6,x6,0xc
    80000944:	eb530313          	addi	x6,x6,-331
    80000948:	006f8663          	beq	x31,x6,80000954 <rvtest_code_begin+0x544>
    8000094c:	000121b7          	lui	x3,0x12
    80000950:	3ab1819b          	addiw	x3,x3,939 # 123ab <offset+0x123ab>
    80000954:	0230b023          	sd	x3,32(x1)
    80000958:	00004097          	auipc	x1,0x4
    8000095c:	73008093          	addi	x1,x1,1840 # 80005088 <signature_4_0>
    80000960:	0000d2b7          	lui	x5,0xd
    80000964:	ccc2829b          	addiw	x5,x5,-820 # cccc <offset+0xcccc>
    80000968:	02dac5b7          	lui	x11,0x2dac
    8000096c:	b8b5859b          	addiw	x11,x11,-1141 # 2dabb8b <offset+0x2dabb8b>
    80000970:	00c59593          	slli	x11,x11,0xc
    80000974:	74758593          	addi	x11,x11,1863
    80000978:	00d59593          	slli	x11,x11,0xd
    8000097c:	d5d58593          	addi	x11,x11,-675
    80000980:	00c59593          	slli	x11,x11,0xc
    80000984:	d0458593          	addi	x11,x11,-764
    80000988:	ff825b37          	lui	x22,0xff825
    8000098c:	649b0b1b          	addiw	x22,x22,1609 # ffffffffff825649 <_end+0xffffffff7f81fb41>
    80000990:	00db1b13          	slli	x22,x22,0xd
    80000994:	c93b0b13          	addi	x22,x22,-877
    80000998:	00cb1b13          	slli	x22,x22,0xc
    8000099c:	635b0b13          	addi	x22,x22,1589
    800009a0:	00fb1b13          	slli	x22,x22,0xf
    800009a4:	042b0b13          	addi	x22,x22,66
    800009a8:	01658663          	beq	x11,x22,800009b4 <rvtest_code_begin+0x5a4>
    800009ac:	000122b7          	lui	x5,0x12
    800009b0:	3ab2829b          	addiw	x5,x5,939 # 123ab <offset+0x123ab>
    800009b4:	0050b023          	sd	x5,0(x1)
    800009b8:	0000d2b7          	lui	x5,0xd
    800009bc:	ccc2829b          	addiw	x5,x5,-820 # cccc <offset+0xcccc>
    800009c0:	03dfa4b7          	lui	x9,0x3dfa
    800009c4:	7794849b          	addiw	x9,x9,1913 # 3dfa779 <offset+0x3dfa779>
    800009c8:	00c49493          	slli	x9,x9,0xc
    800009cc:	e2148493          	addi	x9,x9,-479
    800009d0:	00d49493          	slli	x9,x9,0xd
    800009d4:	6b948493          	addi	x9,x9,1721
    800009d8:	00c49493          	slli	x9,x9,0xc
    800009dc:	dfb48493          	addi	x9,x9,-517
    800009e0:	ffd33137          	lui	x2,0xffd33
    800009e4:	0c31011b          	addiw	x2,x2,195 # ffffffffffd330c3 <_end+0xffffffff7fd2d5bb>
    800009e8:	00e11113          	slli	x2,x2,0xe
    800009ec:	ce110113          	addi	x2,x2,-799
    800009f0:	00c11113          	slli	x2,x2,0xc
    800009f4:	e9110113          	addi	x2,x2,-367
    800009f8:	00c11113          	slli	x2,x2,0xc
    800009fc:	92c10113          	addi	x2,x2,-1748
    80000a00:	00248663          	beq	x9,x2,80000a0c <rvtest_code_begin+0x5fc>
    80000a04:	000122b7          	lui	x5,0x12
    80000a08:	3ab2829b          	addiw	x5,x5,939 # 123ab <offset+0x123ab>
    80000a0c:	0050b423          	sd	x5,8(x1)
    80000a10:	0080006f          	jal	x0,80000a18 <rvtest_code_begin+0x608>
    80000a14:	0500006f          	jal	x0,80000a64 <rvtest_code_begin+0x654>
    80000a18:	0000d2b7          	lui	x5,0xd
    80000a1c:	ccc2829b          	addiw	x5,x5,-820 # cccc <offset+0xcccc>
    80000a20:	006b43b7          	lui	x7,0x6b4
    80000a24:	1d93839b          	addiw	x7,x7,473 # 6b41d9 <offset+0x6b41d9>
    80000a28:	00d39393          	slli	x7,x7,0xd
    80000a2c:	01d38393          	addi	x7,x7,29
    80000a30:	00d39393          	slli	x7,x7,0xd
    80000a34:	d9f38393          	addi	x7,x7,-609
    80000a38:	00d39393          	slli	x7,x7,0xd
    80000a3c:	15638393          	addi	x7,x7,342
    80000a40:	e9b8b6b7          	lui	x13,0xe9b8b
    80000a44:	bf56869b          	addiw	x13,x13,-1035 # ffffffffe9b8abf5 <_end+0xffffffff69b850ed>
    80000a48:	00c69693          	slli	x13,x13,0xc
    80000a4c:	bfb68693          	addi	x13,x13,-1029
    80000a50:	01069693          	slli	x13,x13,0x10
    80000a54:	03d68693          	addi	x13,x13,61
    80000a58:	fad38ee3          	beq	x7,x13,80000a14 <rvtest_code_begin+0x604>
    80000a5c:	000122b7          	lui	x5,0x12
    80000a60:	3ab2829b          	addiw	x5,x5,939 # 123ab <offset+0x123ab>
    80000a64:	0050b823          	sd	x5,16(x1)
    80000a68:	0000d2b7          	lui	x5,0xd
    80000a6c:	ccc2829b          	addiw	x5,x5,-820 # cccc <offset+0xcccc>
    80000a70:	006903b7          	lui	x7,0x690
    80000a74:	d793839b          	addiw	x7,x7,-647 # 68fd79 <offset+0x68fd79>
    80000a78:	00e39393          	slli	x7,x7,0xe
    80000a7c:	4f938393          	addi	x7,x7,1273
    80000a80:	00c39393          	slli	x7,x7,0xc
    80000a84:	15b38393          	addi	x7,x7,347
    80000a88:	00d39393          	slli	x7,x7,0xd
    80000a8c:	48438393          	addi	x7,x7,1156
    80000a90:	ff1991b7          	lui	x3,0xff199
    80000a94:	fcf1819b          	addiw	x3,x3,-49 # ffffffffff198fcf <_end+0xffffffff7f1934c7>
    80000a98:	00d19193          	slli	x3,x3,0xd
    80000a9c:	42518193          	addi	x3,x3,1061
    80000aa0:	00d19193          	slli	x3,x3,0xd
    80000aa4:	d8318193          	addi	x3,x3,-637
    80000aa8:	00d19193          	slli	x3,x3,0xd
    80000aac:	67818193          	addi	x3,x3,1656
    80000ab0:	00338663          	beq	x7,x3,80000abc <rvtest_code_begin+0x6ac>
    80000ab4:	000122b7          	lui	x5,0x12
    80000ab8:	3ab2829b          	addiw	x5,x5,939 # 123ab <offset+0x123ab>
    80000abc:	0050bc23          	sd	x5,24(x1)
    80000ac0:	0000d2b7          	lui	x5,0xd
    80000ac4:	ccc2829b          	addiw	x5,x5,-820 # cccc <offset+0xcccc>
    80000ac8:	ff4b96b7          	lui	x13,0xff4b9
    80000acc:	1b16869b          	addiw	x13,x13,433 # ffffffffff4b91b1 <_end+0xffffffff7f4b36a9>
    80000ad0:	00d69693          	slli	x13,x13,0xd
    80000ad4:	80f68693          	addi	x13,x13,-2033
    80000ad8:	00c69693          	slli	x13,x13,0xc
    80000adc:	e6d68693          	addi	x13,x13,-403
    80000ae0:	00e69693          	slli	x13,x13,0xe
    80000ae4:	ddc68693          	addi	x13,x13,-548
    80000ae8:	fff95c37          	lui	x24,0xfff95
    80000aec:	497c0c1b          	addiw	x24,x24,1175 # fffffffffff95497 <_end+0xffffffff7ff8f98f>
    80000af0:	010c1c13          	slli	x24,x24,0x10
    80000af4:	1c3c0c13          	addi	x24,x24,451
    80000af8:	00dc1c13          	slli	x24,x24,0xd
    80000afc:	a77c0c13          	addi	x24,x24,-1417
    80000b00:	00ec1c13          	slli	x24,x24,0xe
    80000b04:	ce8c0c13          	addi	x24,x24,-792
    80000b08:	01868663          	beq	x13,x24,80000b14 <rvtest_code_begin+0x704>
    80000b0c:	000122b7          	lui	x5,0x12
    80000b10:	3ab2829b          	addiw	x5,x5,939 # 123ab <offset+0x123ab>
    80000b14:	0250b023          	sd	x5,32(x1)
    80000b18:	00004097          	auipc	x1,0x4
    80000b1c:	59808093          	addi	x1,x1,1432 # 800050b0 <signature_5_0>
    80000b20:	0000d2b7          	lui	x5,0xd
    80000b24:	ccc2829b          	addiw	x5,x5,-820 # cccc <offset+0xcccc>
    80000b28:	fffbf637          	lui	x12,0xfffbf
    80000b2c:	0076061b          	addiw	x12,x12,7 # fffffffffffbf007 <_end+0xffffffff7ffb94ff>
    80000b30:	00d61613          	slli	x12,x12,0xd
    80000b34:	77d60613          	addi	x12,x12,1917
    80000b38:	00e61613          	slli	x12,x12,0xe
    80000b3c:	42d60613          	addi	x12,x12,1069
    80000b40:	00f61613          	slli	x12,x12,0xf
    80000b44:	b5260613          	addi	x12,x12,-1198
    80000b48:	f4b551b7          	lui	x3,0xf4b55
    80000b4c:	a451819b          	addiw	x3,x3,-1467 # fffffffff4b54a45 <_end+0xffffffff74b4ef3d>
    80000b50:	01019193          	slli	x3,x3,0x10
    80000b54:	e5f18193          	addi	x3,x3,-417
    80000b58:	00d19193          	slli	x3,x3,0xd
    80000b5c:	57f18193          	addi	x3,x3,1407
    80000b60:	00360663          	beq	x12,x3,80000b6c <rvtest_code_begin+0x75c>
    80000b64:	000122b7          	lui	x5,0x12
    80000b68:	3ab2829b          	addiw	x5,x5,939 # 123ab <offset+0x123ab>
    80000b6c:	0050b023          	sd	x5,0(x1)
    80000b70:	0000d2b7          	lui	x5,0xd
    80000b74:	ccc2829b          	addiw	x5,x5,-820 # cccc <offset+0xcccc>
    80000b78:	ff1398b7          	lui	x17,0xff139
    80000b7c:	dad8889b          	addiw	x17,x17,-595 # ffffffffff138dad <_end+0xffffffff7f1332a5>
    80000b80:	00c89893          	slli	x17,x17,0xc
    80000b84:	c9388893          	addi	x17,x17,-877
    80000b88:	00e89893          	slli	x17,x17,0xe
    80000b8c:	82b88893          	addi	x17,x17,-2005
    80000b90:	00d89893          	slli	x17,x17,0xd
    80000b94:	59288893          	addi	x17,x17,1426
    80000b98:	fe3fa737          	lui	x14,0xfe3fa
    80000b9c:	2757071b          	addiw	x14,x14,629 # fffffffffe3fa275 <_end+0xffffffff7e3f476d>
    80000ba0:	00c71713          	slli	x14,x14,0xc
    80000ba4:	8e370713          	addi	x14,x14,-1821
    80000ba8:	00e71713          	slli	x14,x14,0xe
    80000bac:	fcb70713          	addi	x14,x14,-53
    80000bb0:	00c71713          	slli	x14,x14,0xc
    80000bb4:	d1570713          	addi	x14,x14,-747
    80000bb8:	00e88663          	beq	x17,x14,80000bc4 <rvtest_code_begin+0x7b4>
    80000bbc:	000122b7          	lui	x5,0x12
    80000bc0:	3ab2829b          	addiw	x5,x5,939 # 123ab <offset+0x123ab>
    80000bc4:	0050b423          	sd	x5,8(x1)
    80000bc8:	0080006f          	jal	x0,80000bd0 <rvtest_code_begin+0x7c0>
    80000bcc:	0580006f          	jal	x0,80000c24 <rvtest_code_begin+0x814>
    80000bd0:	0000d2b7          	lui	x5,0xd
    80000bd4:	ccc2829b          	addiw	x5,x5,-820 # cccc <offset+0xcccc>
    80000bd8:	ff514fb7          	lui	x31,0xff514
    80000bdc:	a53f8f9b          	addiw	x31,x31,-1453 # ffffffffff513a53 <_end+0xffffffff7f50df4b>
    80000be0:	00df9f93          	slli	x31,x31,0xd
    80000be4:	911f8f93          	addi	x31,x31,-1775
    80000be8:	00ef9f93          	slli	x31,x31,0xe
    80000bec:	5dbf8f93          	addi	x31,x31,1499
    80000bf0:	00cf9f93          	slli	x31,x31,0xc
    80000bf4:	8ccf8f93          	addi	x31,x31,-1844
    80000bf8:	ffff8a37          	lui	x20,0xffff8
    80000bfc:	43da0a1b          	addiw	x20,x20,1085 # ffffffffffff843d <_end+0xffffffff7fff2935>
    80000c00:	011a1a13          	slli	x20,x20,0x11
    80000c04:	bafa0a13          	addi	x20,x20,-1105
    80000c08:	00ca1a13          	slli	x20,x20,0xc
    80000c0c:	51ba0a13          	addi	x20,x20,1307
    80000c10:	011a1a13          	slli	x20,x20,0x11
    80000c14:	e19a0a13          	addi	x20,x20,-487
    80000c18:	fb4f8ae3          	beq	x31,x20,80000bcc <rvtest_code_begin+0x7bc>
    80000c1c:	000122b7          	lui	x5,0x12
    80000c20:	3ab2829b          	addiw	x5,x5,939 # 123ab <offset+0x123ab>
    80000c24:	0050b823          	sd	x5,16(x1)
    80000c28:	0000d2b7          	lui	x5,0xd
    80000c2c:	ccc2829b          	addiw	x5,x5,-820 # cccc <offset+0xcccc>
    80000c30:	01495937          	lui	x18,0x1495
    80000c34:	b399091b          	addiw	x18,x18,-1223 # 1494b39 <offset+0x1494b39>
    80000c38:	00d91913          	slli	x18,x18,0xd
    80000c3c:	dbd90913          	addi	x18,x18,-579
    80000c40:	00d91913          	slli	x18,x18,0xd
    80000c44:	e9190913          	addi	x18,x18,-367
    80000c48:	00c91913          	slli	x18,x18,0xc
    80000c4c:	0dd90913          	addi	x18,x18,221
    80000c50:	00104237          	lui	x4,0x104
    80000c54:	e652021b          	addiw	x4,x4,-411 # 103e65 <offset+0x103e65>
    80000c58:	00e21213          	slli	x4,x4,0xe
    80000c5c:	54320213          	addi	x4,x4,1347 # 543 <offset+0x543>
    80000c60:	00e21213          	slli	x4,x4,0xe
    80000c64:	e7920213          	addi	x4,x4,-391 # fffffffffffffe79 <_end+0xffffffff7fffa371>
    80000c68:	00c21213          	slli	x4,x4,0xc
    80000c6c:	3b320213          	addi	x4,x4,947 # 3b3 <offset+0x3b3>
    80000c70:	00490663          	beq	x18,x4,80000c7c <rvtest_code_begin+0x86c>
    80000c74:	000122b7          	lui	x5,0x12
    80000c78:	3ab2829b          	addiw	x5,x5,939 # 123ab <offset+0x123ab>
    80000c7c:	0050bc23          	sd	x5,24(x1)
    80000c80:	0000d2b7          	lui	x5,0xd
    80000c84:	ccc2829b          	addiw	x5,x5,-820 # cccc <offset+0xcccc>
    80000c88:	001e0eb7          	lui	x29,0x1e0
    80000c8c:	e8fe8e9b          	addiw	x29,x29,-369 # 1dfe8f <offset+0x1dfe8f>
    80000c90:	00de9e93          	slli	x29,x29,0xd
    80000c94:	949e8e93          	addi	x29,x29,-1719
    80000c98:	00de9e93          	slli	x29,x29,0xd
    80000c9c:	703e8e93          	addi	x29,x29,1795
    80000ca0:	00de9e93          	slli	x29,x29,0xd
    80000ca4:	58ce8e93          	addi	x29,x29,1420
    80000ca8:	ffef5f37          	lui	x30,0xffef5
    80000cac:	58bf0f1b          	addiw	x30,x30,1419 # ffffffffffef558b <_end+0xffffffff7feefa83>
    80000cb0:	00ff1f13          	slli	x30,x30,0xf
    80000cb4:	249f0f13          	addi	x30,x30,585
    80000cb8:	00ff1f13          	slli	x30,x30,0xf
    80000cbc:	c6ff0f13          	addi	x30,x30,-913
    80000cc0:	00cf1f13          	slli	x30,x30,0xc
    80000cc4:	638f0f13          	addi	x30,x30,1592
    80000cc8:	01ee8663          	beq	x29,x30,80000cd4 <rvtest_code_begin+0x8c4>
    80000ccc:	000122b7          	lui	x5,0x12
    80000cd0:	3ab2829b          	addiw	x5,x5,939 # 123ab <offset+0x123ab>
    80000cd4:	0250b023          	sd	x5,32(x1)
    80000cd8:	00004117          	auipc	x2,0x4
    80000cdc:	40010113          	addi	x2,x2,1024 # 800050d8 <signature_6_0>
    80000ce0:	0000d2b7          	lui	x5,0xd
    80000ce4:	ccc2829b          	addiw	x5,x5,-820 # cccc <offset+0xcccc>
    80000ce8:	030218b7          	lui	x17,0x3021
    80000cec:	0cb8889b          	addiw	x17,x17,203 # 30210cb <offset+0x30210cb>
    80000cf0:	00d89893          	slli	x17,x17,0xd
    80000cf4:	f4f88893          	addi	x17,x17,-177
    80000cf8:	00c89893          	slli	x17,x17,0xc
    80000cfc:	d8788893          	addi	x17,x17,-633
    80000d00:	00c89893          	slli	x17,x17,0xc
    80000d04:	86688893          	addi	x17,x17,-1946
    80000d08:	002090b7          	lui	x1,0x209
    80000d0c:	fcb0809b          	addiw	x1,x1,-53 # 208fcb <offset+0x208fcb>
    80000d10:	00d09093          	slli	x1,x1,0xd
    80000d14:	2f308093          	addi	x1,x1,755
    80000d18:	00c09093          	slli	x1,x1,0xc
    80000d1c:	5b508093          	addi	x1,x1,1461
    80000d20:	00d09093          	slli	x1,x1,0xd
    80000d24:	11c08093          	addi	x1,x1,284
    80000d28:	00188663          	beq	x17,x1,80000d34 <rvtest_code_begin+0x924>
    80000d2c:	000122b7          	lui	x5,0x12
    80000d30:	3ab2829b          	addiw	x5,x5,939 # 123ab <offset+0x123ab>
    80000d34:	00513023          	sd	x5,0(x2)
    80000d38:	0000d2b7          	lui	x5,0xd
    80000d3c:	ccc2829b          	addiw	x5,x5,-820 # cccc <offset+0xcccc>
    80000d40:	000b2b37          	lui	x22,0xb2
    80000d44:	eebb0b1b          	addiw	x22,x22,-277 # b1eeb <offset+0xb1eeb>
    80000d48:	00eb1b13          	slli	x22,x22,0xe
    80000d4c:	21bb0b13          	addi	x22,x22,539
    80000d50:	00fb1b13          	slli	x22,x22,0xf
    80000d54:	a57b0b13          	addi	x22,x22,-1449
    80000d58:	00cb1b13          	slli	x22,x22,0xc
    80000d5c:	8f0b0b13          	addi	x22,x22,-1808
    80000d60:	fe4b41b7          	lui	x3,0xfe4b4
    80000d64:	7ed1819b          	addiw	x3,x3,2029 # fffffffffe4b47ed <_end+0xffffffff7e4aece5>
    80000d68:	00d19193          	slli	x3,x3,0xd
    80000d6c:	f3318193          	addi	x3,x3,-205
    80000d70:	00d19193          	slli	x3,x3,0xd
    80000d74:	65318193          	addi	x3,x3,1619
    80000d78:	00c19193          	slli	x3,x3,0xc
    80000d7c:	ebf18193          	addi	x3,x3,-321
    80000d80:	003b0663          	beq	x22,x3,80000d8c <rvtest_code_begin+0x97c>
    80000d84:	000122b7          	lui	x5,0x12
    80000d88:	3ab2829b          	addiw	x5,x5,939 # 123ab <offset+0x123ab>
    80000d8c:	00513423          	sd	x5,8(x2)
    80000d90:	0080006f          	jal	x0,80000d98 <rvtest_code_begin+0x988>
    80000d94:	0580006f          	jal	x0,80000dec <rvtest_code_begin+0x9dc>
    80000d98:	0000d2b7          	lui	x5,0xd
    80000d9c:	ccc2829b          	addiw	x5,x5,-820 # cccc <offset+0xcccc>
    80000da0:	0011a1b7          	lui	x3,0x11a
    80000da4:	cb31819b          	addiw	x3,x3,-845 # 119cb3 <offset+0x119cb3>
    80000da8:	00d19193          	slli	x3,x3,0xd
    80000dac:	f0f18193          	addi	x3,x3,-241
    80000db0:	00e19193          	slli	x3,x3,0xe
    80000db4:	e0118193          	addi	x3,x3,-511
    80000db8:	00c19193          	slli	x3,x3,0xc
    80000dbc:	54f18193          	addi	x3,x3,1359
    80000dc0:	006a79b7          	lui	x19,0x6a7
    80000dc4:	a059899b          	addiw	x19,x19,-1531 # 6a6a05 <offset+0x6a6a05>
    80000dc8:	00c99993          	slli	x19,x19,0xc
    80000dcc:	cf798993          	addi	x19,x19,-777
    80000dd0:	00c99993          	slli	x19,x19,0xc
    80000dd4:	91598993          	addi	x19,x19,-1771
    80000dd8:	01099993          	slli	x19,x19,0x10
    80000ddc:	19198993          	addi	x19,x19,401
    80000de0:	fb318ae3          	beq	x3,x19,80000d94 <rvtest_code_begin+0x984>
    80000de4:	000122b7          	lui	x5,0x12
    80000de8:	3ab2829b          	addiw	x5,x5,939 # 123ab <offset+0x123ab>
    80000dec:	00513823          	sd	x5,16(x2)
    80000df0:	0000d2b7          	lui	x5,0xd
    80000df4:	ccc2829b          	addiw	x5,x5,-820 # cccc <offset+0xcccc>
    80000df8:	005037b7          	lui	x15,0x503
    80000dfc:	93f7879b          	addiw	x15,x15,-1729 # 50293f <offset+0x50293f>
    80000e00:	00d79793          	slli	x15,x15,0xd
    80000e04:	c1d78793          	addi	x15,x15,-995
    80000e08:	00d79793          	slli	x15,x15,0xd
    80000e0c:	a5d78793          	addi	x15,x15,-1443
    80000e10:	00d79793          	slli	x15,x15,0xd
    80000e14:	85d78793          	addi	x15,x15,-1955
    80000e18:	fff356b7          	lui	x13,0xfff35
    80000e1c:	44b6869b          	addiw	x13,x13,1099 # fffffffffff3544b <_end+0xffffffff7ff2f943>
    80000e20:	00c69693          	slli	x13,x13,0xc
    80000e24:	93568693          	addi	x13,x13,-1739
    80000e28:	00c69693          	slli	x13,x13,0xc
    80000e2c:	33168693          	addi	x13,x13,817
    80000e30:	00c69693          	slli	x13,x13,0xc
    80000e34:	8fb68693          	addi	x13,x13,-1797
    80000e38:	00d78663          	beq	x15,x13,80000e44 <rvtest_code_begin+0xa34>
    80000e3c:	000122b7          	lui	x5,0x12
    80000e40:	3ab2829b          	addiw	x5,x5,939 # 123ab <offset+0x123ab>
    80000e44:	00513c23          	sd	x5,24(x2)
    80000e48:	0000d2b7          	lui	x5,0xd
    80000e4c:	ccc2829b          	addiw	x5,x5,-820 # cccc <offset+0xcccc>
    80000e50:	03dd5e37          	lui	x28,0x3dd5
    80000e54:	b43e0e1b          	addiw	x28,x28,-1213 # 3dd4b43 <offset+0x3dd4b43>
    80000e58:	00ce1e13          	slli	x28,x28,0xc
    80000e5c:	97fe0e13          	addi	x28,x28,-1665
    80000e60:	00ce1e13          	slli	x28,x28,0xc
    80000e64:	f11e0e13          	addi	x28,x28,-239
    80000e68:	00de1e13          	slli	x28,x28,0xd
    80000e6c:	3d8e0e13          	addi	x28,x28,984
    80000e70:	ffe85337          	lui	x6,0xffe85
    80000e74:	5a93031b          	addiw	x6,x6,1449 # ffffffffffe855a9 <_end+0xffffffff7fe7faa1>
    80000e78:	00e31313          	slli	x6,x6,0xe
    80000e7c:	37730313          	addi	x6,x6,887
    80000e80:	00d31313          	slli	x6,x6,0xd
    80000e84:	f7330313          	addi	x6,x6,-141
    80000e88:	00d31313          	slli	x6,x6,0xd
    80000e8c:	e9430313          	addi	x6,x6,-364
    80000e90:	006e0663          	beq	x28,x6,80000e9c <rvtest_code_begin+0xa8c>
    80000e94:	000122b7          	lui	x5,0x12
    80000e98:	3ab2829b          	addiw	x5,x5,939 # 123ab <offset+0x123ab>
    80000e9c:	02513023          	sd	x5,32(x2)
    80000ea0:	00004097          	auipc	x1,0x4
    80000ea4:	26008093          	addi	x1,x1,608 # 80005100 <signature_7_0>
    80000ea8:	0000d1b7          	lui	x3,0xd
    80000eac:	ccc1819b          	addiw	x3,x3,-820 # cccc <offset+0xcccc>
    80000eb0:	00100713          	addi	x14,x0,1
    80000eb4:	fff0031b          	addiw	x6,x0,-1
    80000eb8:	03f31313          	slli	x6,x6,0x3f
    80000ebc:	fff30313          	addi	x6,x6,-1
    80000ec0:	00670663          	beq	x14,x6,80000ecc <rvtest_code_begin+0xabc>
    80000ec4:	000121b7          	lui	x3,0x12
    80000ec8:	3ab1819b          	addiw	x3,x3,939 # 123ab <offset+0x123ab>
    80000ecc:	0030b023          	sd	x3,0(x1)
    80000ed0:	0000d1b7          	lui	x3,0xd
    80000ed4:	ccc1819b          	addiw	x3,x3,-820 # cccc <offset+0xcccc>
    80000ed8:	00000493          	addi	x9,x0,0
    80000edc:	fff0089b          	addiw	x17,x0,-1
    80000ee0:	03f89893          	slli	x17,x17,0x3f
    80000ee4:	01148663          	beq	x9,x17,80000ef0 <rvtest_code_begin+0xae0>
    80000ee8:	000121b7          	lui	x3,0x12
    80000eec:	3ab1819b          	addiw	x3,x3,939 # 123ab <offset+0x123ab>
    80000ef0:	0030b423          	sd	x3,8(x1)
    80000ef4:	0080006f          	jal	x0,80000efc <rvtest_code_begin+0xaec>
    80000ef8:	0200006f          	jal	x0,80000f18 <rvtest_code_begin+0xb08>
    80000efc:	0000d1b7          	lui	x3,0xd
    80000f00:	ccc1819b          	addiw	x3,x3,-820 # cccc <offset+0xcccc>
    80000f04:	fff00513          	addi	x10,x0,-1
    80000f08:	fff00713          	addi	x14,x0,-1
    80000f0c:	fee506e3          	beq	x10,x14,80000ef8 <rvtest_code_begin+0xae8>
    80000f10:	000121b7          	lui	x3,0x12
    80000f14:	3ab1819b          	addiw	x3,x3,939 # 123ab <offset+0x123ab>
    80000f18:	0030b823          	sd	x3,16(x1)
    80000f1c:	0000d1b7          	lui	x3,0xd
    80000f20:	ccc1819b          	addiw	x3,x3,-820 # cccc <offset+0xcccc>
    80000f24:	fff0031b          	addiw	x6,x0,-1
    80000f28:	03f31313          	slli	x6,x6,0x3f
    80000f2c:	fff30313          	addi	x6,x6,-1
    80000f30:	fff00b13          	addi	x22,x0,-1
    80000f34:	01630663          	beq	x6,x22,80000f40 <rvtest_code_begin+0xb30>
    80000f38:	000121b7          	lui	x3,0x12
    80000f3c:	3ab1819b          	addiw	x3,x3,939 # 123ab <offset+0x123ab>
    80000f40:	0030bc23          	sd	x3,24(x1)
    80000f44:	0000d1b7          	lui	x3,0xd
    80000f48:	ccc1819b          	addiw	x3,x3,-820 # cccc <offset+0xcccc>
    80000f4c:	fff0001b          	addiw	x0,x0,-1
    80000f50:	03f01013          	slli	x0,x0,0x3f
    80000f54:	fff00993          	addi	x19,x0,-1
    80000f58:	01300663          	beq	x0,x19,80000f64 <rvtest_code_begin+0xb54>
    80000f5c:	000121b7          	lui	x3,0x12
    80000f60:	3ab1819b          	addiw	x3,x3,939 # 123ab <offset+0x123ab>
    80000f64:	0230b023          	sd	x3,32(x1)
    80000f68:	00004097          	auipc	x1,0x4
    80000f6c:	1c008093          	addi	x1,x1,448 # 80005128 <signature_8_0>
    80000f70:	0000d1b7          	lui	x3,0xd
    80000f74:	ccc1819b          	addiw	x3,x3,-820 # cccc <offset+0xcccc>
    80000f78:	fff00e13          	addi	x28,x0,-1
    80000f7c:	00100993          	addi	x19,x0,1
    80000f80:	013e0663          	beq	x28,x19,80000f8c <rvtest_code_begin+0xb7c>
    80000f84:	000121b7          	lui	x3,0x12
    80000f88:	3ab1819b          	addiw	x3,x3,939 # 123ab <offset+0x123ab>
    80000f8c:	0030b023          	sd	x3,0(x1)
    80000f90:	0000d1b7          	lui	x3,0xd
    80000f94:	ccc1819b          	addiw	x3,x3,-820 # cccc <offset+0xcccc>
    80000f98:	fff00f93          	addi	x31,x0,-1
    80000f9c:	00000f13          	addi	x30,x0,0
    80000fa0:	01ef8663          	beq	x31,x30,80000fac <rvtest_code_begin+0xb9c>
    80000fa4:	000121b7          	lui	x3,0x12
    80000fa8:	3ab1819b          	addiw	x3,x3,939 # 123ab <offset+0x123ab>
    80000fac:	0030b423          	sd	x3,8(x1)
    80000fb0:	0080006f          	jal	x0,80000fb8 <rvtest_code_begin+0xba8>
    80000fb4:	0200006f          	jal	x0,80000fd4 <rvtest_code_begin+0xbc4>
    80000fb8:	0000d1b7          	lui	x3,0xd
    80000fbc:	ccc1819b          	addiw	x3,x3,-820 # cccc <offset+0xcccc>
    80000fc0:	fff00d93          	addi	x27,x0,-1
    80000fc4:	fff00a93          	addi	x21,x0,-1
    80000fc8:	ff5d86e3          	beq	x27,x21,80000fb4 <rvtest_code_begin+0xba4>
    80000fcc:	000121b7          	lui	x3,0x12
    80000fd0:	3ab1819b          	addiw	x3,x3,939 # 123ab <offset+0x123ab>
    80000fd4:	0030b823          	sd	x3,16(x1)
    80000fd8:	0000d1b7          	lui	x3,0xd
    80000fdc:	ccc1819b          	addiw	x3,x3,-820 # cccc <offset+0xcccc>
    80000fe0:	00100b93          	addi	x23,x0,1
    80000fe4:	fff0081b          	addiw	x16,x0,-1
    80000fe8:	03f81813          	slli	x16,x16,0x3f
    80000fec:	fff80813          	addi	x16,x16,-1
    80000ff0:	010b8663          	beq	x23,x16,80000ffc <rvtest_code_begin+0xbec>
    80000ff4:	000121b7          	lui	x3,0x12
    80000ff8:	3ab1819b          	addiw	x3,x3,939 # 123ab <offset+0x123ab>
    80000ffc:	0030bc23          	sd	x3,24(x1)
    80001000:	0000d1b7          	lui	x3,0xd
    80001004:	ccc1819b          	addiw	x3,x3,-820 # cccc <offset+0xcccc>
    80001008:	00000c13          	addi	x24,x0,0
    8000100c:	fff00e1b          	addiw	x28,x0,-1
    80001010:	03fe1e13          	slli	x28,x28,0x3f
    80001014:	01cc0663          	beq	x24,x28,80001020 <rvtest_code_begin+0xc10>
    80001018:	000121b7          	lui	x3,0x12
    8000101c:	3ab1819b          	addiw	x3,x3,939 # 123ab <offset+0x123ab>
    80001020:	0230b023          	sd	x3,32(x1)
    80001024:	00004317          	auipc	x6,0x4
    80001028:	12c30313          	addi	x6,x6,300 # 80005150 <signature_9_0>
    8000102c:	0000d437          	lui	x8,0xd
    80001030:	ccc4041b          	addiw	x8,x8,-820 # cccc <offset+0xcccc>
    80001034:	00100093          	addi	x1,x0,1
    80001038:	ffe00113          	addi	x2,x0,-2
    8000103c:	00208663          	beq	x1,x2,80001048 <rvtest_code_begin+0xc38>
    80001040:	00012437          	lui	x8,0x12
    80001044:	3ab4041b          	addiw	x8,x8,939 # 123ab <offset+0x123ab>
    80001048:	00833023          	sd	x8,0(x6)
    8000104c:	0000d437          	lui	x8,0xd
    80001050:	ccc4041b          	addiw	x8,x8,-820 # cccc <offset+0xcccc>
    80001054:	00200093          	addi	x1,x0,2
    80001058:	fff0011b          	addiw	x2,x0,-1
    8000105c:	03f11113          	slli	x2,x2,0x3f
    80001060:	fff10113          	addi	x2,x2,-1
    80001064:	00208663          	beq	x1,x2,80001070 <rvtest_code_begin+0xc60>
    80001068:	00012437          	lui	x8,0x12
    8000106c:	3ab4041b          	addiw	x8,x8,939 # 123ab <offset+0x123ab>
    80001070:	00833423          	sd	x8,8(x6)
    80001074:	0080006f          	jal	x0,8000107c <rvtest_code_begin+0xc6c>
    80001078:	0280006f          	jal	x0,800010a0 <rvtest_code_begin+0xc90>
    8000107c:	0000d437          	lui	x8,0xd
    80001080:	ccc4041b          	addiw	x8,x8,-820 # cccc <offset+0xcccc>
    80001084:	00400113          	addi	x2,x0,4
    80001088:	fff0019b          	addiw	x3,x0,-1
    8000108c:	03e19193          	slli	x3,x3,0x3e
    80001090:	fff18193          	addi	x3,x3,-1
    80001094:	fe3102e3          	beq	x2,x3,80001078 <rvtest_code_begin+0xc68>
    80001098:	00012437          	lui	x8,0x12
    8000109c:	3ab4041b          	addiw	x8,x8,939 # 123ab <offset+0x123ab>
    800010a0:	00833823          	sd	x8,16(x6)
    800010a4:	0000d437          	lui	x8,0xd
    800010a8:	ccc4041b          	addiw	x8,x8,-820 # cccc <offset+0xcccc>
    800010ac:	00800193          	addi	x3,x0,8
    800010b0:	fff0021b          	addiw	x4,x0,-1
    800010b4:	03d21213          	slli	x4,x4,0x3d
    800010b8:	fff20213          	addi	x4,x4,-1
    800010bc:	00418663          	beq	x3,x4,800010c8 <rvtest_code_begin+0xcb8>
    800010c0:	00012437          	lui	x8,0x12
    800010c4:	3ab4041b          	addiw	x8,x8,939 # 123ab <offset+0x123ab>
    800010c8:	00833c23          	sd	x8,24(x6)
    800010cc:	0000d437          	lui	x8,0xd
    800010d0:	ccc4041b          	addiw	x8,x8,-820 # cccc <offset+0xcccc>
    800010d4:	01000213          	addi	x4,x0,16
    800010d8:	fff0029b          	addiw	x5,x0,-1
    800010dc:	03c29293          	slli	x5,x5,0x3c
    800010e0:	fff28293          	addi	x5,x5,-1
    800010e4:	00520663          	beq	x4,x5,800010f0 <rvtest_code_begin+0xce0>
    800010e8:	00012437          	lui	x8,0x12
    800010ec:	3ab4041b          	addiw	x8,x8,939 # 123ab <offset+0x123ab>
    800010f0:	02833023          	sd	x8,32(x6)
    800010f4:	00004097          	auipc	x1,0x4
    800010f8:	08408093          	addi	x1,x1,132 # 80005178 <signature_10_0>
    800010fc:	0000d1b7          	lui	x3,0xd
    80001100:	ccc1819b          	addiw	x3,x3,-820 # cccc <offset+0xcccc>
    80001104:	02000293          	addi	x5,x0,32
    80001108:	fff0031b          	addiw	x6,x0,-1
    8000110c:	03b31313          	slli	x6,x6,0x3b
    80001110:	fff30313          	addi	x6,x6,-1
    80001114:	00628663          	beq	x5,x6,80001120 <rvtest_code_begin+0xd10>
    80001118:	000121b7          	lui	x3,0x12
    8000111c:	3ab1819b          	addiw	x3,x3,939 # 123ab <offset+0x123ab>
    80001120:	0030b023          	sd	x3,0(x1)
    80001124:	0000d1b7          	lui	x3,0xd
    80001128:	ccc1819b          	addiw	x3,x3,-820 # cccc <offset+0xcccc>
    8000112c:	04000313          	addi	x6,x0,64
    80001130:	fff0039b          	addiw	x7,x0,-1
    80001134:	03a39393          	slli	x7,x7,0x3a
    80001138:	fff38393          	addi	x7,x7,-1
    8000113c:	00730663          	beq	x6,x7,80001148 <rvtest_code_begin+0xd38>
    80001140:	000121b7          	lui	x3,0x12
    80001144:	3ab1819b          	addiw	x3,x3,939 # 123ab <offset+0x123ab>
    80001148:	0030b423          	sd	x3,8(x1)
    8000114c:	0080006f          	jal	x0,80001154 <rvtest_code_begin+0xd44>
    80001150:	0280006f          	jal	x0,80001178 <rvtest_code_begin+0xd68>
    80001154:	0000d1b7          	lui	x3,0xd
    80001158:	ccc1819b          	addiw	x3,x3,-820 # cccc <offset+0xcccc>
    8000115c:	08000393          	addi	x7,x0,128
    80001160:	fff0041b          	addiw	x8,x0,-1
    80001164:	03941413          	slli	x8,x8,0x39
    80001168:	fff40413          	addi	x8,x8,-1
    8000116c:	fe8382e3          	beq	x7,x8,80001150 <rvtest_code_begin+0xd40>
    80001170:	000121b7          	lui	x3,0x12
    80001174:	3ab1819b          	addiw	x3,x3,939 # 123ab <offset+0x123ab>
    80001178:	0030b823          	sd	x3,16(x1)
    8000117c:	0000d1b7          	lui	x3,0xd
    80001180:	ccc1819b          	addiw	x3,x3,-820 # cccc <offset+0xcccc>
    80001184:	10000413          	addi	x8,x0,256
    80001188:	fff0049b          	addiw	x9,x0,-1
    8000118c:	03849493          	slli	x9,x9,0x38
    80001190:	fff48493          	addi	x9,x9,-1
    80001194:	00940663          	beq	x8,x9,800011a0 <rvtest_code_begin+0xd90>
    80001198:	000121b7          	lui	x3,0x12
    8000119c:	3ab1819b          	addiw	x3,x3,939 # 123ab <offset+0x123ab>
    800011a0:	0030bc23          	sd	x3,24(x1)
    800011a4:	0000d1b7          	lui	x3,0xd
    800011a8:	ccc1819b          	addiw	x3,x3,-820 # cccc <offset+0xcccc>
    800011ac:	20000493          	addi	x9,x0,512
    800011b0:	fff0051b          	addiw	x10,x0,-1
    800011b4:	03751513          	slli	x10,x10,0x37
    800011b8:	fff50513          	addi	x10,x10,-1
    800011bc:	00a48663          	beq	x9,x10,800011c8 <rvtest_code_begin+0xdb8>
    800011c0:	000121b7          	lui	x3,0x12
    800011c4:	3ab1819b          	addiw	x3,x3,939 # 123ab <offset+0x123ab>
    800011c8:	0230b023          	sd	x3,32(x1)
    800011cc:	00004097          	auipc	x1,0x4
    800011d0:	fd408093          	addi	x1,x1,-44 # 800051a0 <signature_11_0>
    800011d4:	0000d1b7          	lui	x3,0xd
    800011d8:	ccc1819b          	addiw	x3,x3,-820 # cccc <offset+0xcccc>
    800011dc:	40000513          	addi	x10,x0,1024
    800011e0:	fff0059b          	addiw	x11,x0,-1
    800011e4:	03659593          	slli	x11,x11,0x36
    800011e8:	fff58593          	addi	x11,x11,-1
    800011ec:	00b50663          	beq	x10,x11,800011f8 <rvtest_code_begin+0xde8>
    800011f0:	000121b7          	lui	x3,0x12
    800011f4:	3ab1819b          	addiw	x3,x3,939 # 123ab <offset+0x123ab>
    800011f8:	0030b023          	sd	x3,0(x1)
    800011fc:	0000d1b7          	lui	x3,0xd
    80001200:	ccc1819b          	addiw	x3,x3,-820 # cccc <offset+0xcccc>
    80001204:	000015b7          	lui	x11,0x1
    80001208:	8005859b          	addiw	x11,x11,-2048 # 800 <offset+0x800>
    8000120c:	fff0061b          	addiw	x12,x0,-1
    80001210:	03561613          	slli	x12,x12,0x35
    80001214:	fff60613          	addi	x12,x12,-1
    80001218:	00c58663          	beq	x11,x12,80001224 <rvtest_code_begin+0xe14>
    8000121c:	000121b7          	lui	x3,0x12
    80001220:	3ab1819b          	addiw	x3,x3,939 # 123ab <offset+0x123ab>
    80001224:	0030b423          	sd	x3,8(x1)
    80001228:	0080006f          	jal	x0,80001230 <rvtest_code_begin+0xe20>
    8000122c:	0280006f          	jal	x0,80001254 <rvtest_code_begin+0xe44>
    80001230:	0000d1b7          	lui	x3,0xd
    80001234:	ccc1819b          	addiw	x3,x3,-820 # cccc <offset+0xcccc>
    80001238:	00001637          	lui	x12,0x1
    8000123c:	fff0069b          	addiw	x13,x0,-1
    80001240:	03469693          	slli	x13,x13,0x34
    80001244:	fff68693          	addi	x13,x13,-1
    80001248:	fed602e3          	beq	x12,x13,8000122c <rvtest_code_begin+0xe1c>
    8000124c:	000121b7          	lui	x3,0x12
    80001250:	3ab1819b          	addiw	x3,x3,939 # 123ab <offset+0x123ab>
    80001254:	0030b823          	sd	x3,16(x1)
    80001258:	0000d1b7          	lui	x3,0xd
    8000125c:	ccc1819b          	addiw	x3,x3,-820 # cccc <offset+0xcccc>
    80001260:	000026b7          	lui	x13,0x2
    80001264:	fff0071b          	addiw	x14,x0,-1
    80001268:	03371713          	slli	x14,x14,0x33
    8000126c:	fff70713          	addi	x14,x14,-1
    80001270:	00e68663          	beq	x13,x14,8000127c <rvtest_code_begin+0xe6c>
    80001274:	000121b7          	lui	x3,0x12
    80001278:	3ab1819b          	addiw	x3,x3,939 # 123ab <offset+0x123ab>
    8000127c:	0030bc23          	sd	x3,24(x1)
    80001280:	0000d1b7          	lui	x3,0xd
    80001284:	ccc1819b          	addiw	x3,x3,-820 # cccc <offset+0xcccc>
    80001288:	00004737          	lui	x14,0x4
    8000128c:	fff0079b          	addiw	x15,x0,-1
    80001290:	03279793          	slli	x15,x15,0x32
    80001294:	fff78793          	addi	x15,x15,-1
    80001298:	00f70663          	beq	x14,x15,800012a4 <rvtest_code_begin+0xe94>
    8000129c:	000121b7          	lui	x3,0x12
    800012a0:	3ab1819b          	addiw	x3,x3,939 # 123ab <offset+0x123ab>
    800012a4:	0230b023          	sd	x3,32(x1)
    800012a8:	00004097          	auipc	x1,0x4
    800012ac:	f2008093          	addi	x1,x1,-224 # 800051c8 <signature_12_0>
    800012b0:	0000d1b7          	lui	x3,0xd
    800012b4:	ccc1819b          	addiw	x3,x3,-820 # cccc <offset+0xcccc>
    800012b8:	000087b7          	lui	x15,0x8
    800012bc:	fff0081b          	addiw	x16,x0,-1
    800012c0:	03181813          	slli	x16,x16,0x31
    800012c4:	fff80813          	addi	x16,x16,-1
    800012c8:	01078663          	beq	x15,x16,800012d4 <rvtest_code_begin+0xec4>
    800012cc:	000121b7          	lui	x3,0x12
    800012d0:	3ab1819b          	addiw	x3,x3,939 # 123ab <offset+0x123ab>
    800012d4:	0030b023          	sd	x3,0(x1)
    800012d8:	0000d1b7          	lui	x3,0xd
    800012dc:	ccc1819b          	addiw	x3,x3,-820 # cccc <offset+0xcccc>
    800012e0:	00010837          	lui	x16,0x10
    800012e4:	fff0089b          	addiw	x17,x0,-1
    800012e8:	03089893          	slli	x17,x17,0x30
    800012ec:	fff88893          	addi	x17,x17,-1
    800012f0:	01180663          	beq	x16,x17,800012fc <rvtest_code_begin+0xeec>
    800012f4:	000121b7          	lui	x3,0x12
    800012f8:	3ab1819b          	addiw	x3,x3,939 # 123ab <offset+0x123ab>
    800012fc:	0030b423          	sd	x3,8(x1)
    80001300:	0080006f          	jal	x0,80001308 <rvtest_code_begin+0xef8>
    80001304:	0280006f          	jal	x0,8000132c <rvtest_code_begin+0xf1c>
    80001308:	0000d1b7          	lui	x3,0xd
    8000130c:	ccc1819b          	addiw	x3,x3,-820 # cccc <offset+0xcccc>
    80001310:	000208b7          	lui	x17,0x20
    80001314:	fff0091b          	addiw	x18,x0,-1
    80001318:	02f91913          	slli	x18,x18,0x2f
    8000131c:	fff90913          	addi	x18,x18,-1
    80001320:	ff2882e3          	beq	x17,x18,80001304 <rvtest_code_begin+0xef4>
    80001324:	000121b7          	lui	x3,0x12
    80001328:	3ab1819b          	addiw	x3,x3,939 # 123ab <offset+0x123ab>
    8000132c:	0030b823          	sd	x3,16(x1)
    80001330:	0000d1b7          	lui	x3,0xd
    80001334:	ccc1819b          	addiw	x3,x3,-820 # cccc <offset+0xcccc>
    80001338:	00040937          	lui	x18,0x40
    8000133c:	fff0099b          	addiw	x19,x0,-1
    80001340:	02e99993          	slli	x19,x19,0x2e
    80001344:	fff98993          	addi	x19,x19,-1
    80001348:	01390663          	beq	x18,x19,80001354 <rvtest_code_begin+0xf44>
    8000134c:	000121b7          	lui	x3,0x12
    80001350:	3ab1819b          	addiw	x3,x3,939 # 123ab <offset+0x123ab>
    80001354:	0030bc23          	sd	x3,24(x1)
    80001358:	0000d1b7          	lui	x3,0xd
    8000135c:	ccc1819b          	addiw	x3,x3,-820 # cccc <offset+0xcccc>
    80001360:	000809b7          	lui	x19,0x80
    80001364:	fff00a1b          	addiw	x20,x0,-1
    80001368:	02da1a13          	slli	x20,x20,0x2d
    8000136c:	fffa0a13          	addi	x20,x20,-1
    80001370:	01498663          	beq	x19,x20,8000137c <rvtest_code_begin+0xf6c>
    80001374:	000121b7          	lui	x3,0x12
    80001378:	3ab1819b          	addiw	x3,x3,939 # 123ab <offset+0x123ab>
    8000137c:	0230b023          	sd	x3,32(x1)
    80001380:	00004097          	auipc	x1,0x4
    80001384:	e7008093          	addi	x1,x1,-400 # 800051f0 <signature_13_0>
    80001388:	0000d1b7          	lui	x3,0xd
    8000138c:	ccc1819b          	addiw	x3,x3,-820 # cccc <offset+0xcccc>
    80001390:	00100a37          	lui	x20,0x100
    80001394:	fff00a9b          	addiw	x21,x0,-1
    80001398:	02ca9a93          	slli	x21,x21,0x2c
    8000139c:	fffa8a93          	addi	x21,x21,-1
    800013a0:	015a0663          	beq	x20,x21,800013ac <rvtest_code_begin+0xf9c>
    800013a4:	000121b7          	lui	x3,0x12
    800013a8:	3ab1819b          	addiw	x3,x3,939 # 123ab <offset+0x123ab>
    800013ac:	0030b023          	sd	x3,0(x1)
    800013b0:	0000d1b7          	lui	x3,0xd
    800013b4:	ccc1819b          	addiw	x3,x3,-820 # cccc <offset+0xcccc>
    800013b8:	00200ab7          	lui	x21,0x200
    800013bc:	fff00b1b          	addiw	x22,x0,-1
    800013c0:	02bb1b13          	slli	x22,x22,0x2b
    800013c4:	fffb0b13          	addi	x22,x22,-1
    800013c8:	016a8663          	beq	x21,x22,800013d4 <rvtest_code_begin+0xfc4>
    800013cc:	000121b7          	lui	x3,0x12
    800013d0:	3ab1819b          	addiw	x3,x3,939 # 123ab <offset+0x123ab>
    800013d4:	0030b423          	sd	x3,8(x1)
    800013d8:	0080006f          	jal	x0,800013e0 <rvtest_code_begin+0xfd0>
    800013dc:	0280006f          	jal	x0,80001404 <rvtest_code_begin+0xff4>
    800013e0:	0000d1b7          	lui	x3,0xd
    800013e4:	ccc1819b          	addiw	x3,x3,-820 # cccc <offset+0xcccc>
    800013e8:	00400b37          	lui	x22,0x400
    800013ec:	fff00b9b          	addiw	x23,x0,-1
    800013f0:	02ab9b93          	slli	x23,x23,0x2a
    800013f4:	fffb8b93          	addi	x23,x23,-1
    800013f8:	ff7b02e3          	beq	x22,x23,800013dc <rvtest_code_begin+0xfcc>
    800013fc:	000121b7          	lui	x3,0x12
    80001400:	3ab1819b          	addiw	x3,x3,939 # 123ab <offset+0x123ab>
    80001404:	0030b823          	sd	x3,16(x1)
    80001408:	0000d1b7          	lui	x3,0xd
    8000140c:	ccc1819b          	addiw	x3,x3,-820 # cccc <offset+0xcccc>
    80001410:	00800bb7          	lui	x23,0x800
    80001414:	fff00c1b          	addiw	x24,x0,-1
    80001418:	029c1c13          	slli	x24,x24,0x29
    8000141c:	fffc0c13          	addi	x24,x24,-1
    80001420:	018b8663          	beq	x23,x24,8000142c <rvtest_code_begin+0x101c>
    80001424:	000121b7          	lui	x3,0x12
    80001428:	3ab1819b          	addiw	x3,x3,939 # 123ab <offset+0x123ab>
    8000142c:	0030bc23          	sd	x3,24(x1)
    80001430:	0000d1b7          	lui	x3,0xd
    80001434:	ccc1819b          	addiw	x3,x3,-820 # cccc <offset+0xcccc>
    80001438:	01000c37          	lui	x24,0x1000
    8000143c:	fff00c9b          	addiw	x25,x0,-1
    80001440:	028c9c93          	slli	x25,x25,0x28
    80001444:	fffc8c93          	addi	x25,x25,-1
    80001448:	019c0663          	beq	x24,x25,80001454 <rvtest_code_begin+0x1044>
    8000144c:	000121b7          	lui	x3,0x12
    80001450:	3ab1819b          	addiw	x3,x3,939 # 123ab <offset+0x123ab>
    80001454:	0230b023          	sd	x3,32(x1)
    80001458:	00004097          	auipc	x1,0x4
    8000145c:	dc008093          	addi	x1,x1,-576 # 80005218 <signature_14_0>
    80001460:	0000d1b7          	lui	x3,0xd
    80001464:	ccc1819b          	addiw	x3,x3,-820 # cccc <offset+0xcccc>
    80001468:	02000cb7          	lui	x25,0x2000
    8000146c:	fff00d1b          	addiw	x26,x0,-1
    80001470:	027d1d13          	slli	x26,x26,0x27
    80001474:	fffd0d13          	addi	x26,x26,-1
    80001478:	01ac8663          	beq	x25,x26,80001484 <rvtest_code_begin+0x1074>
    8000147c:	000121b7          	lui	x3,0x12
    80001480:	3ab1819b          	addiw	x3,x3,939 # 123ab <offset+0x123ab>
    80001484:	0030b023          	sd	x3,0(x1)
    80001488:	0000d1b7          	lui	x3,0xd
    8000148c:	ccc1819b          	addiw	x3,x3,-820 # cccc <offset+0xcccc>
    80001490:	04000d37          	lui	x26,0x4000
    80001494:	fff00d9b          	addiw	x27,x0,-1
    80001498:	026d9d93          	slli	x27,x27,0x26
    8000149c:	fffd8d93          	addi	x27,x27,-1
    800014a0:	01bd0663          	beq	x26,x27,800014ac <rvtest_code_begin+0x109c>
    800014a4:	000121b7          	lui	x3,0x12
    800014a8:	3ab1819b          	addiw	x3,x3,939 # 123ab <offset+0x123ab>
    800014ac:	0030b423          	sd	x3,8(x1)
    800014b0:	0080006f          	jal	x0,800014b8 <rvtest_code_begin+0x10a8>
    800014b4:	0280006f          	jal	x0,800014dc <rvtest_code_begin+0x10cc>
    800014b8:	0000d1b7          	lui	x3,0xd
    800014bc:	ccc1819b          	addiw	x3,x3,-820 # cccc <offset+0xcccc>
    800014c0:	08000db7          	lui	x27,0x8000
    800014c4:	fff00e1b          	addiw	x28,x0,-1
    800014c8:	025e1e13          	slli	x28,x28,0x25
    800014cc:	fffe0e13          	addi	x28,x28,-1
    800014d0:	ffcd82e3          	beq	x27,x28,800014b4 <rvtest_code_begin+0x10a4>
    800014d4:	000121b7          	lui	x3,0x12
    800014d8:	3ab1819b          	addiw	x3,x3,939 # 123ab <offset+0x123ab>
    800014dc:	0030b823          	sd	x3,16(x1)
    800014e0:	0000d1b7          	lui	x3,0xd
    800014e4:	ccc1819b          	addiw	x3,x3,-820 # cccc <offset+0xcccc>
    800014e8:	10000e37          	lui	x28,0x10000
    800014ec:	fff00e9b          	addiw	x29,x0,-1
    800014f0:	024e9e93          	slli	x29,x29,0x24
    800014f4:	fffe8e93          	addi	x29,x29,-1
    800014f8:	01de0663          	beq	x28,x29,80001504 <rvtest_code_begin+0x10f4>
    800014fc:	000121b7          	lui	x3,0x12
    80001500:	3ab1819b          	addiw	x3,x3,939 # 123ab <offset+0x123ab>
    80001504:	0030bc23          	sd	x3,24(x1)
    80001508:	0000d1b7          	lui	x3,0xd
    8000150c:	ccc1819b          	addiw	x3,x3,-820 # cccc <offset+0xcccc>
    80001510:	20000eb7          	lui	x29,0x20000
    80001514:	fff00f1b          	addiw	x30,x0,-1
    80001518:	023f1f13          	slli	x30,x30,0x23
    8000151c:	ffff0f13          	addi	x30,x30,-1
    80001520:	01ee8663          	beq	x29,x30,8000152c <rvtest_code_begin+0x111c>
    80001524:	000121b7          	lui	x3,0x12
    80001528:	3ab1819b          	addiw	x3,x3,939 # 123ab <offset+0x123ab>
    8000152c:	0230b023          	sd	x3,32(x1)
    80001530:	00004217          	auipc	x4,0x4
    80001534:	d1020213          	addi	x4,x4,-752 # 80005240 <signature_15_0>
    80001538:	0000d337          	lui	x6,0xd
    8000153c:	ccc3031b          	addiw	x6,x6,-820 # cccc <offset+0xcccc>
    80001540:	40000f37          	lui	x30,0x40000
    80001544:	fff00f9b          	addiw	x31,x0,-1
    80001548:	022f9f93          	slli	x31,x31,0x22
    8000154c:	ffff8f93          	addi	x31,x31,-1
    80001550:	01ff0663          	beq	x30,x31,8000155c <rvtest_code_begin+0x114c>
    80001554:	00012337          	lui	x6,0x12
    80001558:	3ab3031b          	addiw	x6,x6,939 # 123ab <offset+0x123ab>
    8000155c:	00623023          	sd	x6,0(x4) # 0 <offset>
    80001560:	0000d337          	lui	x6,0xd
    80001564:	ccc3031b          	addiw	x6,x6,-820 # cccc <offset+0xcccc>
    80001568:	00100f9b          	addiw	x31,x0,1
    8000156c:	01ff9f93          	slli	x31,x31,0x1f
    80001570:	fff0009b          	addiw	x1,x0,-1
    80001574:	02109093          	slli	x1,x1,0x21
    80001578:	fff08093          	addi	x1,x1,-1
    8000157c:	001f8663          	beq	x31,x1,80001588 <rvtest_code_begin+0x1178>
    80001580:	00012337          	lui	x6,0x12
    80001584:	3ab3031b          	addiw	x6,x6,939 # 123ab <offset+0x123ab>
    80001588:	00623423          	sd	x6,8(x4) # 8 <offset+0x8>
    8000158c:	0080006f          	jal	x0,80001594 <rvtest_code_begin+0x1184>
    80001590:	02c0006f          	jal	x0,800015bc <rvtest_code_begin+0x11ac>
    80001594:	0000d337          	lui	x6,0xd
    80001598:	ccc3031b          	addiw	x6,x6,-820 # cccc <offset+0xcccc>
    8000159c:	0010009b          	addiw	x1,x0,1
    800015a0:	02009093          	slli	x1,x1,0x20
    800015a4:	fff0011b          	addiw	x2,x0,-1
    800015a8:	02011113          	slli	x2,x2,0x20
    800015ac:	fff10113          	addi	x2,x2,-1
    800015b0:	fe2080e3          	beq	x1,x2,80001590 <rvtest_code_begin+0x1180>
    800015b4:	00012337          	lui	x6,0x12
    800015b8:	3ab3031b          	addiw	x6,x6,939 # 123ab <offset+0x123ab>
    800015bc:	00623823          	sd	x6,16(x4) # 10 <offset+0x10>
    800015c0:	0000d337          	lui	x6,0xd
    800015c4:	ccc3031b          	addiw	x6,x6,-820 # cccc <offset+0xcccc>
    800015c8:	0010009b          	addiw	x1,x0,1
    800015cc:	02109093          	slli	x1,x1,0x21
    800015d0:	fff0011b          	addiw	x2,x0,-1
    800015d4:	01f11113          	slli	x2,x2,0x1f
    800015d8:	fff10113          	addi	x2,x2,-1
    800015dc:	00208663          	beq	x1,x2,800015e8 <rvtest_code_begin+0x11d8>
    800015e0:	00012337          	lui	x6,0x12
    800015e4:	3ab3031b          	addiw	x6,x6,939 # 123ab <offset+0x123ab>
    800015e8:	00623c23          	sd	x6,24(x4) # 18 <offset+0x18>
    800015ec:	0000d337          	lui	x6,0xd
    800015f0:	ccc3031b          	addiw	x6,x6,-820 # cccc <offset+0xcccc>
    800015f4:	0010011b          	addiw	x2,x0,1
    800015f8:	02211113          	slli	x2,x2,0x22
    800015fc:	c00001b7          	lui	x3,0xc0000
    80001600:	fff1819b          	addiw	x3,x3,-1 # ffffffffbfffffff <_end+0xffffffff3fffa4f7>
    80001604:	00310663          	beq	x2,x3,80001610 <rvtest_code_begin+0x1200>
    80001608:	00012337          	lui	x6,0x12
    8000160c:	3ab3031b          	addiw	x6,x6,939 # 123ab <offset+0x123ab>
    80001610:	02623023          	sd	x6,32(x4) # 20 <offset+0x20>
    80001614:	00004097          	auipc	x1,0x4
    80001618:	c5408093          	addi	x1,x1,-940 # 80005268 <signature_16_0>
    8000161c:	0000d4b7          	lui	x9,0xd
    80001620:	ccc4849b          	addiw	x9,x9,-820 # cccc <offset+0xcccc>
    80001624:	0010019b          	addiw	x3,x0,1
    80001628:	02319193          	slli	x3,x3,0x23
    8000162c:	e0000237          	lui	x4,0xe0000
    80001630:	fff2021b          	addiw	x4,x4,-1 # ffffffffdfffffff <_end+0xffffffff5fffa4f7>
    80001634:	00418663          	beq	x3,x4,80001640 <rvtest_code_begin+0x1230>
    80001638:	000124b7          	lui	x9,0x12
    8000163c:	3ab4849b          	addiw	x9,x9,939 # 123ab <offset+0x123ab>
    80001640:	0090b023          	sd	x9,0(x1)
    80001644:	0000d4b7          	lui	x9,0xd
    80001648:	ccc4849b          	addiw	x9,x9,-820 # cccc <offset+0xcccc>
    8000164c:	0010021b          	addiw	x4,x0,1
    80001650:	02421213          	slli	x4,x4,0x24
    80001654:	f00002b7          	lui	x5,0xf0000
    80001658:	fff2829b          	addiw	x5,x5,-1 # ffffffffefffffff <_end+0xffffffff6fffa4f7>
    8000165c:	00520663          	beq	x4,x5,80001668 <rvtest_code_begin+0x1258>
    80001660:	000124b7          	lui	x9,0x12
    80001664:	3ab4849b          	addiw	x9,x9,939 # 123ab <offset+0x123ab>
    80001668:	0090b423          	sd	x9,8(x1)
    8000166c:	0080006f          	jal	x0,80001674 <rvtest_code_begin+0x1264>
    80001670:	0280006f          	jal	x0,80001698 <rvtest_code_begin+0x1288>
    80001674:	0000d4b7          	lui	x9,0xd
    80001678:	ccc4849b          	addiw	x9,x9,-820 # cccc <offset+0xcccc>
    8000167c:	0010029b          	addiw	x5,x0,1
    80001680:	02529293          	slli	x5,x5,0x25
    80001684:	f8000337          	lui	x6,0xf8000
    80001688:	fff3031b          	addiw	x6,x6,-1 # fffffffff7ffffff <_end+0xffffffff77ffa4f7>
    8000168c:	fe6282e3          	beq	x5,x6,80001670 <rvtest_code_begin+0x1260>
    80001690:	000124b7          	lui	x9,0x12
    80001694:	3ab4849b          	addiw	x9,x9,939 # 123ab <offset+0x123ab>
    80001698:	0090b823          	sd	x9,16(x1)
    8000169c:	0000d4b7          	lui	x9,0xd
    800016a0:	ccc4849b          	addiw	x9,x9,-820 # cccc <offset+0xcccc>
    800016a4:	0010031b          	addiw	x6,x0,1
    800016a8:	02631313          	slli	x6,x6,0x26
    800016ac:	fc0003b7          	lui	x7,0xfc000
    800016b0:	fff3839b          	addiw	x7,x7,-1 # fffffffffbffffff <_end+0xffffffff7bffa4f7>
    800016b4:	00730663          	beq	x6,x7,800016c0 <rvtest_code_begin+0x12b0>
    800016b8:	000124b7          	lui	x9,0x12
    800016bc:	3ab4849b          	addiw	x9,x9,939 # 123ab <offset+0x123ab>
    800016c0:	0090bc23          	sd	x9,24(x1)
    800016c4:	0000d4b7          	lui	x9,0xd
    800016c8:	ccc4849b          	addiw	x9,x9,-820 # cccc <offset+0xcccc>
    800016cc:	0010039b          	addiw	x7,x0,1
    800016d0:	02739393          	slli	x7,x7,0x27
    800016d4:	fe000437          	lui	x8,0xfe000
    800016d8:	fff4041b          	addiw	x8,x8,-1 # fffffffffdffffff <_end+0xffffffff7dffa4f7>
    800016dc:	00838663          	beq	x7,x8,800016e8 <rvtest_code_begin+0x12d8>
    800016e0:	000124b7          	lui	x9,0x12
    800016e4:	3ab4849b          	addiw	x9,x9,939 # 123ab <offset+0x123ab>
    800016e8:	0290b023          	sd	x9,32(x1)
    800016ec:	00004097          	auipc	x1,0x4
    800016f0:	ba408093          	addi	x1,x1,-1116 # 80005290 <signature_17_0>
    800016f4:	0000d1b7          	lui	x3,0xd
    800016f8:	ccc1819b          	addiw	x3,x3,-820 # cccc <offset+0xcccc>
    800016fc:	0010041b          	addiw	x8,x0,1
    80001700:	02841413          	slli	x8,x8,0x28
    80001704:	ff0004b7          	lui	x9,0xff000
    80001708:	fff4849b          	addiw	x9,x9,-1 # fffffffffeffffff <_end+0xffffffff7effa4f7>
    8000170c:	00940663          	beq	x8,x9,80001718 <rvtest_code_begin+0x1308>
    80001710:	000121b7          	lui	x3,0x12
    80001714:	3ab1819b          	addiw	x3,x3,939 # 123ab <offset+0x123ab>
    80001718:	0030b023          	sd	x3,0(x1)
    8000171c:	0000d1b7          	lui	x3,0xd
    80001720:	ccc1819b          	addiw	x3,x3,-820 # cccc <offset+0xcccc>
    80001724:	0010049b          	addiw	x9,x0,1
    80001728:	02949493          	slli	x9,x9,0x29
    8000172c:	ff800537          	lui	x10,0xff800
    80001730:	fff5051b          	addiw	x10,x10,-1 # ffffffffff7fffff <_end+0xffffffff7f7fa4f7>
    80001734:	00a48663          	beq	x9,x10,80001740 <rvtest_code_begin+0x1330>
    80001738:	000121b7          	lui	x3,0x12
    8000173c:	3ab1819b          	addiw	x3,x3,939 # 123ab <offset+0x123ab>
    80001740:	0030b423          	sd	x3,8(x1)
    80001744:	0080006f          	jal	x0,8000174c <rvtest_code_begin+0x133c>
    80001748:	0280006f          	jal	x0,80001770 <rvtest_code_begin+0x1360>
    8000174c:	0000d1b7          	lui	x3,0xd
    80001750:	ccc1819b          	addiw	x3,x3,-820 # cccc <offset+0xcccc>
    80001754:	0010051b          	addiw	x10,x0,1
    80001758:	02a51513          	slli	x10,x10,0x2a
    8000175c:	ffc005b7          	lui	x11,0xffc00
    80001760:	fff5859b          	addiw	x11,x11,-1 # ffffffffffbfffff <_end+0xffffffff7fbfa4f7>
    80001764:	feb502e3          	beq	x10,x11,80001748 <rvtest_code_begin+0x1338>
    80001768:	000121b7          	lui	x3,0x12
    8000176c:	3ab1819b          	addiw	x3,x3,939 # 123ab <offset+0x123ab>
    80001770:	0030b823          	sd	x3,16(x1)
    80001774:	0000d1b7          	lui	x3,0xd
    80001778:	ccc1819b          	addiw	x3,x3,-820 # cccc <offset+0xcccc>
    8000177c:	0010059b          	addiw	x11,x0,1
    80001780:	02b59593          	slli	x11,x11,0x2b
    80001784:	ffe00637          	lui	x12,0xffe00
    80001788:	fff6061b          	addiw	x12,x12,-1 # ffffffffffdfffff <_end+0xffffffff7fdfa4f7>
    8000178c:	00c58663          	beq	x11,x12,80001798 <rvtest_code_begin+0x1388>
    80001790:	000121b7          	lui	x3,0x12
    80001794:	3ab1819b          	addiw	x3,x3,939 # 123ab <offset+0x123ab>
    80001798:	0030bc23          	sd	x3,24(x1)
    8000179c:	0000d1b7          	lui	x3,0xd
    800017a0:	ccc1819b          	addiw	x3,x3,-820 # cccc <offset+0xcccc>
    800017a4:	0010061b          	addiw	x12,x0,1
    800017a8:	02c61613          	slli	x12,x12,0x2c
    800017ac:	fff006b7          	lui	x13,0xfff00
    800017b0:	fff6869b          	addiw	x13,x13,-1 # ffffffffffefffff <_end+0xffffffff7fefa4f7>
    800017b4:	00d60663          	beq	x12,x13,800017c0 <rvtest_code_begin+0x13b0>
    800017b8:	000121b7          	lui	x3,0x12
    800017bc:	3ab1819b          	addiw	x3,x3,939 # 123ab <offset+0x123ab>
    800017c0:	0230b023          	sd	x3,32(x1)
    800017c4:	00004097          	auipc	x1,0x4
    800017c8:	af408093          	addi	x1,x1,-1292 # 800052b8 <signature_18_0>
    800017cc:	0000d1b7          	lui	x3,0xd
    800017d0:	ccc1819b          	addiw	x3,x3,-820 # cccc <offset+0xcccc>
    800017d4:	0010069b          	addiw	x13,x0,1
    800017d8:	02d69693          	slli	x13,x13,0x2d
    800017dc:	fff80737          	lui	x14,0xfff80
    800017e0:	fff7071b          	addiw	x14,x14,-1 # fffffffffff7ffff <_end+0xffffffff7ff7a4f7>
    800017e4:	00e68663          	beq	x13,x14,800017f0 <rvtest_code_begin+0x13e0>
    800017e8:	000121b7          	lui	x3,0x12
    800017ec:	3ab1819b          	addiw	x3,x3,939 # 123ab <offset+0x123ab>
    800017f0:	0030b023          	sd	x3,0(x1)
    800017f4:	0000d1b7          	lui	x3,0xd
    800017f8:	ccc1819b          	addiw	x3,x3,-820 # cccc <offset+0xcccc>
    800017fc:	0010071b          	addiw	x14,x0,1
    80001800:	02e71713          	slli	x14,x14,0x2e
    80001804:	fffc07b7          	lui	x15,0xfffc0
    80001808:	fff7879b          	addiw	x15,x15,-1 # fffffffffffbffff <_end+0xffffffff7ffba4f7>
    8000180c:	00f70663          	beq	x14,x15,80001818 <rvtest_code_begin+0x1408>
    80001810:	000121b7          	lui	x3,0x12
    80001814:	3ab1819b          	addiw	x3,x3,939 # 123ab <offset+0x123ab>
    80001818:	0030b423          	sd	x3,8(x1)
    8000181c:	0080006f          	jal	x0,80001824 <rvtest_code_begin+0x1414>
    80001820:	0280006f          	jal	x0,80001848 <rvtest_code_begin+0x1438>
    80001824:	0000d1b7          	lui	x3,0xd
    80001828:	ccc1819b          	addiw	x3,x3,-820 # cccc <offset+0xcccc>
    8000182c:	0010079b          	addiw	x15,x0,1
    80001830:	02f79793          	slli	x15,x15,0x2f
    80001834:	fffe0837          	lui	x16,0xfffe0
    80001838:	fff8081b          	addiw	x16,x16,-1 # fffffffffffdffff <_end+0xffffffff7ffda4f7>
    8000183c:	ff0782e3          	beq	x15,x16,80001820 <rvtest_code_begin+0x1410>
    80001840:	000121b7          	lui	x3,0x12
    80001844:	3ab1819b          	addiw	x3,x3,939 # 123ab <offset+0x123ab>
    80001848:	0030b823          	sd	x3,16(x1)
    8000184c:	0000d1b7          	lui	x3,0xd
    80001850:	ccc1819b          	addiw	x3,x3,-820 # cccc <offset+0xcccc>
    80001854:	0010081b          	addiw	x16,x0,1
    80001858:	03081813          	slli	x16,x16,0x30
    8000185c:	ffff08b7          	lui	x17,0xffff0
    80001860:	fff8889b          	addiw	x17,x17,-1 # fffffffffffeffff <_end+0xffffffff7ffea4f7>
    80001864:	01180663          	beq	x16,x17,80001870 <rvtest_code_begin+0x1460>
    80001868:	000121b7          	lui	x3,0x12
    8000186c:	3ab1819b          	addiw	x3,x3,939 # 123ab <offset+0x123ab>
    80001870:	0030bc23          	sd	x3,24(x1)
    80001874:	0000d1b7          	lui	x3,0xd
    80001878:	ccc1819b          	addiw	x3,x3,-820 # cccc <offset+0xcccc>
    8000187c:	0010089b          	addiw	x17,x0,1
    80001880:	03189893          	slli	x17,x17,0x31
    80001884:	ffff8937          	lui	x18,0xffff8
    80001888:	fff9091b          	addiw	x18,x18,-1 # ffffffffffff7fff <_end+0xffffffff7fff24f7>
    8000188c:	01288663          	beq	x17,x18,80001898 <rvtest_code_begin+0x1488>
    80001890:	000121b7          	lui	x3,0x12
    80001894:	3ab1819b          	addiw	x3,x3,939 # 123ab <offset+0x123ab>
    80001898:	0230b023          	sd	x3,32(x1)
    8000189c:	00004097          	auipc	x1,0x4
    800018a0:	a4408093          	addi	x1,x1,-1468 # 800052e0 <signature_19_0>
    800018a4:	0000d1b7          	lui	x3,0xd
    800018a8:	ccc1819b          	addiw	x3,x3,-820 # cccc <offset+0xcccc>
    800018ac:	0010091b          	addiw	x18,x0,1
    800018b0:	03291913          	slli	x18,x18,0x32
    800018b4:	ffffc9b7          	lui	x19,0xffffc
    800018b8:	fff9899b          	addiw	x19,x19,-1 # ffffffffffffbfff <_end+0xffffffff7fff64f7>
    800018bc:	01390663          	beq	x18,x19,800018c8 <rvtest_code_begin+0x14b8>
    800018c0:	000121b7          	lui	x3,0x12
    800018c4:	3ab1819b          	addiw	x3,x3,939 # 123ab <offset+0x123ab>
    800018c8:	0030b023          	sd	x3,0(x1)
    800018cc:	0000d1b7          	lui	x3,0xd
    800018d0:	ccc1819b          	addiw	x3,x3,-820 # cccc <offset+0xcccc>
    800018d4:	0010099b          	addiw	x19,x0,1
    800018d8:	03399993          	slli	x19,x19,0x33
    800018dc:	ffffea37          	lui	x20,0xffffe
    800018e0:	fffa0a1b          	addiw	x20,x20,-1 # ffffffffffffdfff <_end+0xffffffff7fff84f7>
    800018e4:	01498663          	beq	x19,x20,800018f0 <rvtest_code_begin+0x14e0>
    800018e8:	000121b7          	lui	x3,0x12
    800018ec:	3ab1819b          	addiw	x3,x3,939 # 123ab <offset+0x123ab>
    800018f0:	0030b423          	sd	x3,8(x1)
    800018f4:	0080006f          	jal	x0,800018fc <rvtest_code_begin+0x14ec>
    800018f8:	0280006f          	jal	x0,80001920 <rvtest_code_begin+0x1510>
    800018fc:	0000d1b7          	lui	x3,0xd
    80001900:	ccc1819b          	addiw	x3,x3,-820 # cccc <offset+0xcccc>
    80001904:	00100a1b          	addiw	x20,x0,1
    80001908:	034a1a13          	slli	x20,x20,0x34
    8000190c:	fffffab7          	lui	x21,0xfffff
    80001910:	fffa8a9b          	addiw	x21,x21,-1 # ffffffffffffefff <_end+0xffffffff7fff94f7>
    80001914:	ff5a02e3          	beq	x20,x21,800018f8 <rvtest_code_begin+0x14e8>
    80001918:	000121b7          	lui	x3,0x12
    8000191c:	3ab1819b          	addiw	x3,x3,939 # 123ab <offset+0x123ab>
    80001920:	0030b823          	sd	x3,16(x1)
    80001924:	0000d1b7          	lui	x3,0xd
    80001928:	ccc1819b          	addiw	x3,x3,-820 # cccc <offset+0xcccc>
    8000192c:	00100a9b          	addiw	x21,x0,1
    80001930:	035a9a93          	slli	x21,x21,0x35
    80001934:	fffffb37          	lui	x22,0xfffff
    80001938:	7ffb0b1b          	addiw	x22,x22,2047 # fffffffffffff7ff <_end+0xffffffff7fff9cf7>
    8000193c:	016a8663          	beq	x21,x22,80001948 <rvtest_code_begin+0x1538>
    80001940:	000121b7          	lui	x3,0x12
    80001944:	3ab1819b          	addiw	x3,x3,939 # 123ab <offset+0x123ab>
    80001948:	0030bc23          	sd	x3,24(x1)
    8000194c:	0000d1b7          	lui	x3,0xd
    80001950:	ccc1819b          	addiw	x3,x3,-820 # cccc <offset+0xcccc>
    80001954:	00100b1b          	addiw	x22,x0,1
    80001958:	036b1b13          	slli	x22,x22,0x36
    8000195c:	bff00b93          	addi	x23,x0,-1025
    80001960:	017b0663          	beq	x22,x23,8000196c <rvtest_code_begin+0x155c>
    80001964:	000121b7          	lui	x3,0x12
    80001968:	3ab1819b          	addiw	x3,x3,939 # 123ab <offset+0x123ab>
    8000196c:	0230b023          	sd	x3,32(x1)
    80001970:	00004097          	auipc	x1,0x4
    80001974:	99808093          	addi	x1,x1,-1640 # 80005308 <signature_20_0>
    80001978:	0000d1b7          	lui	x3,0xd
    8000197c:	ccc1819b          	addiw	x3,x3,-820 # cccc <offset+0xcccc>
    80001980:	00100b9b          	addiw	x23,x0,1
    80001984:	037b9b93          	slli	x23,x23,0x37
    80001988:	dff00c13          	addi	x24,x0,-513
    8000198c:	018b8663          	beq	x23,x24,80001998 <rvtest_code_begin+0x1588>
    80001990:	000121b7          	lui	x3,0x12
    80001994:	3ab1819b          	addiw	x3,x3,939 # 123ab <offset+0x123ab>
    80001998:	0030b023          	sd	x3,0(x1)
    8000199c:	0000d1b7          	lui	x3,0xd
    800019a0:	ccc1819b          	addiw	x3,x3,-820 # cccc <offset+0xcccc>
    800019a4:	00100c1b          	addiw	x24,x0,1
    800019a8:	038c1c13          	slli	x24,x24,0x38
    800019ac:	eff00c93          	addi	x25,x0,-257
    800019b0:	019c0663          	beq	x24,x25,800019bc <rvtest_code_begin+0x15ac>
    800019b4:	000121b7          	lui	x3,0x12
    800019b8:	3ab1819b          	addiw	x3,x3,939 # 123ab <offset+0x123ab>
    800019bc:	0030b423          	sd	x3,8(x1)
    800019c0:	0080006f          	jal	x0,800019c8 <rvtest_code_begin+0x15b8>
    800019c4:	0240006f          	jal	x0,800019e8 <rvtest_code_begin+0x15d8>
    800019c8:	0000d1b7          	lui	x3,0xd
    800019cc:	ccc1819b          	addiw	x3,x3,-820 # cccc <offset+0xcccc>
    800019d0:	00100c9b          	addiw	x25,x0,1
    800019d4:	039c9c93          	slli	x25,x25,0x39
    800019d8:	f7f00d13          	addi	x26,x0,-129
    800019dc:	ffac84e3          	beq	x25,x26,800019c4 <rvtest_code_begin+0x15b4>
    800019e0:	000121b7          	lui	x3,0x12
    800019e4:	3ab1819b          	addiw	x3,x3,939 # 123ab <offset+0x123ab>
    800019e8:	0030b823          	sd	x3,16(x1)
    800019ec:	0000d1b7          	lui	x3,0xd
    800019f0:	ccc1819b          	addiw	x3,x3,-820 # cccc <offset+0xcccc>
    800019f4:	00100d1b          	addiw	x26,x0,1
    800019f8:	03ad1d13          	slli	x26,x26,0x3a
    800019fc:	fbf00d93          	addi	x27,x0,-65
    80001a00:	01bd0663          	beq	x26,x27,80001a0c <rvtest_code_begin+0x15fc>
    80001a04:	000121b7          	lui	x3,0x12
    80001a08:	3ab1819b          	addiw	x3,x3,939 # 123ab <offset+0x123ab>
    80001a0c:	0030bc23          	sd	x3,24(x1)
    80001a10:	0000d1b7          	lui	x3,0xd
    80001a14:	ccc1819b          	addiw	x3,x3,-820 # cccc <offset+0xcccc>
    80001a18:	00100d9b          	addiw	x27,x0,1
    80001a1c:	03bd9d93          	slli	x27,x27,0x3b
    80001a20:	fdf00e13          	addi	x28,x0,-33
    80001a24:	01cd8663          	beq	x27,x28,80001a30 <rvtest_code_begin+0x1620>
    80001a28:	000121b7          	lui	x3,0x12
    80001a2c:	3ab1819b          	addiw	x3,x3,939 # 123ab <offset+0x123ab>
    80001a30:	0230b023          	sd	x3,32(x1)
    80001a34:	00004197          	auipc	x3,0x4
    80001a38:	8fc18193          	addi	x3,x3,-1796 # 80005330 <signature_21_0>
    80001a3c:	0000d2b7          	lui	x5,0xd
    80001a40:	ccc2829b          	addiw	x5,x5,-820 # cccc <offset+0xcccc>
    80001a44:	00100e1b          	addiw	x28,x0,1
    80001a48:	03ce1e13          	slli	x28,x28,0x3c
    80001a4c:	fef00e93          	addi	x29,x0,-17
    80001a50:	01de0663          	beq	x28,x29,80001a5c <rvtest_code_begin+0x164c>
    80001a54:	000122b7          	lui	x5,0x12
    80001a58:	3ab2829b          	addiw	x5,x5,939 # 123ab <offset+0x123ab>
    80001a5c:	0051b023          	sd	x5,0(x3)
    80001a60:	0000d2b7          	lui	x5,0xd
    80001a64:	ccc2829b          	addiw	x5,x5,-820 # cccc <offset+0xcccc>
    80001a68:	00100e9b          	addiw	x29,x0,1
    80001a6c:	03de9e93          	slli	x29,x29,0x3d
    80001a70:	ff700f13          	addi	x30,x0,-9
    80001a74:	01ee8663          	beq	x29,x30,80001a80 <rvtest_code_begin+0x1670>
    80001a78:	000122b7          	lui	x5,0x12
    80001a7c:	3ab2829b          	addiw	x5,x5,939 # 123ab <offset+0x123ab>
    80001a80:	0051b423          	sd	x5,8(x3)
    80001a84:	0080006f          	jal	x0,80001a8c <rvtest_code_begin+0x167c>
    80001a88:	0240006f          	jal	x0,80001aac <rvtest_code_begin+0x169c>
    80001a8c:	0000d2b7          	lui	x5,0xd
    80001a90:	ccc2829b          	addiw	x5,x5,-820 # cccc <offset+0xcccc>
    80001a94:	00100f1b          	addiw	x30,x0,1
    80001a98:	03ef1f13          	slli	x30,x30,0x3e
    80001a9c:	ffb00f93          	addi	x31,x0,-5
    80001aa0:	ffff04e3          	beq	x30,x31,80001a88 <rvtest_code_begin+0x1678>
    80001aa4:	000122b7          	lui	x5,0x12
    80001aa8:	3ab2829b          	addiw	x5,x5,939 # 123ab <offset+0x123ab>
    80001aac:	0051b823          	sd	x5,16(x3)
    80001ab0:	0000d2b7          	lui	x5,0xd
    80001ab4:	ccc2829b          	addiw	x5,x5,-820 # cccc <offset+0xcccc>
    80001ab8:	fff00f9b          	addiw	x31,x0,-1
    80001abc:	03ff9f93          	slli	x31,x31,0x3f
    80001ac0:	ffd00093          	addi	x1,x0,-3
    80001ac4:	001f8663          	beq	x31,x1,80001ad0 <rvtest_code_begin+0x16c0>
    80001ac8:	000122b7          	lui	x5,0x12
    80001acc:	3ab2829b          	addiw	x5,x5,939 # 123ab <offset+0x123ab>
    80001ad0:	0051bc23          	sd	x5,24(x3)
    80001ad4:	0000d2b7          	lui	x5,0xd
    80001ad8:	ccc2829b          	addiw	x5,x5,-820 # cccc <offset+0xcccc>
    80001adc:	ffe00093          	addi	x1,x0,-2
    80001ae0:	ffe00113          	addi	x2,x0,-2
    80001ae4:	00208663          	beq	x1,x2,80001af0 <rvtest_code_begin+0x16e0>
    80001ae8:	000122b7          	lui	x5,0x12
    80001aec:	3ab2829b          	addiw	x5,x5,939 # 123ab <offset+0x123ab>
    80001af0:	0251b023          	sd	x5,32(x3)
    80001af4:	00004397          	auipc	x7,0x4
    80001af8:	86438393          	addi	x7,x7,-1948 # 80005358 <signature_22_0>
    80001afc:	0000d4b7          	lui	x9,0xd
    80001b00:	ccc4849b          	addiw	x9,x9,-820 # cccc <offset+0xcccc>
    80001b04:	ffd00093          	addi	x1,x0,-3
    80001b08:	fff0011b          	addiw	x2,x0,-1
    80001b0c:	03f11113          	slli	x2,x2,0x3f
    80001b10:	00208663          	beq	x1,x2,80001b1c <rvtest_code_begin+0x170c>
    80001b14:	000124b7          	lui	x9,0x12
    80001b18:	3ab4849b          	addiw	x9,x9,939 # 123ab <offset+0x123ab>
    80001b1c:	0093b023          	sd	x9,0(x7)
    80001b20:	0000d4b7          	lui	x9,0xd
    80001b24:	ccc4849b          	addiw	x9,x9,-820 # cccc <offset+0xcccc>
    80001b28:	ffb00113          	addi	x2,x0,-5
    80001b2c:	0010019b          	addiw	x3,x0,1
    80001b30:	03e19193          	slli	x3,x3,0x3e
    80001b34:	00310663          	beq	x2,x3,80001b40 <rvtest_code_begin+0x1730>
    80001b38:	000124b7          	lui	x9,0x12
    80001b3c:	3ab4849b          	addiw	x9,x9,939 # 123ab <offset+0x123ab>
    80001b40:	0093b423          	sd	x9,8(x7)
    80001b44:	0080006f          	jal	x0,80001b4c <rvtest_code_begin+0x173c>
    80001b48:	0240006f          	jal	x0,80001b6c <rvtest_code_begin+0x175c>
    80001b4c:	0000d4b7          	lui	x9,0xd
    80001b50:	ccc4849b          	addiw	x9,x9,-820 # cccc <offset+0xcccc>
    80001b54:	ff700193          	addi	x3,x0,-9
    80001b58:	0010021b          	addiw	x4,x0,1
    80001b5c:	03d21213          	slli	x4,x4,0x3d
    80001b60:	fe4184e3          	beq	x3,x4,80001b48 <rvtest_code_begin+0x1738>
    80001b64:	000124b7          	lui	x9,0x12
    80001b68:	3ab4849b          	addiw	x9,x9,939 # 123ab <offset+0x123ab>
    80001b6c:	0093b823          	sd	x9,16(x7)
    80001b70:	0000d4b7          	lui	x9,0xd
    80001b74:	ccc4849b          	addiw	x9,x9,-820 # cccc <offset+0xcccc>
    80001b78:	fef00213          	addi	x4,x0,-17
    80001b7c:	0010029b          	addiw	x5,x0,1
    80001b80:	03c29293          	slli	x5,x5,0x3c
    80001b84:	00520663          	beq	x4,x5,80001b90 <rvtest_code_begin+0x1780>
    80001b88:	000124b7          	lui	x9,0x12
    80001b8c:	3ab4849b          	addiw	x9,x9,939 # 123ab <offset+0x123ab>
    80001b90:	0093bc23          	sd	x9,24(x7)
    80001b94:	0000d4b7          	lui	x9,0xd
    80001b98:	ccc4849b          	addiw	x9,x9,-820 # cccc <offset+0xcccc>
    80001b9c:	fdf00293          	addi	x5,x0,-33
    80001ba0:	0010031b          	addiw	x6,x0,1
    80001ba4:	03b31313          	slli	x6,x6,0x3b
    80001ba8:	00628663          	beq	x5,x6,80001bb4 <rvtest_code_begin+0x17a4>
    80001bac:	000124b7          	lui	x9,0x12
    80001bb0:	3ab4849b          	addiw	x9,x9,939 # 123ab <offset+0x123ab>
    80001bb4:	0293b023          	sd	x9,32(x7)
    80001bb8:	00003097          	auipc	x1,0x3
    80001bbc:	7c808093          	addi	x1,x1,1992 # 80005380 <signature_23_0>
    80001bc0:	0000d1b7          	lui	x3,0xd
    80001bc4:	ccc1819b          	addiw	x3,x3,-820 # cccc <offset+0xcccc>
    80001bc8:	fbf00313          	addi	x6,x0,-65
    80001bcc:	0010039b          	addiw	x7,x0,1
    80001bd0:	03a39393          	slli	x7,x7,0x3a
    80001bd4:	00730663          	beq	x6,x7,80001be0 <rvtest_code_begin+0x17d0>
    80001bd8:	000121b7          	lui	x3,0x12
    80001bdc:	3ab1819b          	addiw	x3,x3,939 # 123ab <offset+0x123ab>
    80001be0:	0030b023          	sd	x3,0(x1)
    80001be4:	0000d1b7          	lui	x3,0xd
    80001be8:	ccc1819b          	addiw	x3,x3,-820 # cccc <offset+0xcccc>
    80001bec:	f7f00393          	addi	x7,x0,-129
    80001bf0:	0010041b          	addiw	x8,x0,1
    80001bf4:	03941413          	slli	x8,x8,0x39
    80001bf8:	00838663          	beq	x7,x8,80001c04 <rvtest_code_begin+0x17f4>
    80001bfc:	000121b7          	lui	x3,0x12
    80001c00:	3ab1819b          	addiw	x3,x3,939 # 123ab <offset+0x123ab>
    80001c04:	0030b423          	sd	x3,8(x1)
    80001c08:	0080006f          	jal	x0,80001c10 <rvtest_code_begin+0x1800>
    80001c0c:	0240006f          	jal	x0,80001c30 <rvtest_code_begin+0x1820>
    80001c10:	0000d1b7          	lui	x3,0xd
    80001c14:	ccc1819b          	addiw	x3,x3,-820 # cccc <offset+0xcccc>
    80001c18:	eff00413          	addi	x8,x0,-257
    80001c1c:	0010049b          	addiw	x9,x0,1
    80001c20:	03849493          	slli	x9,x9,0x38
    80001c24:	fe9404e3          	beq	x8,x9,80001c0c <rvtest_code_begin+0x17fc>
    80001c28:	000121b7          	lui	x3,0x12
    80001c2c:	3ab1819b          	addiw	x3,x3,939 # 123ab <offset+0x123ab>
    80001c30:	0030b823          	sd	x3,16(x1)
    80001c34:	0000d1b7          	lui	x3,0xd
    80001c38:	ccc1819b          	addiw	x3,x3,-820 # cccc <offset+0xcccc>
    80001c3c:	dff00493          	addi	x9,x0,-513
    80001c40:	0010051b          	addiw	x10,x0,1
    80001c44:	03751513          	slli	x10,x10,0x37
    80001c48:	00a48663          	beq	x9,x10,80001c54 <rvtest_code_begin+0x1844>
    80001c4c:	000121b7          	lui	x3,0x12
    80001c50:	3ab1819b          	addiw	x3,x3,939 # 123ab <offset+0x123ab>
    80001c54:	0030bc23          	sd	x3,24(x1)
    80001c58:	0000d1b7          	lui	x3,0xd
    80001c5c:	ccc1819b          	addiw	x3,x3,-820 # cccc <offset+0xcccc>
    80001c60:	bff00513          	addi	x10,x0,-1025
    80001c64:	0010059b          	addiw	x11,x0,1
    80001c68:	03659593          	slli	x11,x11,0x36
    80001c6c:	00b50663          	beq	x10,x11,80001c78 <rvtest_code_begin+0x1868>
    80001c70:	000121b7          	lui	x3,0x12
    80001c74:	3ab1819b          	addiw	x3,x3,939 # 123ab <offset+0x123ab>
    80001c78:	0230b023          	sd	x3,32(x1)
    80001c7c:	00003097          	auipc	x1,0x3
    80001c80:	72c08093          	addi	x1,x1,1836 # 800053a8 <signature_24_0>
    80001c84:	0000d1b7          	lui	x3,0xd
    80001c88:	ccc1819b          	addiw	x3,x3,-820 # cccc <offset+0xcccc>
    80001c8c:	fffff5b7          	lui	x11,0xfffff
    80001c90:	7ff5859b          	addiw	x11,x11,2047 # fffffffffffff7ff <_end+0xffffffff7fff9cf7>
    80001c94:	0010061b          	addiw	x12,x0,1
    80001c98:	03561613          	slli	x12,x12,0x35
    80001c9c:	00c58663          	beq	x11,x12,80001ca8 <rvtest_code_begin+0x1898>
    80001ca0:	000121b7          	lui	x3,0x12
    80001ca4:	3ab1819b          	addiw	x3,x3,939 # 123ab <offset+0x123ab>
    80001ca8:	0030b023          	sd	x3,0(x1)
    80001cac:	0000d1b7          	lui	x3,0xd
    80001cb0:	ccc1819b          	addiw	x3,x3,-820 # cccc <offset+0xcccc>
    80001cb4:	fffff637          	lui	x12,0xfffff
    80001cb8:	fff6061b          	addiw	x12,x12,-1 # ffffffffffffefff <_end+0xffffffff7fff94f7>
    80001cbc:	0010069b          	addiw	x13,x0,1
    80001cc0:	03469693          	slli	x13,x13,0x34
    80001cc4:	00d60663          	beq	x12,x13,80001cd0 <rvtest_code_begin+0x18c0>
    80001cc8:	000121b7          	lui	x3,0x12
    80001ccc:	3ab1819b          	addiw	x3,x3,939 # 123ab <offset+0x123ab>
    80001cd0:	0030b423          	sd	x3,8(x1)
    80001cd4:	0080006f          	jal	x0,80001cdc <rvtest_code_begin+0x18cc>
    80001cd8:	0280006f          	jal	x0,80001d00 <rvtest_code_begin+0x18f0>
    80001cdc:	0000d1b7          	lui	x3,0xd
    80001ce0:	ccc1819b          	addiw	x3,x3,-820 # cccc <offset+0xcccc>
    80001ce4:	ffffe6b7          	lui	x13,0xffffe
    80001ce8:	fff6869b          	addiw	x13,x13,-1 # ffffffffffffdfff <_end+0xffffffff7fff84f7>
    80001cec:	0010071b          	addiw	x14,x0,1
    80001cf0:	03371713          	slli	x14,x14,0x33
    80001cf4:	fee682e3          	beq	x13,x14,80001cd8 <rvtest_code_begin+0x18c8>
    80001cf8:	000121b7          	lui	x3,0x12
    80001cfc:	3ab1819b          	addiw	x3,x3,939 # 123ab <offset+0x123ab>
    80001d00:	0030b823          	sd	x3,16(x1)
    80001d04:	0000d1b7          	lui	x3,0xd
    80001d08:	ccc1819b          	addiw	x3,x3,-820 # cccc <offset+0xcccc>
    80001d0c:	ffffc737          	lui	x14,0xffffc
    80001d10:	fff7071b          	addiw	x14,x14,-1 # ffffffffffffbfff <_end+0xffffffff7fff64f7>
    80001d14:	0010079b          	addiw	x15,x0,1
    80001d18:	03279793          	slli	x15,x15,0x32
    80001d1c:	00f70663          	beq	x14,x15,80001d28 <rvtest_code_begin+0x1918>
    80001d20:	000121b7          	lui	x3,0x12
    80001d24:	3ab1819b          	addiw	x3,x3,939 # 123ab <offset+0x123ab>
    80001d28:	0030bc23          	sd	x3,24(x1)
    80001d2c:	0000d1b7          	lui	x3,0xd
    80001d30:	ccc1819b          	addiw	x3,x3,-820 # cccc <offset+0xcccc>
    80001d34:	ffff87b7          	lui	x15,0xffff8
    80001d38:	fff7879b          	addiw	x15,x15,-1 # ffffffffffff7fff <_end+0xffffffff7fff24f7>
    80001d3c:	0010081b          	addiw	x16,x0,1
    80001d40:	03181813          	slli	x16,x16,0x31
    80001d44:	01078663          	beq	x15,x16,80001d50 <rvtest_code_begin+0x1940>
    80001d48:	000121b7          	lui	x3,0x12
    80001d4c:	3ab1819b          	addiw	x3,x3,939 # 123ab <offset+0x123ab>
    80001d50:	0230b023          	sd	x3,32(x1)
    80001d54:	00003097          	auipc	x1,0x3
    80001d58:	67c08093          	addi	x1,x1,1660 # 800053d0 <signature_25_0>
    80001d5c:	0000d1b7          	lui	x3,0xd
    80001d60:	ccc1819b          	addiw	x3,x3,-820 # cccc <offset+0xcccc>
    80001d64:	ffff0837          	lui	x16,0xffff0
    80001d68:	fff8081b          	addiw	x16,x16,-1 # fffffffffffeffff <_end+0xffffffff7ffea4f7>
    80001d6c:	0010089b          	addiw	x17,x0,1
    80001d70:	03089893          	slli	x17,x17,0x30
    80001d74:	01180663          	beq	x16,x17,80001d80 <rvtest_code_begin+0x1970>
    80001d78:	000121b7          	lui	x3,0x12
    80001d7c:	3ab1819b          	addiw	x3,x3,939 # 123ab <offset+0x123ab>
    80001d80:	0030b023          	sd	x3,0(x1)
    80001d84:	0000d1b7          	lui	x3,0xd
    80001d88:	ccc1819b          	addiw	x3,x3,-820 # cccc <offset+0xcccc>
    80001d8c:	fffe08b7          	lui	x17,0xfffe0
    80001d90:	fff8889b          	addiw	x17,x17,-1 # fffffffffffdffff <_end+0xffffffff7ffda4f7>
    80001d94:	0010091b          	addiw	x18,x0,1
    80001d98:	02f91913          	slli	x18,x18,0x2f
    80001d9c:	01288663          	beq	x17,x18,80001da8 <rvtest_code_begin+0x1998>
    80001da0:	000121b7          	lui	x3,0x12
    80001da4:	3ab1819b          	addiw	x3,x3,939 # 123ab <offset+0x123ab>
    80001da8:	0030b423          	sd	x3,8(x1)
    80001dac:	0080006f          	jal	x0,80001db4 <rvtest_code_begin+0x19a4>
    80001db0:	0280006f          	jal	x0,80001dd8 <rvtest_code_begin+0x19c8>
    80001db4:	0000d1b7          	lui	x3,0xd
    80001db8:	ccc1819b          	addiw	x3,x3,-820 # cccc <offset+0xcccc>
    80001dbc:	fffc0937          	lui	x18,0xfffc0
    80001dc0:	fff9091b          	addiw	x18,x18,-1 # fffffffffffbffff <_end+0xffffffff7ffba4f7>
    80001dc4:	0010099b          	addiw	x19,x0,1
    80001dc8:	02e99993          	slli	x19,x19,0x2e
    80001dcc:	ff3902e3          	beq	x18,x19,80001db0 <rvtest_code_begin+0x19a0>
    80001dd0:	000121b7          	lui	x3,0x12
    80001dd4:	3ab1819b          	addiw	x3,x3,939 # 123ab <offset+0x123ab>
    80001dd8:	0030b823          	sd	x3,16(x1)
    80001ddc:	0000d1b7          	lui	x3,0xd
    80001de0:	ccc1819b          	addiw	x3,x3,-820 # cccc <offset+0xcccc>
    80001de4:	fff809b7          	lui	x19,0xfff80
    80001de8:	fff9899b          	addiw	x19,x19,-1 # fffffffffff7ffff <_end+0xffffffff7ff7a4f7>
    80001dec:	00100a1b          	addiw	x20,x0,1
    80001df0:	02da1a13          	slli	x20,x20,0x2d
    80001df4:	01498663          	beq	x19,x20,80001e00 <rvtest_code_begin+0x19f0>
    80001df8:	000121b7          	lui	x3,0x12
    80001dfc:	3ab1819b          	addiw	x3,x3,939 # 123ab <offset+0x123ab>
    80001e00:	0030bc23          	sd	x3,24(x1)
    80001e04:	0000d1b7          	lui	x3,0xd
    80001e08:	ccc1819b          	addiw	x3,x3,-820 # cccc <offset+0xcccc>
    80001e0c:	fff00a37          	lui	x20,0xfff00
    80001e10:	fffa0a1b          	addiw	x20,x20,-1 # ffffffffffefffff <_end+0xffffffff7fefa4f7>
    80001e14:	00100a9b          	addiw	x21,x0,1
    80001e18:	02ca9a93          	slli	x21,x21,0x2c
    80001e1c:	015a0663          	beq	x20,x21,80001e28 <rvtest_code_begin+0x1a18>
    80001e20:	000121b7          	lui	x3,0x12
    80001e24:	3ab1819b          	addiw	x3,x3,939 # 123ab <offset+0x123ab>
    80001e28:	0230b023          	sd	x3,32(x1)
    80001e2c:	00003097          	auipc	x1,0x3
    80001e30:	5cc08093          	addi	x1,x1,1484 # 800053f8 <signature_26_0>
    80001e34:	0000d1b7          	lui	x3,0xd
    80001e38:	ccc1819b          	addiw	x3,x3,-820 # cccc <offset+0xcccc>
    80001e3c:	ffe00ab7          	lui	x21,0xffe00
    80001e40:	fffa8a9b          	addiw	x21,x21,-1 # ffffffffffdfffff <_end+0xffffffff7fdfa4f7>
    80001e44:	00100b1b          	addiw	x22,x0,1
    80001e48:	02bb1b13          	slli	x22,x22,0x2b
    80001e4c:	016a8663          	beq	x21,x22,80001e58 <rvtest_code_begin+0x1a48>
    80001e50:	000121b7          	lui	x3,0x12
    80001e54:	3ab1819b          	addiw	x3,x3,939 # 123ab <offset+0x123ab>
    80001e58:	0030b023          	sd	x3,0(x1)
    80001e5c:	0000d1b7          	lui	x3,0xd
    80001e60:	ccc1819b          	addiw	x3,x3,-820 # cccc <offset+0xcccc>
    80001e64:	ffc00b37          	lui	x22,0xffc00
    80001e68:	fffb0b1b          	addiw	x22,x22,-1 # ffffffffffbfffff <_end+0xffffffff7fbfa4f7>
    80001e6c:	00100b9b          	addiw	x23,x0,1
    80001e70:	02ab9b93          	slli	x23,x23,0x2a
    80001e74:	017b0663          	beq	x22,x23,80001e80 <rvtest_code_begin+0x1a70>
    80001e78:	000121b7          	lui	x3,0x12
    80001e7c:	3ab1819b          	addiw	x3,x3,939 # 123ab <offset+0x123ab>
    80001e80:	0030b423          	sd	x3,8(x1)
    80001e84:	0080006f          	jal	x0,80001e8c <rvtest_code_begin+0x1a7c>
    80001e88:	0280006f          	jal	x0,80001eb0 <rvtest_code_begin+0x1aa0>
    80001e8c:	0000d1b7          	lui	x3,0xd
    80001e90:	ccc1819b          	addiw	x3,x3,-820 # cccc <offset+0xcccc>
    80001e94:	ff800bb7          	lui	x23,0xff800
    80001e98:	fffb8b9b          	addiw	x23,x23,-1 # ffffffffff7fffff <_end+0xffffffff7f7fa4f7>
    80001e9c:	00100c1b          	addiw	x24,x0,1
    80001ea0:	029c1c13          	slli	x24,x24,0x29
    80001ea4:	ff8b82e3          	beq	x23,x24,80001e88 <rvtest_code_begin+0x1a78>
    80001ea8:	000121b7          	lui	x3,0x12
    80001eac:	3ab1819b          	addiw	x3,x3,939 # 123ab <offset+0x123ab>
    80001eb0:	0030b823          	sd	x3,16(x1)
    80001eb4:	0000d1b7          	lui	x3,0xd
    80001eb8:	ccc1819b          	addiw	x3,x3,-820 # cccc <offset+0xcccc>
    80001ebc:	ff000c37          	lui	x24,0xff000
    80001ec0:	fffc0c1b          	addiw	x24,x24,-1 # fffffffffeffffff <_end+0xffffffff7effa4f7>
    80001ec4:	00100c9b          	addiw	x25,x0,1
    80001ec8:	028c9c93          	slli	x25,x25,0x28
    80001ecc:	019c0663          	beq	x24,x25,80001ed8 <rvtest_code_begin+0x1ac8>
    80001ed0:	000121b7          	lui	x3,0x12
    80001ed4:	3ab1819b          	addiw	x3,x3,939 # 123ab <offset+0x123ab>
    80001ed8:	0030bc23          	sd	x3,24(x1)
    80001edc:	0000d1b7          	lui	x3,0xd
    80001ee0:	ccc1819b          	addiw	x3,x3,-820 # cccc <offset+0xcccc>
    80001ee4:	fe000cb7          	lui	x25,0xfe000
    80001ee8:	fffc8c9b          	addiw	x25,x25,-1 # fffffffffdffffff <_end+0xffffffff7dffa4f7>
    80001eec:	00100d1b          	addiw	x26,x0,1
    80001ef0:	027d1d13          	slli	x26,x26,0x27
    80001ef4:	01ac8663          	beq	x25,x26,80001f00 <rvtest_code_begin+0x1af0>
    80001ef8:	000121b7          	lui	x3,0x12
    80001efc:	3ab1819b          	addiw	x3,x3,939 # 123ab <offset+0x123ab>
    80001f00:	0230b023          	sd	x3,32(x1)
    80001f04:	00003097          	auipc	x1,0x3
    80001f08:	51c08093          	addi	x1,x1,1308 # 80005420 <signature_27_0>
    80001f0c:	0000d1b7          	lui	x3,0xd
    80001f10:	ccc1819b          	addiw	x3,x3,-820 # cccc <offset+0xcccc>
    80001f14:	fc000d37          	lui	x26,0xfc000
    80001f18:	fffd0d1b          	addiw	x26,x26,-1 # fffffffffbffffff <_end+0xffffffff7bffa4f7>
    80001f1c:	00100d9b          	addiw	x27,x0,1
    80001f20:	026d9d93          	slli	x27,x27,0x26
    80001f24:	01bd0663          	beq	x26,x27,80001f30 <rvtest_code_begin+0x1b20>
    80001f28:	000121b7          	lui	x3,0x12
    80001f2c:	3ab1819b          	addiw	x3,x3,939 # 123ab <offset+0x123ab>
    80001f30:	0030b023          	sd	x3,0(x1)
    80001f34:	0000d1b7          	lui	x3,0xd
    80001f38:	ccc1819b          	addiw	x3,x3,-820 # cccc <offset+0xcccc>
    80001f3c:	f8000db7          	lui	x27,0xf8000
    80001f40:	fffd8d9b          	addiw	x27,x27,-1 # fffffffff7ffffff <_end+0xffffffff77ffa4f7>
    80001f44:	00100e1b          	addiw	x28,x0,1
    80001f48:	025e1e13          	slli	x28,x28,0x25
    80001f4c:	01cd8663          	beq	x27,x28,80001f58 <rvtest_code_begin+0x1b48>
    80001f50:	000121b7          	lui	x3,0x12
    80001f54:	3ab1819b          	addiw	x3,x3,939 # 123ab <offset+0x123ab>
    80001f58:	0030b423          	sd	x3,8(x1)
    80001f5c:	0080006f          	jal	x0,80001f64 <rvtest_code_begin+0x1b54>
    80001f60:	0280006f          	jal	x0,80001f88 <rvtest_code_begin+0x1b78>
    80001f64:	0000d1b7          	lui	x3,0xd
    80001f68:	ccc1819b          	addiw	x3,x3,-820 # cccc <offset+0xcccc>
    80001f6c:	f0000e37          	lui	x28,0xf0000
    80001f70:	fffe0e1b          	addiw	x28,x28,-1 # ffffffffefffffff <_end+0xffffffff6fffa4f7>
    80001f74:	00100e9b          	addiw	x29,x0,1
    80001f78:	024e9e93          	slli	x29,x29,0x24
    80001f7c:	ffde02e3          	beq	x28,x29,80001f60 <rvtest_code_begin+0x1b50>
    80001f80:	000121b7          	lui	x3,0x12
    80001f84:	3ab1819b          	addiw	x3,x3,939 # 123ab <offset+0x123ab>
    80001f88:	0030b823          	sd	x3,16(x1)
    80001f8c:	0000d1b7          	lui	x3,0xd
    80001f90:	ccc1819b          	addiw	x3,x3,-820 # cccc <offset+0xcccc>
    80001f94:	e0000eb7          	lui	x29,0xe0000
    80001f98:	fffe8e9b          	addiw	x29,x29,-1 # ffffffffdfffffff <_end+0xffffffff5fffa4f7>
    80001f9c:	00100f1b          	addiw	x30,x0,1
    80001fa0:	023f1f13          	slli	x30,x30,0x23
    80001fa4:	01ee8663          	beq	x29,x30,80001fb0 <rvtest_code_begin+0x1ba0>
    80001fa8:	000121b7          	lui	x3,0x12
    80001fac:	3ab1819b          	addiw	x3,x3,939 # 123ab <offset+0x123ab>
    80001fb0:	0030bc23          	sd	x3,24(x1)
    80001fb4:	0000d1b7          	lui	x3,0xd
    80001fb8:	ccc1819b          	addiw	x3,x3,-820 # cccc <offset+0xcccc>
    80001fbc:	c0000f37          	lui	x30,0xc0000
    80001fc0:	ffff0f1b          	addiw	x30,x30,-1 # ffffffffbfffffff <_end+0xffffffff3fffa4f7>
    80001fc4:	00100f9b          	addiw	x31,x0,1
    80001fc8:	022f9f93          	slli	x31,x31,0x22
    80001fcc:	01ff0663          	beq	x30,x31,80001fd8 <rvtest_code_begin+0x1bc8>
    80001fd0:	000121b7          	lui	x3,0x12
    80001fd4:	3ab1819b          	addiw	x3,x3,939 # 123ab <offset+0x123ab>
    80001fd8:	0230b023          	sd	x3,32(x1)
    80001fdc:	00003297          	auipc	x5,0x3
    80001fe0:	46c28293          	addi	x5,x5,1132 # 80005448 <signature_28_0>
    80001fe4:	0000d3b7          	lui	x7,0xd
    80001fe8:	ccc3839b          	addiw	x7,x7,-820 # cccc <offset+0xcccc>
    80001fec:	fff00f9b          	addiw	x31,x0,-1
    80001ff0:	01ff9f93          	slli	x31,x31,0x1f
    80001ff4:	ffff8f93          	addi	x31,x31,-1
    80001ff8:	0010009b          	addiw	x1,x0,1
    80001ffc:	02109093          	slli	x1,x1,0x21
    80002000:	001f8663          	beq	x31,x1,8000200c <rvtest_code_begin+0x1bfc>
    80002004:	000123b7          	lui	x7,0x12
    80002008:	3ab3839b          	addiw	x7,x7,939 # 123ab <offset+0x123ab>
    8000200c:	0072b023          	sd	x7,0(x5)
    80002010:	0000d3b7          	lui	x7,0xd
    80002014:	ccc3839b          	addiw	x7,x7,-820 # cccc <offset+0xcccc>
    80002018:	fff0009b          	addiw	x1,x0,-1
    8000201c:	02009093          	slli	x1,x1,0x20
    80002020:	fff08093          	addi	x1,x1,-1
    80002024:	0010011b          	addiw	x2,x0,1
    80002028:	02011113          	slli	x2,x2,0x20
    8000202c:	00208663          	beq	x1,x2,80002038 <rvtest_code_begin+0x1c28>
    80002030:	000123b7          	lui	x7,0x12
    80002034:	3ab3839b          	addiw	x7,x7,939 # 123ab <offset+0x123ab>
    80002038:	0072b423          	sd	x7,8(x5)
    8000203c:	0080006f          	jal	x0,80002044 <rvtest_code_begin+0x1c34>
    80002040:	02c0006f          	jal	x0,8000206c <rvtest_code_begin+0x1c5c>
    80002044:	0000d3b7          	lui	x7,0xd
    80002048:	ccc3839b          	addiw	x7,x7,-820 # cccc <offset+0xcccc>
    8000204c:	fff0009b          	addiw	x1,x0,-1
    80002050:	02109093          	slli	x1,x1,0x21
    80002054:	fff08093          	addi	x1,x1,-1
    80002058:	0010011b          	addiw	x2,x0,1
    8000205c:	01f11113          	slli	x2,x2,0x1f
    80002060:	fe2080e3          	beq	x1,x2,80002040 <rvtest_code_begin+0x1c30>
    80002064:	000123b7          	lui	x7,0x12
    80002068:	3ab3839b          	addiw	x7,x7,939 # 123ab <offset+0x123ab>
    8000206c:	0072b823          	sd	x7,16(x5)
    80002070:	0000d3b7          	lui	x7,0xd
    80002074:	ccc3839b          	addiw	x7,x7,-820 # cccc <offset+0xcccc>
    80002078:	fff0011b          	addiw	x2,x0,-1
    8000207c:	02211113          	slli	x2,x2,0x22
    80002080:	fff10113          	addi	x2,x2,-1
    80002084:	400001b7          	lui	x3,0x40000
    80002088:	00310663          	beq	x2,x3,80002094 <rvtest_code_begin+0x1c84>
    8000208c:	000123b7          	lui	x7,0x12
    80002090:	3ab3839b          	addiw	x7,x7,939 # 123ab <offset+0x123ab>
    80002094:	0072bc23          	sd	x7,24(x5)
    80002098:	0000d3b7          	lui	x7,0xd
    8000209c:	ccc3839b          	addiw	x7,x7,-820 # cccc <offset+0xcccc>
    800020a0:	fff0019b          	addiw	x3,x0,-1
    800020a4:	02319193          	slli	x3,x3,0x23
    800020a8:	fff18193          	addi	x3,x3,-1 # 3fffffff <offset+0x3fffffff>
    800020ac:	20000237          	lui	x4,0x20000
    800020b0:	00418663          	beq	x3,x4,800020bc <rvtest_code_begin+0x1cac>
    800020b4:	000123b7          	lui	x7,0x12
    800020b8:	3ab3839b          	addiw	x7,x7,939 # 123ab <offset+0x123ab>
    800020bc:	0272b023          	sd	x7,32(x5)
    800020c0:	00003097          	auipc	x1,0x3
    800020c4:	3b008093          	addi	x1,x1,944 # 80005470 <signature_29_0>
    800020c8:	0000d1b7          	lui	x3,0xd
    800020cc:	ccc1819b          	addiw	x3,x3,-820 # cccc <offset+0xcccc>
    800020d0:	fff0021b          	addiw	x4,x0,-1
    800020d4:	02421213          	slli	x4,x4,0x24
    800020d8:	fff20213          	addi	x4,x4,-1 # 1fffffff <offset+0x1fffffff>
    800020dc:	100002b7          	lui	x5,0x10000
    800020e0:	00520663          	beq	x4,x5,800020ec <rvtest_code_begin+0x1cdc>
    800020e4:	000121b7          	lui	x3,0x12
    800020e8:	3ab1819b          	addiw	x3,x3,939 # 123ab <offset+0x123ab>
    800020ec:	0030b023          	sd	x3,0(x1)
    800020f0:	0000d1b7          	lui	x3,0xd
    800020f4:	ccc1819b          	addiw	x3,x3,-820 # cccc <offset+0xcccc>
    800020f8:	fff0029b          	addiw	x5,x0,-1
    800020fc:	02529293          	slli	x5,x5,0x25
    80002100:	fff28293          	addi	x5,x5,-1 # fffffff <offset+0xfffffff>
    80002104:	08000337          	lui	x6,0x8000
    80002108:	00628663          	beq	x5,x6,80002114 <rvtest_code_begin+0x1d04>
    8000210c:	000121b7          	lui	x3,0x12
    80002110:	3ab1819b          	addiw	x3,x3,939 # 123ab <offset+0x123ab>
    80002114:	0030b423          	sd	x3,8(x1)
    80002118:	0080006f          	jal	x0,80002120 <rvtest_code_begin+0x1d10>
    8000211c:	0280006f          	jal	x0,80002144 <rvtest_code_begin+0x1d34>
    80002120:	0000d1b7          	lui	x3,0xd
    80002124:	ccc1819b          	addiw	x3,x3,-820 # cccc <offset+0xcccc>
    80002128:	fff0031b          	addiw	x6,x0,-1
    8000212c:	02631313          	slli	x6,x6,0x26
    80002130:	fff30313          	addi	x6,x6,-1 # 7ffffff <offset+0x7ffffff>
    80002134:	040003b7          	lui	x7,0x4000
    80002138:	fe7302e3          	beq	x6,x7,8000211c <rvtest_code_begin+0x1d0c>
    8000213c:	000121b7          	lui	x3,0x12
    80002140:	3ab1819b          	addiw	x3,x3,939 # 123ab <offset+0x123ab>
    80002144:	0030b823          	sd	x3,16(x1)
    80002148:	0000d1b7          	lui	x3,0xd
    8000214c:	ccc1819b          	addiw	x3,x3,-820 # cccc <offset+0xcccc>
    80002150:	fff0039b          	addiw	x7,x0,-1
    80002154:	02739393          	slli	x7,x7,0x27
    80002158:	fff38393          	addi	x7,x7,-1 # 3ffffff <offset+0x3ffffff>
    8000215c:	02000437          	lui	x8,0x2000
    80002160:	00838663          	beq	x7,x8,8000216c <rvtest_code_begin+0x1d5c>
    80002164:	000121b7          	lui	x3,0x12
    80002168:	3ab1819b          	addiw	x3,x3,939 # 123ab <offset+0x123ab>
    8000216c:	0030bc23          	sd	x3,24(x1)
    80002170:	0000d1b7          	lui	x3,0xd
    80002174:	ccc1819b          	addiw	x3,x3,-820 # cccc <offset+0xcccc>
    80002178:	fff0041b          	addiw	x8,x0,-1
    8000217c:	02841413          	slli	x8,x8,0x28
    80002180:	fff40413          	addi	x8,x8,-1 # 1ffffff <offset+0x1ffffff>
    80002184:	010004b7          	lui	x9,0x1000
    80002188:	00940663          	beq	x8,x9,80002194 <rvtest_code_begin+0x1d84>
    8000218c:	000121b7          	lui	x3,0x12
    80002190:	3ab1819b          	addiw	x3,x3,939 # 123ab <offset+0x123ab>
    80002194:	0230b023          	sd	x3,32(x1)
    80002198:	00003097          	auipc	x1,0x3
    8000219c:	30008093          	addi	x1,x1,768 # 80005498 <signature_30_0>
    800021a0:	0000d1b7          	lui	x3,0xd
    800021a4:	ccc1819b          	addiw	x3,x3,-820 # cccc <offset+0xcccc>
    800021a8:	fff0049b          	addiw	x9,x0,-1
    800021ac:	02949493          	slli	x9,x9,0x29
    800021b0:	fff48493          	addi	x9,x9,-1 # ffffff <offset+0xffffff>
    800021b4:	00800537          	lui	x10,0x800
    800021b8:	00a48663          	beq	x9,x10,800021c4 <rvtest_code_begin+0x1db4>
    800021bc:	000121b7          	lui	x3,0x12
    800021c0:	3ab1819b          	addiw	x3,x3,939 # 123ab <offset+0x123ab>
    800021c4:	0030b023          	sd	x3,0(x1)
    800021c8:	0000d1b7          	lui	x3,0xd
    800021cc:	ccc1819b          	addiw	x3,x3,-820 # cccc <offset+0xcccc>
    800021d0:	fff0051b          	addiw	x10,x0,-1
    800021d4:	02a51513          	slli	x10,x10,0x2a
    800021d8:	fff50513          	addi	x10,x10,-1 # 7fffff <offset+0x7fffff>
    800021dc:	004005b7          	lui	x11,0x400
    800021e0:	00b50663          	beq	x10,x11,800021ec <rvtest_code_begin+0x1ddc>
    800021e4:	000121b7          	lui	x3,0x12
    800021e8:	3ab1819b          	addiw	x3,x3,939 # 123ab <offset+0x123ab>
    800021ec:	0030b423          	sd	x3,8(x1)
    800021f0:	0080006f          	jal	x0,800021f8 <rvtest_code_begin+0x1de8>
    800021f4:	0280006f          	jal	x0,8000221c <rvtest_code_begin+0x1e0c>
    800021f8:	0000d1b7          	lui	x3,0xd
    800021fc:	ccc1819b          	addiw	x3,x3,-820 # cccc <offset+0xcccc>
    80002200:	fff0059b          	addiw	x11,x0,-1
    80002204:	02b59593          	slli	x11,x11,0x2b
    80002208:	fff58593          	addi	x11,x11,-1 # 3fffff <offset+0x3fffff>
    8000220c:	00200637          	lui	x12,0x200
    80002210:	fec582e3          	beq	x11,x12,800021f4 <rvtest_code_begin+0x1de4>
    80002214:	000121b7          	lui	x3,0x12
    80002218:	3ab1819b          	addiw	x3,x3,939 # 123ab <offset+0x123ab>
    8000221c:	0030b823          	sd	x3,16(x1)
    80002220:	0000d1b7          	lui	x3,0xd
    80002224:	ccc1819b          	addiw	x3,x3,-820 # cccc <offset+0xcccc>
    80002228:	fff0061b          	addiw	x12,x0,-1
    8000222c:	02c61613          	slli	x12,x12,0x2c
    80002230:	fff60613          	addi	x12,x12,-1 # 1fffff <offset+0x1fffff>
    80002234:	001006b7          	lui	x13,0x100
    80002238:	00d60663          	beq	x12,x13,80002244 <rvtest_code_begin+0x1e34>
    8000223c:	000121b7          	lui	x3,0x12
    80002240:	3ab1819b          	addiw	x3,x3,939 # 123ab <offset+0x123ab>
    80002244:	0030bc23          	sd	x3,24(x1)
    80002248:	0000d1b7          	lui	x3,0xd
    8000224c:	ccc1819b          	addiw	x3,x3,-820 # cccc <offset+0xcccc>
    80002250:	fff0069b          	addiw	x13,x0,-1
    80002254:	02d69693          	slli	x13,x13,0x2d
    80002258:	fff68693          	addi	x13,x13,-1 # fffff <offset+0xfffff>
    8000225c:	00080737          	lui	x14,0x80
    80002260:	00e68663          	beq	x13,x14,8000226c <rvtest_code_begin+0x1e5c>
    80002264:	000121b7          	lui	x3,0x12
    80002268:	3ab1819b          	addiw	x3,x3,939 # 123ab <offset+0x123ab>
    8000226c:	0230b023          	sd	x3,32(x1)
    80002270:	00003097          	auipc	x1,0x3
    80002274:	25008093          	addi	x1,x1,592 # 800054c0 <signature_31_0>
    80002278:	0000d1b7          	lui	x3,0xd
    8000227c:	ccc1819b          	addiw	x3,x3,-820 # cccc <offset+0xcccc>
    80002280:	fff0071b          	addiw	x14,x0,-1
    80002284:	02e71713          	slli	x14,x14,0x2e
    80002288:	fff70713          	addi	x14,x14,-1 # 7ffff <offset+0x7ffff>
    8000228c:	000407b7          	lui	x15,0x40
    80002290:	00f70663          	beq	x14,x15,8000229c <rvtest_code_begin+0x1e8c>
    80002294:	000121b7          	lui	x3,0x12
    80002298:	3ab1819b          	addiw	x3,x3,939 # 123ab <offset+0x123ab>
    8000229c:	0030b023          	sd	x3,0(x1)
    800022a0:	0000d1b7          	lui	x3,0xd
    800022a4:	ccc1819b          	addiw	x3,x3,-820 # cccc <offset+0xcccc>
    800022a8:	fff0079b          	addiw	x15,x0,-1
    800022ac:	02f79793          	slli	x15,x15,0x2f
    800022b0:	fff78793          	addi	x15,x15,-1 # 3ffff <offset+0x3ffff>
    800022b4:	00020837          	lui	x16,0x20
    800022b8:	01078663          	beq	x15,x16,800022c4 <rvtest_code_begin+0x1eb4>
    800022bc:	000121b7          	lui	x3,0x12
    800022c0:	3ab1819b          	addiw	x3,x3,939 # 123ab <offset+0x123ab>
    800022c4:	0030b423          	sd	x3,8(x1)
    800022c8:	0080006f          	jal	x0,800022d0 <rvtest_code_begin+0x1ec0>
    800022cc:	0280006f          	jal	x0,800022f4 <rvtest_code_begin+0x1ee4>
    800022d0:	0000d1b7          	lui	x3,0xd
    800022d4:	ccc1819b          	addiw	x3,x3,-820 # cccc <offset+0xcccc>
    800022d8:	fff0081b          	addiw	x16,x0,-1
    800022dc:	03081813          	slli	x16,x16,0x30
    800022e0:	fff80813          	addi	x16,x16,-1 # 1ffff <offset+0x1ffff>
    800022e4:	000108b7          	lui	x17,0x10
    800022e8:	ff1802e3          	beq	x16,x17,800022cc <rvtest_code_begin+0x1ebc>
    800022ec:	000121b7          	lui	x3,0x12
    800022f0:	3ab1819b          	addiw	x3,x3,939 # 123ab <offset+0x123ab>
    800022f4:	0030b823          	sd	x3,16(x1)
    800022f8:	0000d1b7          	lui	x3,0xd
    800022fc:	ccc1819b          	addiw	x3,x3,-820 # cccc <offset+0xcccc>
    80002300:	fff0089b          	addiw	x17,x0,-1
    80002304:	03189893          	slli	x17,x17,0x31
    80002308:	fff88893          	addi	x17,x17,-1 # ffff <offset+0xffff>
    8000230c:	00008937          	lui	x18,0x8
    80002310:	01288663          	beq	x17,x18,8000231c <rvtest_code_begin+0x1f0c>
    80002314:	000121b7          	lui	x3,0x12
    80002318:	3ab1819b          	addiw	x3,x3,939 # 123ab <offset+0x123ab>
    8000231c:	0030bc23          	sd	x3,24(x1)
    80002320:	0000d1b7          	lui	x3,0xd
    80002324:	ccc1819b          	addiw	x3,x3,-820 # cccc <offset+0xcccc>
    80002328:	fff0091b          	addiw	x18,x0,-1
    8000232c:	03291913          	slli	x18,x18,0x32
    80002330:	fff90913          	addi	x18,x18,-1 # 7fff <offset+0x7fff>
    80002334:	000049b7          	lui	x19,0x4
    80002338:	01390663          	beq	x18,x19,80002344 <rvtest_code_begin+0x1f34>
    8000233c:	000121b7          	lui	x3,0x12
    80002340:	3ab1819b          	addiw	x3,x3,939 # 123ab <offset+0x123ab>
    80002344:	0230b023          	sd	x3,32(x1)
    80002348:	00003097          	auipc	x1,0x3
    8000234c:	1a008093          	addi	x1,x1,416 # 800054e8 <signature_32_0>
    80002350:	0000d1b7          	lui	x3,0xd
    80002354:	ccc1819b          	addiw	x3,x3,-820 # cccc <offset+0xcccc>
    80002358:	fff0099b          	addiw	x19,x0,-1
    8000235c:	03399993          	slli	x19,x19,0x33
    80002360:	fff98993          	addi	x19,x19,-1 # 3fff <offset+0x3fff>
    80002364:	00002a37          	lui	x20,0x2
    80002368:	01498663          	beq	x19,x20,80002374 <rvtest_code_begin+0x1f64>
    8000236c:	000121b7          	lui	x3,0x12
    80002370:	3ab1819b          	addiw	x3,x3,939 # 123ab <offset+0x123ab>
    80002374:	0030b023          	sd	x3,0(x1)
    80002378:	0000d1b7          	lui	x3,0xd
    8000237c:	ccc1819b          	addiw	x3,x3,-820 # cccc <offset+0xcccc>
    80002380:	fff00a1b          	addiw	x20,x0,-1
    80002384:	034a1a13          	slli	x20,x20,0x34
    80002388:	fffa0a13          	addi	x20,x20,-1 # 1fff <offset+0x1fff>
    8000238c:	00001ab7          	lui	x21,0x1
    80002390:	015a0663          	beq	x20,x21,8000239c <rvtest_code_begin+0x1f8c>
    80002394:	000121b7          	lui	x3,0x12
    80002398:	3ab1819b          	addiw	x3,x3,939 # 123ab <offset+0x123ab>
    8000239c:	0030b423          	sd	x3,8(x1)
    800023a0:	0080006f          	jal	x0,800023a8 <rvtest_code_begin+0x1f98>
    800023a4:	02c0006f          	jal	x0,800023d0 <rvtest_code_begin+0x1fc0>
    800023a8:	0000d1b7          	lui	x3,0xd
    800023ac:	ccc1819b          	addiw	x3,x3,-820 # cccc <offset+0xcccc>
    800023b0:	fff00a9b          	addiw	x21,x0,-1
    800023b4:	035a9a93          	slli	x21,x21,0x35
    800023b8:	fffa8a93          	addi	x21,x21,-1 # fff <offset+0xfff>
    800023bc:	00001b37          	lui	x22,0x1
    800023c0:	800b0b1b          	addiw	x22,x22,-2048 # 800 <offset+0x800>
    800023c4:	ff6a80e3          	beq	x21,x22,800023a4 <rvtest_code_begin+0x1f94>
    800023c8:	000121b7          	lui	x3,0x12
    800023cc:	3ab1819b          	addiw	x3,x3,939 # 123ab <offset+0x123ab>
    800023d0:	0030b823          	sd	x3,16(x1)
    800023d4:	0000d1b7          	lui	x3,0xd
    800023d8:	ccc1819b          	addiw	x3,x3,-820 # cccc <offset+0xcccc>
    800023dc:	fff00b1b          	addiw	x22,x0,-1
    800023e0:	036b1b13          	slli	x22,x22,0x36
    800023e4:	fffb0b13          	addi	x22,x22,-1
    800023e8:	40000b93          	addi	x23,x0,1024
    800023ec:	017b0663          	beq	x22,x23,800023f8 <rvtest_code_begin+0x1fe8>
    800023f0:	000121b7          	lui	x3,0x12
    800023f4:	3ab1819b          	addiw	x3,x3,939 # 123ab <offset+0x123ab>
    800023f8:	0030bc23          	sd	x3,24(x1)
    800023fc:	0000d1b7          	lui	x3,0xd
    80002400:	ccc1819b          	addiw	x3,x3,-820 # cccc <offset+0xcccc>
    80002404:	fff00b9b          	addiw	x23,x0,-1
    80002408:	037b9b93          	slli	x23,x23,0x37
    8000240c:	fffb8b93          	addi	x23,x23,-1
    80002410:	20000c13          	addi	x24,x0,512
    80002414:	018b8663          	beq	x23,x24,80002420 <rvtest_code_begin+0x2010>
    80002418:	000121b7          	lui	x3,0x12
    8000241c:	3ab1819b          	addiw	x3,x3,939 # 123ab <offset+0x123ab>
    80002420:	0230b023          	sd	x3,32(x1)
    80002424:	00003097          	auipc	x1,0x3
    80002428:	0ec08093          	addi	x1,x1,236 # 80005510 <signature_33_0>
    8000242c:	0000d1b7          	lui	x3,0xd
    80002430:	ccc1819b          	addiw	x3,x3,-820 # cccc <offset+0xcccc>
    80002434:	fff00c1b          	addiw	x24,x0,-1
    80002438:	038c1c13          	slli	x24,x24,0x38
    8000243c:	fffc0c13          	addi	x24,x24,-1
    80002440:	10000c93          	addi	x25,x0,256
    80002444:	019c0663          	beq	x24,x25,80002450 <rvtest_code_begin+0x2040>
    80002448:	000121b7          	lui	x3,0x12
    8000244c:	3ab1819b          	addiw	x3,x3,939 # 123ab <offset+0x123ab>
    80002450:	0030b023          	sd	x3,0(x1)
    80002454:	0000d1b7          	lui	x3,0xd
    80002458:	ccc1819b          	addiw	x3,x3,-820 # cccc <offset+0xcccc>
    8000245c:	fff00c9b          	addiw	x25,x0,-1
    80002460:	039c9c93          	slli	x25,x25,0x39
    80002464:	fffc8c93          	addi	x25,x25,-1
    80002468:	08000d13          	addi	x26,x0,128
    8000246c:	01ac8663          	beq	x25,x26,80002478 <rvtest_code_begin+0x2068>
    80002470:	000121b7          	lui	x3,0x12
    80002474:	3ab1819b          	addiw	x3,x3,939 # 123ab <offset+0x123ab>
    80002478:	0030b423          	sd	x3,8(x1)
    8000247c:	0080006f          	jal	x0,80002484 <rvtest_code_begin+0x2074>
    80002480:	0280006f          	jal	x0,800024a8 <rvtest_code_begin+0x2098>
    80002484:	0000d1b7          	lui	x3,0xd
    80002488:	ccc1819b          	addiw	x3,x3,-820 # cccc <offset+0xcccc>
    8000248c:	fff00d1b          	addiw	x26,x0,-1
    80002490:	03ad1d13          	slli	x26,x26,0x3a
    80002494:	fffd0d13          	addi	x26,x26,-1
    80002498:	04000d93          	addi	x27,x0,64
    8000249c:	ffbd02e3          	beq	x26,x27,80002480 <rvtest_code_begin+0x2070>
    800024a0:	000121b7          	lui	x3,0x12
    800024a4:	3ab1819b          	addiw	x3,x3,939 # 123ab <offset+0x123ab>
    800024a8:	0030b823          	sd	x3,16(x1)
    800024ac:	0000d1b7          	lui	x3,0xd
    800024b0:	ccc1819b          	addiw	x3,x3,-820 # cccc <offset+0xcccc>
    800024b4:	fff00d9b          	addiw	x27,x0,-1
    800024b8:	03bd9d93          	slli	x27,x27,0x3b
    800024bc:	fffd8d93          	addi	x27,x27,-1
    800024c0:	02000e13          	addi	x28,x0,32
    800024c4:	01cd8663          	beq	x27,x28,800024d0 <rvtest_code_begin+0x20c0>
    800024c8:	000121b7          	lui	x3,0x12
    800024cc:	3ab1819b          	addiw	x3,x3,939 # 123ab <offset+0x123ab>
    800024d0:	0030bc23          	sd	x3,24(x1)
    800024d4:	0000d1b7          	lui	x3,0xd
    800024d8:	ccc1819b          	addiw	x3,x3,-820 # cccc <offset+0xcccc>
    800024dc:	fff00e1b          	addiw	x28,x0,-1
    800024e0:	03ce1e13          	slli	x28,x28,0x3c
    800024e4:	fffe0e13          	addi	x28,x28,-1
    800024e8:	01000e93          	addi	x29,x0,16
    800024ec:	01de0663          	beq	x28,x29,800024f8 <rvtest_code_begin+0x20e8>
    800024f0:	000121b7          	lui	x3,0x12
    800024f4:	3ab1819b          	addiw	x3,x3,939 # 123ab <offset+0x123ab>
    800024f8:	0230b023          	sd	x3,32(x1)
    800024fc:	00003197          	auipc	x3,0x3
    80002500:	03c18193          	addi	x3,x3,60 # 80005538 <signature_34_0>
    80002504:	0000d2b7          	lui	x5,0xd
    80002508:	ccc2829b          	addiw	x5,x5,-820 # cccc <offset+0xcccc>
    8000250c:	fff00e9b          	addiw	x29,x0,-1
    80002510:	03de9e93          	slli	x29,x29,0x3d
    80002514:	fffe8e93          	addi	x29,x29,-1
    80002518:	00800f13          	addi	x30,x0,8
    8000251c:	01ee8663          	beq	x29,x30,80002528 <rvtest_code_begin+0x2118>
    80002520:	000122b7          	lui	x5,0x12
    80002524:	3ab2829b          	addiw	x5,x5,939 # 123ab <offset+0x123ab>
    80002528:	0051b023          	sd	x5,0(x3)
    8000252c:	0000d2b7          	lui	x5,0xd
    80002530:	ccc2829b          	addiw	x5,x5,-820 # cccc <offset+0xcccc>
    80002534:	fff00f1b          	addiw	x30,x0,-1
    80002538:	03ef1f13          	slli	x30,x30,0x3e
    8000253c:	ffff0f13          	addi	x30,x30,-1
    80002540:	00400f93          	addi	x31,x0,4
    80002544:	01ff0663          	beq	x30,x31,80002550 <rvtest_code_begin+0x2140>
    80002548:	000122b7          	lui	x5,0x12
    8000254c:	3ab2829b          	addiw	x5,x5,939 # 123ab <offset+0x123ab>
    80002550:	0051b423          	sd	x5,8(x3)
    80002554:	0080006f          	jal	x0,8000255c <rvtest_code_begin+0x214c>
    80002558:	0280006f          	jal	x0,80002580 <rvtest_code_begin+0x2170>
    8000255c:	0000d2b7          	lui	x5,0xd
    80002560:	ccc2829b          	addiw	x5,x5,-820 # cccc <offset+0xcccc>
    80002564:	fff00f9b          	addiw	x31,x0,-1
    80002568:	03ff9f93          	slli	x31,x31,0x3f
    8000256c:	ffff8f93          	addi	x31,x31,-1
    80002570:	00200093          	addi	x1,x0,2
    80002574:	fe1f82e3          	beq	x31,x1,80002558 <rvtest_code_begin+0x2148>
    80002578:	000122b7          	lui	x5,0x12
    8000257c:	3ab2829b          	addiw	x5,x5,939 # 123ab <offset+0x123ab>
    80002580:	0051b823          	sd	x5,16(x3)
    80002584:	0000d2b7          	lui	x5,0xd
    80002588:	ccc2829b          	addiw	x5,x5,-820 # cccc <offset+0xcccc>
    8000258c:	00100093          	addi	x1,x0,1
    80002590:	00000113          	addi	x2,x0,0
    80002594:	00208663          	beq	x1,x2,800025a0 <rvtest_code_begin+0x2190>
    80002598:	000122b7          	lui	x5,0x12
    8000259c:	3ab2829b          	addiw	x5,x5,939 # 123ab <offset+0x123ab>
    800025a0:	0051bc23          	sd	x5,24(x3)
    800025a4:	0000d2b7          	lui	x5,0xd
    800025a8:	ccc2829b          	addiw	x5,x5,-820 # cccc <offset+0xcccc>
    800025ac:	00200093          	addi	x1,x0,2
    800025b0:	00000113          	addi	x2,x0,0
    800025b4:	00208663          	beq	x1,x2,800025c0 <rvtest_code_begin+0x21b0>
    800025b8:	000122b7          	lui	x5,0x12
    800025bc:	3ab2829b          	addiw	x5,x5,939 # 123ab <offset+0x123ab>
    800025c0:	0251b023          	sd	x5,32(x3)
    800025c4:	00003097          	auipc	x1,0x3
    800025c8:	f9c08093          	addi	x1,x1,-100 # 80005560 <signature_35_0>
    800025cc:	0000d4b7          	lui	x9,0xd
    800025d0:	ccc4849b          	addiw	x9,x9,-820 # cccc <offset+0xcccc>
    800025d4:	00400113          	addi	x2,x0,4
    800025d8:	00000193          	addi	x3,x0,0
    800025dc:	00310663          	beq	x2,x3,800025e8 <rvtest_code_begin+0x21d8>
    800025e0:	000124b7          	lui	x9,0x12
    800025e4:	3ab4849b          	addiw	x9,x9,939 # 123ab <offset+0x123ab>
    800025e8:	0090b023          	sd	x9,0(x1)
    800025ec:	0000d4b7          	lui	x9,0xd
    800025f0:	ccc4849b          	addiw	x9,x9,-820 # cccc <offset+0xcccc>
    800025f4:	00800193          	addi	x3,x0,8
    800025f8:	00000213          	addi	x4,x0,0
    800025fc:	00418663          	beq	x3,x4,80002608 <rvtest_code_begin+0x21f8>
    80002600:	000124b7          	lui	x9,0x12
    80002604:	3ab4849b          	addiw	x9,x9,939 # 123ab <offset+0x123ab>
    80002608:	0090b423          	sd	x9,8(x1)
    8000260c:	0080006f          	jal	x0,80002614 <rvtest_code_begin+0x2204>
    80002610:	0200006f          	jal	x0,80002630 <rvtest_code_begin+0x2220>
    80002614:	0000d4b7          	lui	x9,0xd
    80002618:	ccc4849b          	addiw	x9,x9,-820 # cccc <offset+0xcccc>
    8000261c:	01000213          	addi	x4,x0,16
    80002620:	00000293          	addi	x5,x0,0
    80002624:	fe5206e3          	beq	x4,x5,80002610 <rvtest_code_begin+0x2200>
    80002628:	000124b7          	lui	x9,0x12
    8000262c:	3ab4849b          	addiw	x9,x9,939 # 123ab <offset+0x123ab>
    80002630:	0090b823          	sd	x9,16(x1)
    80002634:	0000d4b7          	lui	x9,0xd
    80002638:	ccc4849b          	addiw	x9,x9,-820 # cccc <offset+0xcccc>
    8000263c:	02000293          	addi	x5,x0,32
    80002640:	00000313          	addi	x6,x0,0
    80002644:	00628663          	beq	x5,x6,80002650 <rvtest_code_begin+0x2240>
    80002648:	000124b7          	lui	x9,0x12
    8000264c:	3ab4849b          	addiw	x9,x9,939 # 123ab <offset+0x123ab>
    80002650:	0090bc23          	sd	x9,24(x1)
    80002654:	0000d4b7          	lui	x9,0xd
    80002658:	ccc4849b          	addiw	x9,x9,-820 # cccc <offset+0xcccc>
    8000265c:	04000313          	addi	x6,x0,64
    80002660:	00000393          	addi	x7,x0,0
    80002664:	00730663          	beq	x6,x7,80002670 <rvtest_code_begin+0x2260>
    80002668:	000124b7          	lui	x9,0x12
    8000266c:	3ab4849b          	addiw	x9,x9,939 # 123ab <offset+0x123ab>
    80002670:	0290b023          	sd	x9,32(x1)
    80002674:	00003097          	auipc	x1,0x3
    80002678:	f1408093          	addi	x1,x1,-236 # 80005588 <signature_36_0>
    8000267c:	0000d1b7          	lui	x3,0xd
    80002680:	ccc1819b          	addiw	x3,x3,-820 # cccc <offset+0xcccc>
    80002684:	08000393          	addi	x7,x0,128
    80002688:	00000413          	addi	x8,x0,0
    8000268c:	00838663          	beq	x7,x8,80002698 <rvtest_code_begin+0x2288>
    80002690:	000121b7          	lui	x3,0x12
    80002694:	3ab1819b          	addiw	x3,x3,939 # 123ab <offset+0x123ab>
    80002698:	0030b023          	sd	x3,0(x1)
    8000269c:	0000d1b7          	lui	x3,0xd
    800026a0:	ccc1819b          	addiw	x3,x3,-820 # cccc <offset+0xcccc>
    800026a4:	10000413          	addi	x8,x0,256
    800026a8:	00000493          	addi	x9,x0,0
    800026ac:	00940663          	beq	x8,x9,800026b8 <rvtest_code_begin+0x22a8>
    800026b0:	000121b7          	lui	x3,0x12
    800026b4:	3ab1819b          	addiw	x3,x3,939 # 123ab <offset+0x123ab>
    800026b8:	0030b423          	sd	x3,8(x1)
    800026bc:	0080006f          	jal	x0,800026c4 <rvtest_code_begin+0x22b4>
    800026c0:	0200006f          	jal	x0,800026e0 <rvtest_code_begin+0x22d0>
    800026c4:	0000d1b7          	lui	x3,0xd
    800026c8:	ccc1819b          	addiw	x3,x3,-820 # cccc <offset+0xcccc>
    800026cc:	20000493          	addi	x9,x0,512
    800026d0:	00000513          	addi	x10,x0,0
    800026d4:	fea486e3          	beq	x9,x10,800026c0 <rvtest_code_begin+0x22b0>
    800026d8:	000121b7          	lui	x3,0x12
    800026dc:	3ab1819b          	addiw	x3,x3,939 # 123ab <offset+0x123ab>
    800026e0:	0030b823          	sd	x3,16(x1)
    800026e4:	0000d1b7          	lui	x3,0xd
    800026e8:	ccc1819b          	addiw	x3,x3,-820 # cccc <offset+0xcccc>
    800026ec:	40000513          	addi	x10,x0,1024
    800026f0:	00000593          	addi	x11,x0,0
    800026f4:	00b50663          	beq	x10,x11,80002700 <rvtest_code_begin+0x22f0>
    800026f8:	000121b7          	lui	x3,0x12
    800026fc:	3ab1819b          	addiw	x3,x3,939 # 123ab <offset+0x123ab>
    80002700:	0030bc23          	sd	x3,24(x1)
    80002704:	0000d1b7          	lui	x3,0xd
    80002708:	ccc1819b          	addiw	x3,x3,-820 # cccc <offset+0xcccc>
    8000270c:	000015b7          	lui	x11,0x1
    80002710:	8005859b          	addiw	x11,x11,-2048 # 800 <offset+0x800>
    80002714:	00000613          	addi	x12,x0,0
    80002718:	00c58663          	beq	x11,x12,80002724 <rvtest_code_begin+0x2314>
    8000271c:	000121b7          	lui	x3,0x12
    80002720:	3ab1819b          	addiw	x3,x3,939 # 123ab <offset+0x123ab>
    80002724:	0230b023          	sd	x3,32(x1)
    80002728:	00003097          	auipc	x1,0x3
    8000272c:	e8808093          	addi	x1,x1,-376 # 800055b0 <signature_37_0>
    80002730:	0000d1b7          	lui	x3,0xd
    80002734:	ccc1819b          	addiw	x3,x3,-820 # cccc <offset+0xcccc>
    80002738:	00001637          	lui	x12,0x1
    8000273c:	00000693          	addi	x13,x0,0
    80002740:	00d60663          	beq	x12,x13,8000274c <rvtest_code_begin+0x233c>
    80002744:	000121b7          	lui	x3,0x12
    80002748:	3ab1819b          	addiw	x3,x3,939 # 123ab <offset+0x123ab>
    8000274c:	0030b023          	sd	x3,0(x1)
    80002750:	0000d1b7          	lui	x3,0xd
    80002754:	ccc1819b          	addiw	x3,x3,-820 # cccc <offset+0xcccc>
    80002758:	000026b7          	lui	x13,0x2
    8000275c:	00000713          	addi	x14,x0,0
    80002760:	00e68663          	beq	x13,x14,8000276c <rvtest_code_begin+0x235c>
    80002764:	000121b7          	lui	x3,0x12
    80002768:	3ab1819b          	addiw	x3,x3,939 # 123ab <offset+0x123ab>
    8000276c:	0030b423          	sd	x3,8(x1)
    80002770:	0080006f          	jal	x0,80002778 <rvtest_code_begin+0x2368>
    80002774:	0200006f          	jal	x0,80002794 <rvtest_code_begin+0x2384>
    80002778:	0000d1b7          	lui	x3,0xd
    8000277c:	ccc1819b          	addiw	x3,x3,-820 # cccc <offset+0xcccc>
    80002780:	00004737          	lui	x14,0x4
    80002784:	00000793          	addi	x15,x0,0
    80002788:	fef706e3          	beq	x14,x15,80002774 <rvtest_code_begin+0x2364>
    8000278c:	000121b7          	lui	x3,0x12
    80002790:	3ab1819b          	addiw	x3,x3,939 # 123ab <offset+0x123ab>
    80002794:	0030b823          	sd	x3,16(x1)
    80002798:	0000d1b7          	lui	x3,0xd
    8000279c:	ccc1819b          	addiw	x3,x3,-820 # cccc <offset+0xcccc>
    800027a0:	000087b7          	lui	x15,0x8
    800027a4:	00000813          	addi	x16,x0,0
    800027a8:	01078663          	beq	x15,x16,800027b4 <rvtest_code_begin+0x23a4>
    800027ac:	000121b7          	lui	x3,0x12
    800027b0:	3ab1819b          	addiw	x3,x3,939 # 123ab <offset+0x123ab>
    800027b4:	0030bc23          	sd	x3,24(x1)
    800027b8:	0000d1b7          	lui	x3,0xd
    800027bc:	ccc1819b          	addiw	x3,x3,-820 # cccc <offset+0xcccc>
    800027c0:	00010837          	lui	x16,0x10
    800027c4:	00000893          	addi	x17,x0,0
    800027c8:	01180663          	beq	x16,x17,800027d4 <rvtest_code_begin+0x23c4>
    800027cc:	000121b7          	lui	x3,0x12
    800027d0:	3ab1819b          	addiw	x3,x3,939 # 123ab <offset+0x123ab>
    800027d4:	0230b023          	sd	x3,32(x1)
    800027d8:	00003097          	auipc	x1,0x3
    800027dc:	e0008093          	addi	x1,x1,-512 # 800055d8 <signature_38_0>
    800027e0:	0000d1b7          	lui	x3,0xd
    800027e4:	ccc1819b          	addiw	x3,x3,-820 # cccc <offset+0xcccc>
    800027e8:	000208b7          	lui	x17,0x20
    800027ec:	00000913          	addi	x18,x0,0
    800027f0:	01288663          	beq	x17,x18,800027fc <rvtest_code_begin+0x23ec>
    800027f4:	000121b7          	lui	x3,0x12
    800027f8:	3ab1819b          	addiw	x3,x3,939 # 123ab <offset+0x123ab>
    800027fc:	0030b023          	sd	x3,0(x1)
    80002800:	0000d1b7          	lui	x3,0xd
    80002804:	ccc1819b          	addiw	x3,x3,-820 # cccc <offset+0xcccc>
    80002808:	00040937          	lui	x18,0x40
    8000280c:	00000993          	addi	x19,x0,0
    80002810:	01390663          	beq	x18,x19,8000281c <rvtest_code_begin+0x240c>
    80002814:	000121b7          	lui	x3,0x12
    80002818:	3ab1819b          	addiw	x3,x3,939 # 123ab <offset+0x123ab>
    8000281c:	0030b423          	sd	x3,8(x1)
    80002820:	0080006f          	jal	x0,80002828 <rvtest_code_begin+0x2418>
    80002824:	0200006f          	jal	x0,80002844 <rvtest_code_begin+0x2434>
    80002828:	0000d1b7          	lui	x3,0xd
    8000282c:	ccc1819b          	addiw	x3,x3,-820 # cccc <offset+0xcccc>
    80002830:	000809b7          	lui	x19,0x80
    80002834:	00000a13          	addi	x20,x0,0
    80002838:	ff4986e3          	beq	x19,x20,80002824 <rvtest_code_begin+0x2414>
    8000283c:	000121b7          	lui	x3,0x12
    80002840:	3ab1819b          	addiw	x3,x3,939 # 123ab <offset+0x123ab>
    80002844:	0030b823          	sd	x3,16(x1)
    80002848:	0000d1b7          	lui	x3,0xd
    8000284c:	ccc1819b          	addiw	x3,x3,-820 # cccc <offset+0xcccc>
    80002850:	00100a37          	lui	x20,0x100
    80002854:	00000a93          	addi	x21,x0,0
    80002858:	015a0663          	beq	x20,x21,80002864 <rvtest_code_begin+0x2454>
    8000285c:	000121b7          	lui	x3,0x12
    80002860:	3ab1819b          	addiw	x3,x3,939 # 123ab <offset+0x123ab>
    80002864:	0030bc23          	sd	x3,24(x1)
    80002868:	0000d1b7          	lui	x3,0xd
    8000286c:	ccc1819b          	addiw	x3,x3,-820 # cccc <offset+0xcccc>
    80002870:	00200ab7          	lui	x21,0x200
    80002874:	00000b13          	addi	x22,x0,0
    80002878:	016a8663          	beq	x21,x22,80002884 <rvtest_code_begin+0x2474>
    8000287c:	000121b7          	lui	x3,0x12
    80002880:	3ab1819b          	addiw	x3,x3,939 # 123ab <offset+0x123ab>
    80002884:	0230b023          	sd	x3,32(x1)
    80002888:	00003097          	auipc	x1,0x3
    8000288c:	d7808093          	addi	x1,x1,-648 # 80005600 <signature_39_0>
    80002890:	0000d1b7          	lui	x3,0xd
    80002894:	ccc1819b          	addiw	x3,x3,-820 # cccc <offset+0xcccc>
    80002898:	00400b37          	lui	x22,0x400
    8000289c:	00000b93          	addi	x23,x0,0
    800028a0:	017b0663          	beq	x22,x23,800028ac <rvtest_code_begin+0x249c>
    800028a4:	000121b7          	lui	x3,0x12
    800028a8:	3ab1819b          	addiw	x3,x3,939 # 123ab <offset+0x123ab>
    800028ac:	0030b023          	sd	x3,0(x1)
    800028b0:	0000d1b7          	lui	x3,0xd
    800028b4:	ccc1819b          	addiw	x3,x3,-820 # cccc <offset+0xcccc>
    800028b8:	00800bb7          	lui	x23,0x800
    800028bc:	00000c13          	addi	x24,x0,0
    800028c0:	018b8663          	beq	x23,x24,800028cc <rvtest_code_begin+0x24bc>
    800028c4:	000121b7          	lui	x3,0x12
    800028c8:	3ab1819b          	addiw	x3,x3,939 # 123ab <offset+0x123ab>
    800028cc:	0030b423          	sd	x3,8(x1)
    800028d0:	0080006f          	jal	x0,800028d8 <rvtest_code_begin+0x24c8>
    800028d4:	0200006f          	jal	x0,800028f4 <rvtest_code_begin+0x24e4>
    800028d8:	0000d1b7          	lui	x3,0xd
    800028dc:	ccc1819b          	addiw	x3,x3,-820 # cccc <offset+0xcccc>
    800028e0:	01000c37          	lui	x24,0x1000
    800028e4:	00000c93          	addi	x25,x0,0
    800028e8:	ff9c06e3          	beq	x24,x25,800028d4 <rvtest_code_begin+0x24c4>
    800028ec:	000121b7          	lui	x3,0x12
    800028f0:	3ab1819b          	addiw	x3,x3,939 # 123ab <offset+0x123ab>
    800028f4:	0030b823          	sd	x3,16(x1)
    800028f8:	0000d1b7          	lui	x3,0xd
    800028fc:	ccc1819b          	addiw	x3,x3,-820 # cccc <offset+0xcccc>
    80002900:	02000cb7          	lui	x25,0x2000
    80002904:	00000d13          	addi	x26,x0,0
    80002908:	01ac8663          	beq	x25,x26,80002914 <rvtest_code_begin+0x2504>
    8000290c:	000121b7          	lui	x3,0x12
    80002910:	3ab1819b          	addiw	x3,x3,939 # 123ab <offset+0x123ab>
    80002914:	0030bc23          	sd	x3,24(x1)
    80002918:	0000d1b7          	lui	x3,0xd
    8000291c:	ccc1819b          	addiw	x3,x3,-820 # cccc <offset+0xcccc>
    80002920:	04000d37          	lui	x26,0x4000
    80002924:	00000d93          	addi	x27,x0,0
    80002928:	01bd0663          	beq	x26,x27,80002934 <rvtest_code_begin+0x2524>
    8000292c:	000121b7          	lui	x3,0x12
    80002930:	3ab1819b          	addiw	x3,x3,939 # 123ab <offset+0x123ab>
    80002934:	0230b023          	sd	x3,32(x1)
    80002938:	00003117          	auipc	x2,0x3
    8000293c:	cf010113          	addi	x2,x2,-784 # 80005628 <signature_40_0>
    80002940:	0000d237          	lui	x4,0xd
    80002944:	ccc2021b          	addiw	x4,x4,-820 # cccc <offset+0xcccc>
    80002948:	08000db7          	lui	x27,0x8000
    8000294c:	00000e13          	addi	x28,x0,0
    80002950:	01cd8663          	beq	x27,x28,8000295c <rvtest_code_begin+0x254c>
    80002954:	00012237          	lui	x4,0x12
    80002958:	3ab2021b          	addiw	x4,x4,939 # 123ab <offset+0x123ab>
    8000295c:	00413023          	sd	x4,0(x2)
    80002960:	0000d237          	lui	x4,0xd
    80002964:	ccc2021b          	addiw	x4,x4,-820 # cccc <offset+0xcccc>
    80002968:	10000e37          	lui	x28,0x10000
    8000296c:	00000e93          	addi	x29,x0,0
    80002970:	01de0663          	beq	x28,x29,8000297c <rvtest_code_begin+0x256c>
    80002974:	00012237          	lui	x4,0x12
    80002978:	3ab2021b          	addiw	x4,x4,939 # 123ab <offset+0x123ab>
    8000297c:	00413423          	sd	x4,8(x2)
    80002980:	0080006f          	jal	x0,80002988 <rvtest_code_begin+0x2578>
    80002984:	0200006f          	jal	x0,800029a4 <rvtest_code_begin+0x2594>
    80002988:	0000d237          	lui	x4,0xd
    8000298c:	ccc2021b          	addiw	x4,x4,-820 # cccc <offset+0xcccc>
    80002990:	20000eb7          	lui	x29,0x20000
    80002994:	00000f13          	addi	x30,x0,0
    80002998:	ffee86e3          	beq	x29,x30,80002984 <rvtest_code_begin+0x2574>
    8000299c:	00012237          	lui	x4,0x12
    800029a0:	3ab2021b          	addiw	x4,x4,939 # 123ab <offset+0x123ab>
    800029a4:	00413823          	sd	x4,16(x2)
    800029a8:	0000d237          	lui	x4,0xd
    800029ac:	ccc2021b          	addiw	x4,x4,-820 # cccc <offset+0xcccc>
    800029b0:	40000f37          	lui	x30,0x40000
    800029b4:	00000f93          	addi	x31,x0,0
    800029b8:	01ff0663          	beq	x30,x31,800029c4 <rvtest_code_begin+0x25b4>
    800029bc:	00012237          	lui	x4,0x12
    800029c0:	3ab2021b          	addiw	x4,x4,939 # 123ab <offset+0x123ab>
    800029c4:	00413c23          	sd	x4,24(x2)
    800029c8:	0000d237          	lui	x4,0xd
    800029cc:	ccc2021b          	addiw	x4,x4,-820 # cccc <offset+0xcccc>
    800029d0:	00100f9b          	addiw	x31,x0,1
    800029d4:	01ff9f93          	slli	x31,x31,0x1f
    800029d8:	00000093          	addi	x1,x0,0
    800029dc:	001f8663          	beq	x31,x1,800029e8 <rvtest_code_begin+0x25d8>
    800029e0:	00012237          	lui	x4,0x12
    800029e4:	3ab2021b          	addiw	x4,x4,939 # 123ab <offset+0x123ab>
    800029e8:	02413023          	sd	x4,32(x2)
    800029ec:	00003317          	auipc	x6,0x3
    800029f0:	c6430313          	addi	x6,x6,-924 # 80005650 <signature_41_0>
    800029f4:	0000d437          	lui	x8,0xd
    800029f8:	ccc4041b          	addiw	x8,x8,-820 # cccc <offset+0xcccc>
    800029fc:	0010009b          	addiw	x1,x0,1
    80002a00:	02009093          	slli	x1,x1,0x20
    80002a04:	00000113          	addi	x2,x0,0
    80002a08:	00208663          	beq	x1,x2,80002a14 <rvtest_code_begin+0x2604>
    80002a0c:	00012437          	lui	x8,0x12
    80002a10:	3ab4041b          	addiw	x8,x8,939 # 123ab <offset+0x123ab>
    80002a14:	00833023          	sd	x8,0(x6)
    80002a18:	0000d437          	lui	x8,0xd
    80002a1c:	ccc4041b          	addiw	x8,x8,-820 # cccc <offset+0xcccc>
    80002a20:	0010009b          	addiw	x1,x0,1
    80002a24:	02109093          	slli	x1,x1,0x21
    80002a28:	00000113          	addi	x2,x0,0
    80002a2c:	00208663          	beq	x1,x2,80002a38 <rvtest_code_begin+0x2628>
    80002a30:	00012437          	lui	x8,0x12
    80002a34:	3ab4041b          	addiw	x8,x8,939 # 123ab <offset+0x123ab>
    80002a38:	00833423          	sd	x8,8(x6)
    80002a3c:	0080006f          	jal	x0,80002a44 <rvtest_code_begin+0x2634>
    80002a40:	0240006f          	jal	x0,80002a64 <rvtest_code_begin+0x2654>
    80002a44:	0000d437          	lui	x8,0xd
    80002a48:	ccc4041b          	addiw	x8,x8,-820 # cccc <offset+0xcccc>
    80002a4c:	0010011b          	addiw	x2,x0,1
    80002a50:	02211113          	slli	x2,x2,0x22
    80002a54:	00000193          	addi	x3,x0,0
    80002a58:	fe3104e3          	beq	x2,x3,80002a40 <rvtest_code_begin+0x2630>
    80002a5c:	00012437          	lui	x8,0x12
    80002a60:	3ab4041b          	addiw	x8,x8,939 # 123ab <offset+0x123ab>
    80002a64:	00833823          	sd	x8,16(x6)
    80002a68:	0000d437          	lui	x8,0xd
    80002a6c:	ccc4041b          	addiw	x8,x8,-820 # cccc <offset+0xcccc>
    80002a70:	0010019b          	addiw	x3,x0,1
    80002a74:	02319193          	slli	x3,x3,0x23
    80002a78:	00000213          	addi	x4,x0,0
    80002a7c:	00418663          	beq	x3,x4,80002a88 <rvtest_code_begin+0x2678>
    80002a80:	00012437          	lui	x8,0x12
    80002a84:	3ab4041b          	addiw	x8,x8,939 # 123ab <offset+0x123ab>
    80002a88:	00833c23          	sd	x8,24(x6)
    80002a8c:	0000d437          	lui	x8,0xd
    80002a90:	ccc4041b          	addiw	x8,x8,-820 # cccc <offset+0xcccc>
    80002a94:	0010021b          	addiw	x4,x0,1
    80002a98:	02421213          	slli	x4,x4,0x24
    80002a9c:	00000293          	addi	x5,x0,0
    80002aa0:	00520663          	beq	x4,x5,80002aac <rvtest_code_begin+0x269c>
    80002aa4:	00012437          	lui	x8,0x12
    80002aa8:	3ab4041b          	addiw	x8,x8,939 # 123ab <offset+0x123ab>
    80002aac:	02833023          	sd	x8,32(x6)
    80002ab0:	00003097          	auipc	x1,0x3
    80002ab4:	bc808093          	addi	x1,x1,-1080 # 80005678 <signature_42_0>
    80002ab8:	0000d1b7          	lui	x3,0xd
    80002abc:	ccc1819b          	addiw	x3,x3,-820 # cccc <offset+0xcccc>
    80002ac0:	0010029b          	addiw	x5,x0,1
    80002ac4:	02529293          	slli	x5,x5,0x25
    80002ac8:	00000313          	addi	x6,x0,0
    80002acc:	00628663          	beq	x5,x6,80002ad8 <rvtest_code_begin+0x26c8>
    80002ad0:	000121b7          	lui	x3,0x12
    80002ad4:	3ab1819b          	addiw	x3,x3,939 # 123ab <offset+0x123ab>
    80002ad8:	0030b023          	sd	x3,0(x1)
    80002adc:	0000d1b7          	lui	x3,0xd
    80002ae0:	ccc1819b          	addiw	x3,x3,-820 # cccc <offset+0xcccc>
    80002ae4:	0010031b          	addiw	x6,x0,1
    80002ae8:	02631313          	slli	x6,x6,0x26
    80002aec:	00000393          	addi	x7,x0,0
    80002af0:	00730663          	beq	x6,x7,80002afc <rvtest_code_begin+0x26ec>
    80002af4:	000121b7          	lui	x3,0x12
    80002af8:	3ab1819b          	addiw	x3,x3,939 # 123ab <offset+0x123ab>
    80002afc:	0030b423          	sd	x3,8(x1)
    80002b00:	0080006f          	jal	x0,80002b08 <rvtest_code_begin+0x26f8>
    80002b04:	0240006f          	jal	x0,80002b28 <rvtest_code_begin+0x2718>
    80002b08:	0000d1b7          	lui	x3,0xd
    80002b0c:	ccc1819b          	addiw	x3,x3,-820 # cccc <offset+0xcccc>
    80002b10:	0010039b          	addiw	x7,x0,1
    80002b14:	02739393          	slli	x7,x7,0x27
    80002b18:	00000413          	addi	x8,x0,0
    80002b1c:	fe8384e3          	beq	x7,x8,80002b04 <rvtest_code_begin+0x26f4>
    80002b20:	000121b7          	lui	x3,0x12
    80002b24:	3ab1819b          	addiw	x3,x3,939 # 123ab <offset+0x123ab>
    80002b28:	0030b823          	sd	x3,16(x1)
    80002b2c:	0000d1b7          	lui	x3,0xd
    80002b30:	ccc1819b          	addiw	x3,x3,-820 # cccc <offset+0xcccc>
    80002b34:	0010041b          	addiw	x8,x0,1
    80002b38:	02841413          	slli	x8,x8,0x28
    80002b3c:	00000493          	addi	x9,x0,0
    80002b40:	00940663          	beq	x8,x9,80002b4c <rvtest_code_begin+0x273c>
    80002b44:	000121b7          	lui	x3,0x12
    80002b48:	3ab1819b          	addiw	x3,x3,939 # 123ab <offset+0x123ab>
    80002b4c:	0030bc23          	sd	x3,24(x1)
    80002b50:	0000d1b7          	lui	x3,0xd
    80002b54:	ccc1819b          	addiw	x3,x3,-820 # cccc <offset+0xcccc>
    80002b58:	0010049b          	addiw	x9,x0,1
    80002b5c:	02949493          	slli	x9,x9,0x29
    80002b60:	00000513          	addi	x10,x0,0
    80002b64:	00a48663          	beq	x9,x10,80002b70 <rvtest_code_begin+0x2760>
    80002b68:	000121b7          	lui	x3,0x12
    80002b6c:	3ab1819b          	addiw	x3,x3,939 # 123ab <offset+0x123ab>
    80002b70:	0230b023          	sd	x3,32(x1)
    80002b74:	00003097          	auipc	x1,0x3
    80002b78:	b2c08093          	addi	x1,x1,-1236 # 800056a0 <signature_43_0>
    80002b7c:	0000d1b7          	lui	x3,0xd
    80002b80:	ccc1819b          	addiw	x3,x3,-820 # cccc <offset+0xcccc>
    80002b84:	0010051b          	addiw	x10,x0,1
    80002b88:	02a51513          	slli	x10,x10,0x2a
    80002b8c:	00000593          	addi	x11,x0,0
    80002b90:	00b50663          	beq	x10,x11,80002b9c <rvtest_code_begin+0x278c>
    80002b94:	000121b7          	lui	x3,0x12
    80002b98:	3ab1819b          	addiw	x3,x3,939 # 123ab <offset+0x123ab>
    80002b9c:	0030b023          	sd	x3,0(x1)
    80002ba0:	0000d1b7          	lui	x3,0xd
    80002ba4:	ccc1819b          	addiw	x3,x3,-820 # cccc <offset+0xcccc>
    80002ba8:	0010059b          	addiw	x11,x0,1
    80002bac:	02b59593          	slli	x11,x11,0x2b
    80002bb0:	00000613          	addi	x12,x0,0
    80002bb4:	00c58663          	beq	x11,x12,80002bc0 <rvtest_code_begin+0x27b0>
    80002bb8:	000121b7          	lui	x3,0x12
    80002bbc:	3ab1819b          	addiw	x3,x3,939 # 123ab <offset+0x123ab>
    80002bc0:	0030b423          	sd	x3,8(x1)
    80002bc4:	0080006f          	jal	x0,80002bcc <rvtest_code_begin+0x27bc>
    80002bc8:	0240006f          	jal	x0,80002bec <rvtest_code_begin+0x27dc>
    80002bcc:	0000d1b7          	lui	x3,0xd
    80002bd0:	ccc1819b          	addiw	x3,x3,-820 # cccc <offset+0xcccc>
    80002bd4:	0010061b          	addiw	x12,x0,1
    80002bd8:	02c61613          	slli	x12,x12,0x2c
    80002bdc:	00000693          	addi	x13,x0,0
    80002be0:	fed604e3          	beq	x12,x13,80002bc8 <rvtest_code_begin+0x27b8>
    80002be4:	000121b7          	lui	x3,0x12
    80002be8:	3ab1819b          	addiw	x3,x3,939 # 123ab <offset+0x123ab>
    80002bec:	0030b823          	sd	x3,16(x1)
    80002bf0:	0000d1b7          	lui	x3,0xd
    80002bf4:	ccc1819b          	addiw	x3,x3,-820 # cccc <offset+0xcccc>
    80002bf8:	0010069b          	addiw	x13,x0,1
    80002bfc:	02d69693          	slli	x13,x13,0x2d
    80002c00:	00000713          	addi	x14,x0,0
    80002c04:	00e68663          	beq	x13,x14,80002c10 <rvtest_code_begin+0x2800>
    80002c08:	000121b7          	lui	x3,0x12
    80002c0c:	3ab1819b          	addiw	x3,x3,939 # 123ab <offset+0x123ab>
    80002c10:	0030bc23          	sd	x3,24(x1)
    80002c14:	0000d1b7          	lui	x3,0xd
    80002c18:	ccc1819b          	addiw	x3,x3,-820 # cccc <offset+0xcccc>
    80002c1c:	0010071b          	addiw	x14,x0,1
    80002c20:	02e71713          	slli	x14,x14,0x2e
    80002c24:	00000793          	addi	x15,x0,0
    80002c28:	00f70663          	beq	x14,x15,80002c34 <rvtest_code_begin+0x2824>
    80002c2c:	000121b7          	lui	x3,0x12
    80002c30:	3ab1819b          	addiw	x3,x3,939 # 123ab <offset+0x123ab>
    80002c34:	0230b023          	sd	x3,32(x1)
    80002c38:	00003097          	auipc	x1,0x3
    80002c3c:	a9008093          	addi	x1,x1,-1392 # 800056c8 <signature_44_0>
    80002c40:	0000d1b7          	lui	x3,0xd
    80002c44:	ccc1819b          	addiw	x3,x3,-820 # cccc <offset+0xcccc>
    80002c48:	0010079b          	addiw	x15,x0,1
    80002c4c:	02f79793          	slli	x15,x15,0x2f
    80002c50:	00000813          	addi	x16,x0,0
    80002c54:	01078663          	beq	x15,x16,80002c60 <rvtest_code_begin+0x2850>
    80002c58:	000121b7          	lui	x3,0x12
    80002c5c:	3ab1819b          	addiw	x3,x3,939 # 123ab <offset+0x123ab>
    80002c60:	0030b023          	sd	x3,0(x1)
    80002c64:	0000d1b7          	lui	x3,0xd
    80002c68:	ccc1819b          	addiw	x3,x3,-820 # cccc <offset+0xcccc>
    80002c6c:	0010081b          	addiw	x16,x0,1
    80002c70:	03081813          	slli	x16,x16,0x30
    80002c74:	00000893          	addi	x17,x0,0
    80002c78:	01180663          	beq	x16,x17,80002c84 <rvtest_code_begin+0x2874>
    80002c7c:	000121b7          	lui	x3,0x12
    80002c80:	3ab1819b          	addiw	x3,x3,939 # 123ab <offset+0x123ab>
    80002c84:	0030b423          	sd	x3,8(x1)
    80002c88:	0080006f          	jal	x0,80002c90 <rvtest_code_begin+0x2880>
    80002c8c:	0240006f          	jal	x0,80002cb0 <rvtest_code_begin+0x28a0>
    80002c90:	0000d1b7          	lui	x3,0xd
    80002c94:	ccc1819b          	addiw	x3,x3,-820 # cccc <offset+0xcccc>
    80002c98:	0010089b          	addiw	x17,x0,1
    80002c9c:	03189893          	slli	x17,x17,0x31
    80002ca0:	00000913          	addi	x18,x0,0
    80002ca4:	ff2884e3          	beq	x17,x18,80002c8c <rvtest_code_begin+0x287c>
    80002ca8:	000121b7          	lui	x3,0x12
    80002cac:	3ab1819b          	addiw	x3,x3,939 # 123ab <offset+0x123ab>
    80002cb0:	0030b823          	sd	x3,16(x1)
    80002cb4:	0000d1b7          	lui	x3,0xd
    80002cb8:	ccc1819b          	addiw	x3,x3,-820 # cccc <offset+0xcccc>
    80002cbc:	0010091b          	addiw	x18,x0,1
    80002cc0:	03291913          	slli	x18,x18,0x32
    80002cc4:	00000993          	addi	x19,x0,0
    80002cc8:	01390663          	beq	x18,x19,80002cd4 <rvtest_code_begin+0x28c4>
    80002ccc:	000121b7          	lui	x3,0x12
    80002cd0:	3ab1819b          	addiw	x3,x3,939 # 123ab <offset+0x123ab>
    80002cd4:	0030bc23          	sd	x3,24(x1)
    80002cd8:	0000d1b7          	lui	x3,0xd
    80002cdc:	ccc1819b          	addiw	x3,x3,-820 # cccc <offset+0xcccc>
    80002ce0:	0010099b          	addiw	x19,x0,1
    80002ce4:	03399993          	slli	x19,x19,0x33
    80002ce8:	00000a13          	addi	x20,x0,0
    80002cec:	01498663          	beq	x19,x20,80002cf8 <rvtest_code_begin+0x28e8>
    80002cf0:	000121b7          	lui	x3,0x12
    80002cf4:	3ab1819b          	addiw	x3,x3,939 # 123ab <offset+0x123ab>
    80002cf8:	0230b023          	sd	x3,32(x1)
    80002cfc:	00003097          	auipc	x1,0x3
    80002d00:	9f408093          	addi	x1,x1,-1548 # 800056f0 <signature_45_0>
    80002d04:	0000d1b7          	lui	x3,0xd
    80002d08:	ccc1819b          	addiw	x3,x3,-820 # cccc <offset+0xcccc>
    80002d0c:	00100a1b          	addiw	x20,x0,1
    80002d10:	034a1a13          	slli	x20,x20,0x34
    80002d14:	00000a93          	addi	x21,x0,0
    80002d18:	015a0663          	beq	x20,x21,80002d24 <rvtest_code_begin+0x2914>
    80002d1c:	000121b7          	lui	x3,0x12
    80002d20:	3ab1819b          	addiw	x3,x3,939 # 123ab <offset+0x123ab>
    80002d24:	0030b023          	sd	x3,0(x1)
    80002d28:	0000d1b7          	lui	x3,0xd
    80002d2c:	ccc1819b          	addiw	x3,x3,-820 # cccc <offset+0xcccc>
    80002d30:	00100a9b          	addiw	x21,x0,1
    80002d34:	035a9a93          	slli	x21,x21,0x35
    80002d38:	00000b13          	addi	x22,x0,0
    80002d3c:	016a8663          	beq	x21,x22,80002d48 <rvtest_code_begin+0x2938>
    80002d40:	000121b7          	lui	x3,0x12
    80002d44:	3ab1819b          	addiw	x3,x3,939 # 123ab <offset+0x123ab>
    80002d48:	0030b423          	sd	x3,8(x1)
    80002d4c:	0080006f          	jal	x0,80002d54 <rvtest_code_begin+0x2944>
    80002d50:	0240006f          	jal	x0,80002d74 <rvtest_code_begin+0x2964>
    80002d54:	0000d1b7          	lui	x3,0xd
    80002d58:	ccc1819b          	addiw	x3,x3,-820 # cccc <offset+0xcccc>
    80002d5c:	00100b1b          	addiw	x22,x0,1
    80002d60:	036b1b13          	slli	x22,x22,0x36
    80002d64:	00000b93          	addi	x23,x0,0
    80002d68:	ff7b04e3          	beq	x22,x23,80002d50 <rvtest_code_begin+0x2940>
    80002d6c:	000121b7          	lui	x3,0x12
    80002d70:	3ab1819b          	addiw	x3,x3,939 # 123ab <offset+0x123ab>
    80002d74:	0030b823          	sd	x3,16(x1)
    80002d78:	0000d1b7          	lui	x3,0xd
    80002d7c:	ccc1819b          	addiw	x3,x3,-820 # cccc <offset+0xcccc>
    80002d80:	00100b9b          	addiw	x23,x0,1
    80002d84:	037b9b93          	slli	x23,x23,0x37
    80002d88:	00000c13          	addi	x24,x0,0
    80002d8c:	018b8663          	beq	x23,x24,80002d98 <rvtest_code_begin+0x2988>
    80002d90:	000121b7          	lui	x3,0x12
    80002d94:	3ab1819b          	addiw	x3,x3,939 # 123ab <offset+0x123ab>
    80002d98:	0030bc23          	sd	x3,24(x1)
    80002d9c:	0000d1b7          	lui	x3,0xd
    80002da0:	ccc1819b          	addiw	x3,x3,-820 # cccc <offset+0xcccc>
    80002da4:	00100c1b          	addiw	x24,x0,1
    80002da8:	038c1c13          	slli	x24,x24,0x38
    80002dac:	00000c93          	addi	x25,x0,0
    80002db0:	019c0663          	beq	x24,x25,80002dbc <rvtest_code_begin+0x29ac>
    80002db4:	000121b7          	lui	x3,0x12
    80002db8:	3ab1819b          	addiw	x3,x3,939 # 123ab <offset+0x123ab>
    80002dbc:	0230b023          	sd	x3,32(x1)
    80002dc0:	00003097          	auipc	x1,0x3
    80002dc4:	95808093          	addi	x1,x1,-1704 # 80005718 <signature_46_0>
    80002dc8:	0000d1b7          	lui	x3,0xd
    80002dcc:	ccc1819b          	addiw	x3,x3,-820 # cccc <offset+0xcccc>
    80002dd0:	00100c9b          	addiw	x25,x0,1
    80002dd4:	039c9c93          	slli	x25,x25,0x39
    80002dd8:	00000d13          	addi	x26,x0,0
    80002ddc:	01ac8663          	beq	x25,x26,80002de8 <rvtest_code_begin+0x29d8>
    80002de0:	000121b7          	lui	x3,0x12
    80002de4:	3ab1819b          	addiw	x3,x3,939 # 123ab <offset+0x123ab>
    80002de8:	0030b023          	sd	x3,0(x1)
    80002dec:	0000d1b7          	lui	x3,0xd
    80002df0:	ccc1819b          	addiw	x3,x3,-820 # cccc <offset+0xcccc>
    80002df4:	00100d1b          	addiw	x26,x0,1
    80002df8:	03ad1d13          	slli	x26,x26,0x3a
    80002dfc:	00000d93          	addi	x27,x0,0
    80002e00:	01bd0663          	beq	x26,x27,80002e0c <rvtest_code_begin+0x29fc>
    80002e04:	000121b7          	lui	x3,0x12
    80002e08:	3ab1819b          	addiw	x3,x3,939 # 123ab <offset+0x123ab>
    80002e0c:	0030b423          	sd	x3,8(x1)
    80002e10:	0080006f          	jal	x0,80002e18 <rvtest_code_begin+0x2a08>
    80002e14:	0240006f          	jal	x0,80002e38 <rvtest_code_begin+0x2a28>
    80002e18:	0000d1b7          	lui	x3,0xd
    80002e1c:	ccc1819b          	addiw	x3,x3,-820 # cccc <offset+0xcccc>
    80002e20:	00100d9b          	addiw	x27,x0,1
    80002e24:	03bd9d93          	slli	x27,x27,0x3b
    80002e28:	00000e13          	addi	x28,x0,0
    80002e2c:	ffcd84e3          	beq	x27,x28,80002e14 <rvtest_code_begin+0x2a04>
    80002e30:	000121b7          	lui	x3,0x12
    80002e34:	3ab1819b          	addiw	x3,x3,939 # 123ab <offset+0x123ab>
    80002e38:	0030b823          	sd	x3,16(x1)
    80002e3c:	0000d1b7          	lui	x3,0xd
    80002e40:	ccc1819b          	addiw	x3,x3,-820 # cccc <offset+0xcccc>
    80002e44:	00100e1b          	addiw	x28,x0,1
    80002e48:	03ce1e13          	slli	x28,x28,0x3c
    80002e4c:	00000e93          	addi	x29,x0,0
    80002e50:	01de0663          	beq	x28,x29,80002e5c <rvtest_code_begin+0x2a4c>
    80002e54:	000121b7          	lui	x3,0x12
    80002e58:	3ab1819b          	addiw	x3,x3,939 # 123ab <offset+0x123ab>
    80002e5c:	0030bc23          	sd	x3,24(x1)
    80002e60:	0000d1b7          	lui	x3,0xd
    80002e64:	ccc1819b          	addiw	x3,x3,-820 # cccc <offset+0xcccc>
    80002e68:	00100e9b          	addiw	x29,x0,1
    80002e6c:	03de9e93          	slli	x29,x29,0x3d
    80002e70:	00000f13          	addi	x30,x0,0
    80002e74:	01ee8663          	beq	x29,x30,80002e80 <rvtest_code_begin+0x2a70>
    80002e78:	000121b7          	lui	x3,0x12
    80002e7c:	3ab1819b          	addiw	x3,x3,939 # 123ab <offset+0x123ab>
    80002e80:	0230b023          	sd	x3,32(x1)
    80002e84:	00003217          	auipc	x4,0x3
    80002e88:	8bc20213          	addi	x4,x4,-1860 # 80005740 <signature_47_0>
    80002e8c:	0000d337          	lui	x6,0xd
    80002e90:	ccc3031b          	addiw	x6,x6,-820 # cccc <offset+0xcccc>
    80002e94:	00100f1b          	addiw	x30,x0,1
    80002e98:	03ef1f13          	slli	x30,x30,0x3e
    80002e9c:	00000f93          	addi	x31,x0,0
    80002ea0:	01ff0663          	beq	x30,x31,80002eac <rvtest_code_begin+0x2a9c>
    80002ea4:	00012337          	lui	x6,0x12
    80002ea8:	3ab3031b          	addiw	x6,x6,939 # 123ab <offset+0x123ab>
    80002eac:	00623023          	sd	x6,0(x4) # 0 <offset>
    80002eb0:	0000d337          	lui	x6,0xd
    80002eb4:	ccc3031b          	addiw	x6,x6,-820 # cccc <offset+0xcccc>
    80002eb8:	fff00f9b          	addiw	x31,x0,-1
    80002ebc:	03ff9f93          	slli	x31,x31,0x3f
    80002ec0:	00000093          	addi	x1,x0,0
    80002ec4:	001f8663          	beq	x31,x1,80002ed0 <rvtest_code_begin+0x2ac0>
    80002ec8:	00012337          	lui	x6,0x12
    80002ecc:	3ab3031b          	addiw	x6,x6,939 # 123ab <offset+0x123ab>
    80002ed0:	00623423          	sd	x6,8(x4) # 8 <offset+0x8>
    80002ed4:	0080006f          	jal	x0,80002edc <rvtest_code_begin+0x2acc>
    80002ed8:	0200006f          	jal	x0,80002ef8 <rvtest_code_begin+0x2ae8>
    80002edc:	0000d337          	lui	x6,0xd
    80002ee0:	ccc3031b          	addiw	x6,x6,-820 # cccc <offset+0xcccc>
    80002ee4:	ffe00093          	addi	x1,x0,-2
    80002ee8:	00000113          	addi	x2,x0,0
    80002eec:	fe2086e3          	beq	x1,x2,80002ed8 <rvtest_code_begin+0x2ac8>
    80002ef0:	00012337          	lui	x6,0x12
    80002ef4:	3ab3031b          	addiw	x6,x6,939 # 123ab <offset+0x123ab>
    80002ef8:	00623823          	sd	x6,16(x4) # 10 <offset+0x10>
    80002efc:	0000d337          	lui	x6,0xd
    80002f00:	ccc3031b          	addiw	x6,x6,-820 # cccc <offset+0xcccc>
    80002f04:	ffd00093          	addi	x1,x0,-3
    80002f08:	00000113          	addi	x2,x0,0
    80002f0c:	00208663          	beq	x1,x2,80002f18 <rvtest_code_begin+0x2b08>
    80002f10:	00012337          	lui	x6,0x12
    80002f14:	3ab3031b          	addiw	x6,x6,939 # 123ab <offset+0x123ab>
    80002f18:	00623c23          	sd	x6,24(x4) # 18 <offset+0x18>
    80002f1c:	0000d337          	lui	x6,0xd
    80002f20:	ccc3031b          	addiw	x6,x6,-820 # cccc <offset+0xcccc>
    80002f24:	ffb00113          	addi	x2,x0,-5
    80002f28:	00000193          	addi	x3,x0,0
    80002f2c:	00310663          	beq	x2,x3,80002f38 <rvtest_code_begin+0x2b28>
    80002f30:	00012337          	lui	x6,0x12
    80002f34:	3ab3031b          	addiw	x6,x6,939 # 123ab <offset+0x123ab>
    80002f38:	02623023          	sd	x6,32(x4) # 20 <offset+0x20>
    80002f3c:	00003097          	auipc	x1,0x3
    80002f40:	82c08093          	addi	x1,x1,-2004 # 80005768 <signature_48_0>
    80002f44:	0000d4b7          	lui	x9,0xd
    80002f48:	ccc4849b          	addiw	x9,x9,-820 # cccc <offset+0xcccc>
    80002f4c:	ff700193          	addi	x3,x0,-9
    80002f50:	00000213          	addi	x4,x0,0
    80002f54:	00418663          	beq	x3,x4,80002f60 <rvtest_code_begin+0x2b50>
    80002f58:	000124b7          	lui	x9,0x12
    80002f5c:	3ab4849b          	addiw	x9,x9,939 # 123ab <offset+0x123ab>
    80002f60:	0090b023          	sd	x9,0(x1)
    80002f64:	0000d4b7          	lui	x9,0xd
    80002f68:	ccc4849b          	addiw	x9,x9,-820 # cccc <offset+0xcccc>
    80002f6c:	fef00213          	addi	x4,x0,-17
    80002f70:	00000293          	addi	x5,x0,0
    80002f74:	00520663          	beq	x4,x5,80002f80 <rvtest_code_begin+0x2b70>
    80002f78:	000124b7          	lui	x9,0x12
    80002f7c:	3ab4849b          	addiw	x9,x9,939 # 123ab <offset+0x123ab>
    80002f80:	0090b423          	sd	x9,8(x1)
    80002f84:	0080006f          	jal	x0,80002f8c <rvtest_code_begin+0x2b7c>
    80002f88:	0200006f          	jal	x0,80002fa8 <rvtest_code_begin+0x2b98>
    80002f8c:	0000d4b7          	lui	x9,0xd
    80002f90:	ccc4849b          	addiw	x9,x9,-820 # cccc <offset+0xcccc>
    80002f94:	fdf00293          	addi	x5,x0,-33
    80002f98:	00000313          	addi	x6,x0,0
    80002f9c:	fe6286e3          	beq	x5,x6,80002f88 <rvtest_code_begin+0x2b78>
    80002fa0:	000124b7          	lui	x9,0x12
    80002fa4:	3ab4849b          	addiw	x9,x9,939 # 123ab <offset+0x123ab>
    80002fa8:	0090b823          	sd	x9,16(x1)
    80002fac:	0000d4b7          	lui	x9,0xd
    80002fb0:	ccc4849b          	addiw	x9,x9,-820 # cccc <offset+0xcccc>
    80002fb4:	fbf00313          	addi	x6,x0,-65
    80002fb8:	00000393          	addi	x7,x0,0
    80002fbc:	00730663          	beq	x6,x7,80002fc8 <rvtest_code_begin+0x2bb8>
    80002fc0:	000124b7          	lui	x9,0x12
    80002fc4:	3ab4849b          	addiw	x9,x9,939 # 123ab <offset+0x123ab>
    80002fc8:	0090bc23          	sd	x9,24(x1)
    80002fcc:	0000d4b7          	lui	x9,0xd
    80002fd0:	ccc4849b          	addiw	x9,x9,-820 # cccc <offset+0xcccc>
    80002fd4:	f7f00393          	addi	x7,x0,-129
    80002fd8:	00000413          	addi	x8,x0,0
    80002fdc:	00838663          	beq	x7,x8,80002fe8 <rvtest_code_begin+0x2bd8>
    80002fe0:	000124b7          	lui	x9,0x12
    80002fe4:	3ab4849b          	addiw	x9,x9,939 # 123ab <offset+0x123ab>
    80002fe8:	0290b023          	sd	x9,32(x1)
    80002fec:	00002097          	auipc	x1,0x2
    80002ff0:	7a408093          	addi	x1,x1,1956 # 80005790 <signature_49_0>
    80002ff4:	0000d1b7          	lui	x3,0xd
    80002ff8:	ccc1819b          	addiw	x3,x3,-820 # cccc <offset+0xcccc>
    80002ffc:	eff00413          	addi	x8,x0,-257
    80003000:	00000493          	addi	x9,x0,0
    80003004:	00940663          	beq	x8,x9,80003010 <rvtest_code_begin+0x2c00>
    80003008:	000121b7          	lui	x3,0x12
    8000300c:	3ab1819b          	addiw	x3,x3,939 # 123ab <offset+0x123ab>
    80003010:	0030b023          	sd	x3,0(x1)
    80003014:	0000d1b7          	lui	x3,0xd
    80003018:	ccc1819b          	addiw	x3,x3,-820 # cccc <offset+0xcccc>
    8000301c:	dff00493          	addi	x9,x0,-513
    80003020:	00000513          	addi	x10,x0,0
    80003024:	00a48663          	beq	x9,x10,80003030 <rvtest_code_begin+0x2c20>
    80003028:	000121b7          	lui	x3,0x12
    8000302c:	3ab1819b          	addiw	x3,x3,939 # 123ab <offset+0x123ab>
    80003030:	0030b423          	sd	x3,8(x1)
    80003034:	0080006f          	jal	x0,8000303c <rvtest_code_begin+0x2c2c>
    80003038:	0200006f          	jal	x0,80003058 <rvtest_code_begin+0x2c48>
    8000303c:	0000d1b7          	lui	x3,0xd
    80003040:	ccc1819b          	addiw	x3,x3,-820 # cccc <offset+0xcccc>
    80003044:	bff00513          	addi	x10,x0,-1025
    80003048:	00000593          	addi	x11,x0,0
    8000304c:	feb506e3          	beq	x10,x11,80003038 <rvtest_code_begin+0x2c28>
    80003050:	000121b7          	lui	x3,0x12
    80003054:	3ab1819b          	addiw	x3,x3,939 # 123ab <offset+0x123ab>
    80003058:	0030b823          	sd	x3,16(x1)
    8000305c:	0000d1b7          	lui	x3,0xd
    80003060:	ccc1819b          	addiw	x3,x3,-820 # cccc <offset+0xcccc>
    80003064:	fffff5b7          	lui	x11,0xfffff
    80003068:	7ff5859b          	addiw	x11,x11,2047 # fffffffffffff7ff <_end+0xffffffff7fff9cf7>
    8000306c:	00000613          	addi	x12,x0,0
    80003070:	00c58663          	beq	x11,x12,8000307c <rvtest_code_begin+0x2c6c>
    80003074:	000121b7          	lui	x3,0x12
    80003078:	3ab1819b          	addiw	x3,x3,939 # 123ab <offset+0x123ab>
    8000307c:	0030bc23          	sd	x3,24(x1)
    80003080:	0000d1b7          	lui	x3,0xd
    80003084:	ccc1819b          	addiw	x3,x3,-820 # cccc <offset+0xcccc>
    80003088:	fffff637          	lui	x12,0xfffff
    8000308c:	fff6061b          	addiw	x12,x12,-1 # ffffffffffffefff <_end+0xffffffff7fff94f7>
    80003090:	00000693          	addi	x13,x0,0
    80003094:	00d60663          	beq	x12,x13,800030a0 <rvtest_code_begin+0x2c90>
    80003098:	000121b7          	lui	x3,0x12
    8000309c:	3ab1819b          	addiw	x3,x3,939 # 123ab <offset+0x123ab>
    800030a0:	0230b023          	sd	x3,32(x1)
    800030a4:	00002097          	auipc	x1,0x2
    800030a8:	71408093          	addi	x1,x1,1812 # 800057b8 <signature_50_0>
    800030ac:	0000d1b7          	lui	x3,0xd
    800030b0:	ccc1819b          	addiw	x3,x3,-820 # cccc <offset+0xcccc>
    800030b4:	ffffe6b7          	lui	x13,0xffffe
    800030b8:	fff6869b          	addiw	x13,x13,-1 # ffffffffffffdfff <_end+0xffffffff7fff84f7>
    800030bc:	00000713          	addi	x14,x0,0
    800030c0:	00e68663          	beq	x13,x14,800030cc <rvtest_code_begin+0x2cbc>
    800030c4:	000121b7          	lui	x3,0x12
    800030c8:	3ab1819b          	addiw	x3,x3,939 # 123ab <offset+0x123ab>
    800030cc:	0030b023          	sd	x3,0(x1)
    800030d0:	0000d1b7          	lui	x3,0xd
    800030d4:	ccc1819b          	addiw	x3,x3,-820 # cccc <offset+0xcccc>
    800030d8:	ffffc737          	lui	x14,0xffffc
    800030dc:	fff7071b          	addiw	x14,x14,-1 # ffffffffffffbfff <_end+0xffffffff7fff64f7>
    800030e0:	00000793          	addi	x15,x0,0
    800030e4:	00f70663          	beq	x14,x15,800030f0 <rvtest_code_begin+0x2ce0>
    800030e8:	000121b7          	lui	x3,0x12
    800030ec:	3ab1819b          	addiw	x3,x3,939 # 123ab <offset+0x123ab>
    800030f0:	0030b423          	sd	x3,8(x1)
    800030f4:	0080006f          	jal	x0,800030fc <rvtest_code_begin+0x2cec>
    800030f8:	0240006f          	jal	x0,8000311c <rvtest_code_begin+0x2d0c>
    800030fc:	0000d1b7          	lui	x3,0xd
    80003100:	ccc1819b          	addiw	x3,x3,-820 # cccc <offset+0xcccc>
    80003104:	ffff87b7          	lui	x15,0xffff8
    80003108:	fff7879b          	addiw	x15,x15,-1 # ffffffffffff7fff <_end+0xffffffff7fff24f7>
    8000310c:	00000813          	addi	x16,x0,0
    80003110:	ff0784e3          	beq	x15,x16,800030f8 <rvtest_code_begin+0x2ce8>
    80003114:	000121b7          	lui	x3,0x12
    80003118:	3ab1819b          	addiw	x3,x3,939 # 123ab <offset+0x123ab>
    8000311c:	0030b823          	sd	x3,16(x1)
    80003120:	0000d1b7          	lui	x3,0xd
    80003124:	ccc1819b          	addiw	x3,x3,-820 # cccc <offset+0xcccc>
    80003128:	ffff0837          	lui	x16,0xffff0
    8000312c:	fff8081b          	addiw	x16,x16,-1 # fffffffffffeffff <_end+0xffffffff7ffea4f7>
    80003130:	00000893          	addi	x17,x0,0
    80003134:	01180663          	beq	x16,x17,80003140 <rvtest_code_begin+0x2d30>
    80003138:	000121b7          	lui	x3,0x12
    8000313c:	3ab1819b          	addiw	x3,x3,939 # 123ab <offset+0x123ab>
    80003140:	0030bc23          	sd	x3,24(x1)
    80003144:	0000d1b7          	lui	x3,0xd
    80003148:	ccc1819b          	addiw	x3,x3,-820 # cccc <offset+0xcccc>
    8000314c:	fffe08b7          	lui	x17,0xfffe0
    80003150:	fff8889b          	addiw	x17,x17,-1 # fffffffffffdffff <_end+0xffffffff7ffda4f7>
    80003154:	00000913          	addi	x18,x0,0
    80003158:	01288663          	beq	x17,x18,80003164 <rvtest_code_begin+0x2d54>
    8000315c:	000121b7          	lui	x3,0x12
    80003160:	3ab1819b          	addiw	x3,x3,939 # 123ab <offset+0x123ab>
    80003164:	0230b023          	sd	x3,32(x1)
    80003168:	00002097          	auipc	x1,0x2
    8000316c:	67808093          	addi	x1,x1,1656 # 800057e0 <signature_51_0>
    80003170:	0000d1b7          	lui	x3,0xd
    80003174:	ccc1819b          	addiw	x3,x3,-820 # cccc <offset+0xcccc>
    80003178:	fffc0937          	lui	x18,0xfffc0
    8000317c:	fff9091b          	addiw	x18,x18,-1 # fffffffffffbffff <_end+0xffffffff7ffba4f7>
    80003180:	00000993          	addi	x19,x0,0
    80003184:	01390663          	beq	x18,x19,80003190 <rvtest_code_begin+0x2d80>
    80003188:	000121b7          	lui	x3,0x12
    8000318c:	3ab1819b          	addiw	x3,x3,939 # 123ab <offset+0x123ab>
    80003190:	0030b023          	sd	x3,0(x1)
    80003194:	0000d1b7          	lui	x3,0xd
    80003198:	ccc1819b          	addiw	x3,x3,-820 # cccc <offset+0xcccc>
    8000319c:	fff809b7          	lui	x19,0xfff80
    800031a0:	fff9899b          	addiw	x19,x19,-1 # fffffffffff7ffff <_end+0xffffffff7ff7a4f7>
    800031a4:	00000a13          	addi	x20,x0,0
    800031a8:	01498663          	beq	x19,x20,800031b4 <rvtest_code_begin+0x2da4>
    800031ac:	000121b7          	lui	x3,0x12
    800031b0:	3ab1819b          	addiw	x3,x3,939 # 123ab <offset+0x123ab>
    800031b4:	0030b423          	sd	x3,8(x1)
    800031b8:	0080006f          	jal	x0,800031c0 <rvtest_code_begin+0x2db0>
    800031bc:	0240006f          	jal	x0,800031e0 <rvtest_code_begin+0x2dd0>
    800031c0:	0000d1b7          	lui	x3,0xd
    800031c4:	ccc1819b          	addiw	x3,x3,-820 # cccc <offset+0xcccc>
    800031c8:	fff00a37          	lui	x20,0xfff00
    800031cc:	fffa0a1b          	addiw	x20,x20,-1 # ffffffffffefffff <_end+0xffffffff7fefa4f7>
    800031d0:	00000a93          	addi	x21,x0,0
    800031d4:	ff5a04e3          	beq	x20,x21,800031bc <rvtest_code_begin+0x2dac>
    800031d8:	000121b7          	lui	x3,0x12
    800031dc:	3ab1819b          	addiw	x3,x3,939 # 123ab <offset+0x123ab>
    800031e0:	0030b823          	sd	x3,16(x1)
    800031e4:	0000d1b7          	lui	x3,0xd
    800031e8:	ccc1819b          	addiw	x3,x3,-820 # cccc <offset+0xcccc>
    800031ec:	ffe00ab7          	lui	x21,0xffe00
    800031f0:	fffa8a9b          	addiw	x21,x21,-1 # ffffffffffdfffff <_end+0xffffffff7fdfa4f7>
    800031f4:	00000b13          	addi	x22,x0,0
    800031f8:	016a8663          	beq	x21,x22,80003204 <rvtest_code_begin+0x2df4>
    800031fc:	000121b7          	lui	x3,0x12
    80003200:	3ab1819b          	addiw	x3,x3,939 # 123ab <offset+0x123ab>
    80003204:	0030bc23          	sd	x3,24(x1)
    80003208:	0000d1b7          	lui	x3,0xd
    8000320c:	ccc1819b          	addiw	x3,x3,-820 # cccc <offset+0xcccc>
    80003210:	ffc00b37          	lui	x22,0xffc00
    80003214:	fffb0b1b          	addiw	x22,x22,-1 # ffffffffffbfffff <_end+0xffffffff7fbfa4f7>
    80003218:	00000b93          	addi	x23,x0,0
    8000321c:	017b0663          	beq	x22,x23,80003228 <rvtest_code_begin+0x2e18>
    80003220:	000121b7          	lui	x3,0x12
    80003224:	3ab1819b          	addiw	x3,x3,939 # 123ab <offset+0x123ab>
    80003228:	0230b023          	sd	x3,32(x1)
    8000322c:	00002097          	auipc	x1,0x2
    80003230:	5dc08093          	addi	x1,x1,1500 # 80005808 <signature_52_0>
    80003234:	0000d1b7          	lui	x3,0xd
    80003238:	ccc1819b          	addiw	x3,x3,-820 # cccc <offset+0xcccc>
    8000323c:	ff800bb7          	lui	x23,0xff800
    80003240:	fffb8b9b          	addiw	x23,x23,-1 # ffffffffff7fffff <_end+0xffffffff7f7fa4f7>
    80003244:	00000c13          	addi	x24,x0,0
    80003248:	018b8663          	beq	x23,x24,80003254 <rvtest_code_begin+0x2e44>
    8000324c:	000121b7          	lui	x3,0x12
    80003250:	3ab1819b          	addiw	x3,x3,939 # 123ab <offset+0x123ab>
    80003254:	0030b023          	sd	x3,0(x1)
    80003258:	0000d1b7          	lui	x3,0xd
    8000325c:	ccc1819b          	addiw	x3,x3,-820 # cccc <offset+0xcccc>
    80003260:	ff000c37          	lui	x24,0xff000
    80003264:	fffc0c1b          	addiw	x24,x24,-1 # fffffffffeffffff <_end+0xffffffff7effa4f7>
    80003268:	00000c93          	addi	x25,x0,0
    8000326c:	019c0663          	beq	x24,x25,80003278 <rvtest_code_begin+0x2e68>
    80003270:	000121b7          	lui	x3,0x12
    80003274:	3ab1819b          	addiw	x3,x3,939 # 123ab <offset+0x123ab>
    80003278:	0030b423          	sd	x3,8(x1)
    8000327c:	0080006f          	jal	x0,80003284 <rvtest_code_begin+0x2e74>
    80003280:	0240006f          	jal	x0,800032a4 <rvtest_code_begin+0x2e94>
    80003284:	0000d1b7          	lui	x3,0xd
    80003288:	ccc1819b          	addiw	x3,x3,-820 # cccc <offset+0xcccc>
    8000328c:	fe000cb7          	lui	x25,0xfe000
    80003290:	fffc8c9b          	addiw	x25,x25,-1 # fffffffffdffffff <_end+0xffffffff7dffa4f7>
    80003294:	00000d13          	addi	x26,x0,0
    80003298:	ffac84e3          	beq	x25,x26,80003280 <rvtest_code_begin+0x2e70>
    8000329c:	000121b7          	lui	x3,0x12
    800032a0:	3ab1819b          	addiw	x3,x3,939 # 123ab <offset+0x123ab>
    800032a4:	0030b823          	sd	x3,16(x1)
    800032a8:	0000d1b7          	lui	x3,0xd
    800032ac:	ccc1819b          	addiw	x3,x3,-820 # cccc <offset+0xcccc>
    800032b0:	fc000d37          	lui	x26,0xfc000
    800032b4:	fffd0d1b          	addiw	x26,x26,-1 # fffffffffbffffff <_end+0xffffffff7bffa4f7>
    800032b8:	00000d93          	addi	x27,x0,0
    800032bc:	01bd0663          	beq	x26,x27,800032c8 <rvtest_code_begin+0x2eb8>
    800032c0:	000121b7          	lui	x3,0x12
    800032c4:	3ab1819b          	addiw	x3,x3,939 # 123ab <offset+0x123ab>
    800032c8:	0030bc23          	sd	x3,24(x1)
    800032cc:	0000d1b7          	lui	x3,0xd
    800032d0:	ccc1819b          	addiw	x3,x3,-820 # cccc <offset+0xcccc>
    800032d4:	f8000db7          	lui	x27,0xf8000
    800032d8:	fffd8d9b          	addiw	x27,x27,-1 # fffffffff7ffffff <_end+0xffffffff77ffa4f7>
    800032dc:	00000e13          	addi	x28,x0,0
    800032e0:	01cd8663          	beq	x27,x28,800032ec <rvtest_code_begin+0x2edc>
    800032e4:	000121b7          	lui	x3,0x12
    800032e8:	3ab1819b          	addiw	x3,x3,939 # 123ab <offset+0x123ab>
    800032ec:	0230b023          	sd	x3,32(x1)
    800032f0:	00002197          	auipc	x3,0x2
    800032f4:	54018193          	addi	x3,x3,1344 # 80005830 <signature_53_0>
    800032f8:	0000d2b7          	lui	x5,0xd
    800032fc:	ccc2829b          	addiw	x5,x5,-820 # cccc <offset+0xcccc>
    80003300:	f0000e37          	lui	x28,0xf0000
    80003304:	fffe0e1b          	addiw	x28,x28,-1 # ffffffffefffffff <_end+0xffffffff6fffa4f7>
    80003308:	00000e93          	addi	x29,x0,0
    8000330c:	01de0663          	beq	x28,x29,80003318 <rvtest_code_begin+0x2f08>
    80003310:	000122b7          	lui	x5,0x12
    80003314:	3ab2829b          	addiw	x5,x5,939 # 123ab <offset+0x123ab>
    80003318:	0051b023          	sd	x5,0(x3)
    8000331c:	0000d2b7          	lui	x5,0xd
    80003320:	ccc2829b          	addiw	x5,x5,-820 # cccc <offset+0xcccc>
    80003324:	e0000eb7          	lui	x29,0xe0000
    80003328:	fffe8e9b          	addiw	x29,x29,-1 # ffffffffdfffffff <_end+0xffffffff5fffa4f7>
    8000332c:	00000f13          	addi	x30,x0,0
    80003330:	01ee8663          	beq	x29,x30,8000333c <rvtest_code_begin+0x2f2c>
    80003334:	000122b7          	lui	x5,0x12
    80003338:	3ab2829b          	addiw	x5,x5,939 # 123ab <offset+0x123ab>
    8000333c:	0051b423          	sd	x5,8(x3)
    80003340:	0080006f          	jal	x0,80003348 <rvtest_code_begin+0x2f38>
    80003344:	0240006f          	jal	x0,80003368 <rvtest_code_begin+0x2f58>
    80003348:	0000d2b7          	lui	x5,0xd
    8000334c:	ccc2829b          	addiw	x5,x5,-820 # cccc <offset+0xcccc>
    80003350:	c0000f37          	lui	x30,0xc0000
    80003354:	ffff0f1b          	addiw	x30,x30,-1 # ffffffffbfffffff <_end+0xffffffff3fffa4f7>
    80003358:	00000f93          	addi	x31,x0,0
    8000335c:	ffff04e3          	beq	x30,x31,80003344 <rvtest_code_begin+0x2f34>
    80003360:	000122b7          	lui	x5,0x12
    80003364:	3ab2829b          	addiw	x5,x5,939 # 123ab <offset+0x123ab>
    80003368:	0051b823          	sd	x5,16(x3)
    8000336c:	0000d2b7          	lui	x5,0xd
    80003370:	ccc2829b          	addiw	x5,x5,-820 # cccc <offset+0xcccc>
    80003374:	fff00f9b          	addiw	x31,x0,-1
    80003378:	01ff9f93          	slli	x31,x31,0x1f
    8000337c:	ffff8f93          	addi	x31,x31,-1
    80003380:	00000093          	addi	x1,x0,0
    80003384:	001f8663          	beq	x31,x1,80003390 <rvtest_code_begin+0x2f80>
    80003388:	000122b7          	lui	x5,0x12
    8000338c:	3ab2829b          	addiw	x5,x5,939 # 123ab <offset+0x123ab>
    80003390:	0051bc23          	sd	x5,24(x3)
    80003394:	0000d2b7          	lui	x5,0xd
    80003398:	ccc2829b          	addiw	x5,x5,-820 # cccc <offset+0xcccc>
    8000339c:	fff0009b          	addiw	x1,x0,-1
    800033a0:	02009093          	slli	x1,x1,0x20
    800033a4:	fff08093          	addi	x1,x1,-1
    800033a8:	00000113          	addi	x2,x0,0
    800033ac:	00208663          	beq	x1,x2,800033b8 <rvtest_code_begin+0x2fa8>
    800033b0:	000122b7          	lui	x5,0x12
    800033b4:	3ab2829b          	addiw	x5,x5,939 # 123ab <offset+0x123ab>
    800033b8:	0251b023          	sd	x5,32(x3)
    800033bc:	00002397          	auipc	x7,0x2
    800033c0:	49c38393          	addi	x7,x7,1180 # 80005858 <signature_54_0>
    800033c4:	0000d4b7          	lui	x9,0xd
    800033c8:	ccc4849b          	addiw	x9,x9,-820 # cccc <offset+0xcccc>
    800033cc:	fff0009b          	addiw	x1,x0,-1
    800033d0:	02109093          	slli	x1,x1,0x21
    800033d4:	fff08093          	addi	x1,x1,-1
    800033d8:	00000113          	addi	x2,x0,0
    800033dc:	00208663          	beq	x1,x2,800033e8 <rvtest_code_begin+0x2fd8>
    800033e0:	000124b7          	lui	x9,0x12
    800033e4:	3ab4849b          	addiw	x9,x9,939 # 123ab <offset+0x123ab>
    800033e8:	0093b023          	sd	x9,0(x7)
    800033ec:	0000d4b7          	lui	x9,0xd
    800033f0:	ccc4849b          	addiw	x9,x9,-820 # cccc <offset+0xcccc>
    800033f4:	fff0011b          	addiw	x2,x0,-1
    800033f8:	02211113          	slli	x2,x2,0x22
    800033fc:	fff10113          	addi	x2,x2,-1
    80003400:	00000193          	addi	x3,x0,0
    80003404:	00310663          	beq	x2,x3,80003410 <rvtest_code_begin+0x3000>
    80003408:	000124b7          	lui	x9,0x12
    8000340c:	3ab4849b          	addiw	x9,x9,939 # 123ab <offset+0x123ab>
    80003410:	0093b423          	sd	x9,8(x7)
    80003414:	0080006f          	jal	x0,8000341c <rvtest_code_begin+0x300c>
    80003418:	0280006f          	jal	x0,80003440 <rvtest_code_begin+0x3030>
    8000341c:	0000d4b7          	lui	x9,0xd
    80003420:	ccc4849b          	addiw	x9,x9,-820 # cccc <offset+0xcccc>
    80003424:	fff0019b          	addiw	x3,x0,-1
    80003428:	02319193          	slli	x3,x3,0x23
    8000342c:	fff18193          	addi	x3,x3,-1
    80003430:	00000213          	addi	x4,x0,0
    80003434:	fe4182e3          	beq	x3,x4,80003418 <rvtest_code_begin+0x3008>
    80003438:	000124b7          	lui	x9,0x12
    8000343c:	3ab4849b          	addiw	x9,x9,939 # 123ab <offset+0x123ab>
    80003440:	0093b823          	sd	x9,16(x7)
    80003444:	0000d4b7          	lui	x9,0xd
    80003448:	ccc4849b          	addiw	x9,x9,-820 # cccc <offset+0xcccc>
    8000344c:	fff0021b          	addiw	x4,x0,-1
    80003450:	02421213          	slli	x4,x4,0x24
    80003454:	fff20213          	addi	x4,x4,-1
    80003458:	00000293          	addi	x5,x0,0
    8000345c:	00520663          	beq	x4,x5,80003468 <rvtest_code_begin+0x3058>
    80003460:	000124b7          	lui	x9,0x12
    80003464:	3ab4849b          	addiw	x9,x9,939 # 123ab <offset+0x123ab>
    80003468:	0093bc23          	sd	x9,24(x7)
    8000346c:	0000d4b7          	lui	x9,0xd
    80003470:	ccc4849b          	addiw	x9,x9,-820 # cccc <offset+0xcccc>
    80003474:	fff0029b          	addiw	x5,x0,-1
    80003478:	02529293          	slli	x5,x5,0x25
    8000347c:	fff28293          	addi	x5,x5,-1
    80003480:	00000313          	addi	x6,x0,0
    80003484:	00628663          	beq	x5,x6,80003490 <rvtest_code_begin+0x3080>
    80003488:	000124b7          	lui	x9,0x12
    8000348c:	3ab4849b          	addiw	x9,x9,939 # 123ab <offset+0x123ab>
    80003490:	0293b023          	sd	x9,32(x7)
    80003494:	00002097          	auipc	x1,0x2
    80003498:	3ec08093          	addi	x1,x1,1004 # 80005880 <signature_55_0>
    8000349c:	0000d1b7          	lui	x3,0xd
    800034a0:	ccc1819b          	addiw	x3,x3,-820 # cccc <offset+0xcccc>
    800034a4:	fff0031b          	addiw	x6,x0,-1
    800034a8:	02631313          	slli	x6,x6,0x26
    800034ac:	fff30313          	addi	x6,x6,-1
    800034b0:	00000393          	addi	x7,x0,0
    800034b4:	00730663          	beq	x6,x7,800034c0 <rvtest_code_begin+0x30b0>
    800034b8:	000121b7          	lui	x3,0x12
    800034bc:	3ab1819b          	addiw	x3,x3,939 # 123ab <offset+0x123ab>
    800034c0:	0030b023          	sd	x3,0(x1)
    800034c4:	0000d1b7          	lui	x3,0xd
    800034c8:	ccc1819b          	addiw	x3,x3,-820 # cccc <offset+0xcccc>
    800034cc:	fff0039b          	addiw	x7,x0,-1
    800034d0:	02739393          	slli	x7,x7,0x27
    800034d4:	fff38393          	addi	x7,x7,-1
    800034d8:	00000413          	addi	x8,x0,0
    800034dc:	00838663          	beq	x7,x8,800034e8 <rvtest_code_begin+0x30d8>
    800034e0:	000121b7          	lui	x3,0x12
    800034e4:	3ab1819b          	addiw	x3,x3,939 # 123ab <offset+0x123ab>
    800034e8:	0030b423          	sd	x3,8(x1)
    800034ec:	0080006f          	jal	x0,800034f4 <rvtest_code_begin+0x30e4>
    800034f0:	0280006f          	jal	x0,80003518 <rvtest_code_begin+0x3108>
    800034f4:	0000d1b7          	lui	x3,0xd
    800034f8:	ccc1819b          	addiw	x3,x3,-820 # cccc <offset+0xcccc>
    800034fc:	fff0041b          	addiw	x8,x0,-1
    80003500:	02841413          	slli	x8,x8,0x28
    80003504:	fff40413          	addi	x8,x8,-1
    80003508:	00000493          	addi	x9,x0,0
    8000350c:	fe9402e3          	beq	x8,x9,800034f0 <rvtest_code_begin+0x30e0>
    80003510:	000121b7          	lui	x3,0x12
    80003514:	3ab1819b          	addiw	x3,x3,939 # 123ab <offset+0x123ab>
    80003518:	0030b823          	sd	x3,16(x1)
    8000351c:	0000d1b7          	lui	x3,0xd
    80003520:	ccc1819b          	addiw	x3,x3,-820 # cccc <offset+0xcccc>
    80003524:	fff0049b          	addiw	x9,x0,-1
    80003528:	02949493          	slli	x9,x9,0x29
    8000352c:	fff48493          	addi	x9,x9,-1
    80003530:	00000513          	addi	x10,x0,0
    80003534:	00a48663          	beq	x9,x10,80003540 <rvtest_code_begin+0x3130>
    80003538:	000121b7          	lui	x3,0x12
    8000353c:	3ab1819b          	addiw	x3,x3,939 # 123ab <offset+0x123ab>
    80003540:	0030bc23          	sd	x3,24(x1)
    80003544:	0000d1b7          	lui	x3,0xd
    80003548:	ccc1819b          	addiw	x3,x3,-820 # cccc <offset+0xcccc>
    8000354c:	fff0051b          	addiw	x10,x0,-1
    80003550:	02a51513          	slli	x10,x10,0x2a
    80003554:	fff50513          	addi	x10,x10,-1
    80003558:	00000593          	addi	x11,x0,0
    8000355c:	00b50663          	beq	x10,x11,80003568 <rvtest_code_begin+0x3158>
    80003560:	000121b7          	lui	x3,0x12
    80003564:	3ab1819b          	addiw	x3,x3,939 # 123ab <offset+0x123ab>
    80003568:	0230b023          	sd	x3,32(x1)
    8000356c:	00002097          	auipc	x1,0x2
    80003570:	33c08093          	addi	x1,x1,828 # 800058a8 <signature_56_0>
    80003574:	0000d1b7          	lui	x3,0xd
    80003578:	ccc1819b          	addiw	x3,x3,-820 # cccc <offset+0xcccc>
    8000357c:	fff0059b          	addiw	x11,x0,-1
    80003580:	02b59593          	slli	x11,x11,0x2b
    80003584:	fff58593          	addi	x11,x11,-1
    80003588:	00000613          	addi	x12,x0,0
    8000358c:	00c58663          	beq	x11,x12,80003598 <rvtest_code_begin+0x3188>
    80003590:	000121b7          	lui	x3,0x12
    80003594:	3ab1819b          	addiw	x3,x3,939 # 123ab <offset+0x123ab>
    80003598:	0030b023          	sd	x3,0(x1)
    8000359c:	0000d1b7          	lui	x3,0xd
    800035a0:	ccc1819b          	addiw	x3,x3,-820 # cccc <offset+0xcccc>
    800035a4:	fff0061b          	addiw	x12,x0,-1
    800035a8:	02c61613          	slli	x12,x12,0x2c
    800035ac:	fff60613          	addi	x12,x12,-1
    800035b0:	00000693          	addi	x13,x0,0
    800035b4:	00d60663          	beq	x12,x13,800035c0 <rvtest_code_begin+0x31b0>
    800035b8:	000121b7          	lui	x3,0x12
    800035bc:	3ab1819b          	addiw	x3,x3,939 # 123ab <offset+0x123ab>
    800035c0:	0030b423          	sd	x3,8(x1)
    800035c4:	0080006f          	jal	x0,800035cc <rvtest_code_begin+0x31bc>
    800035c8:	0280006f          	jal	x0,800035f0 <rvtest_code_begin+0x31e0>
    800035cc:	0000d1b7          	lui	x3,0xd
    800035d0:	ccc1819b          	addiw	x3,x3,-820 # cccc <offset+0xcccc>
    800035d4:	fff0069b          	addiw	x13,x0,-1
    800035d8:	02d69693          	slli	x13,x13,0x2d
    800035dc:	fff68693          	addi	x13,x13,-1
    800035e0:	00000713          	addi	x14,x0,0
    800035e4:	fee682e3          	beq	x13,x14,800035c8 <rvtest_code_begin+0x31b8>
    800035e8:	000121b7          	lui	x3,0x12
    800035ec:	3ab1819b          	addiw	x3,x3,939 # 123ab <offset+0x123ab>
    800035f0:	0030b823          	sd	x3,16(x1)
    800035f4:	0000d1b7          	lui	x3,0xd
    800035f8:	ccc1819b          	addiw	x3,x3,-820 # cccc <offset+0xcccc>
    800035fc:	fff0071b          	addiw	x14,x0,-1
    80003600:	02e71713          	slli	x14,x14,0x2e
    80003604:	fff70713          	addi	x14,x14,-1
    80003608:	00000793          	addi	x15,x0,0
    8000360c:	00f70663          	beq	x14,x15,80003618 <rvtest_code_begin+0x3208>
    80003610:	000121b7          	lui	x3,0x12
    80003614:	3ab1819b          	addiw	x3,x3,939 # 123ab <offset+0x123ab>
    80003618:	0030bc23          	sd	x3,24(x1)
    8000361c:	0000d1b7          	lui	x3,0xd
    80003620:	ccc1819b          	addiw	x3,x3,-820 # cccc <offset+0xcccc>
    80003624:	fff0079b          	addiw	x15,x0,-1
    80003628:	02f79793          	slli	x15,x15,0x2f
    8000362c:	fff78793          	addi	x15,x15,-1
    80003630:	00000813          	addi	x16,x0,0
    80003634:	01078663          	beq	x15,x16,80003640 <rvtest_code_begin+0x3230>
    80003638:	000121b7          	lui	x3,0x12
    8000363c:	3ab1819b          	addiw	x3,x3,939 # 123ab <offset+0x123ab>
    80003640:	0230b023          	sd	x3,32(x1)
    80003644:	00002097          	auipc	x1,0x2
    80003648:	28c08093          	addi	x1,x1,652 # 800058d0 <signature_57_0>
    8000364c:	0000d1b7          	lui	x3,0xd
    80003650:	ccc1819b          	addiw	x3,x3,-820 # cccc <offset+0xcccc>
    80003654:	fff0081b          	addiw	x16,x0,-1
    80003658:	03081813          	slli	x16,x16,0x30
    8000365c:	fff80813          	addi	x16,x16,-1
    80003660:	00000893          	addi	x17,x0,0
    80003664:	01180663          	beq	x16,x17,80003670 <rvtest_code_begin+0x3260>
    80003668:	000121b7          	lui	x3,0x12
    8000366c:	3ab1819b          	addiw	x3,x3,939 # 123ab <offset+0x123ab>
    80003670:	0030b023          	sd	x3,0(x1)
    80003674:	0000d1b7          	lui	x3,0xd
    80003678:	ccc1819b          	addiw	x3,x3,-820 # cccc <offset+0xcccc>
    8000367c:	fff0089b          	addiw	x17,x0,-1
    80003680:	03189893          	slli	x17,x17,0x31
    80003684:	fff88893          	addi	x17,x17,-1
    80003688:	00000913          	addi	x18,x0,0
    8000368c:	01288663          	beq	x17,x18,80003698 <rvtest_code_begin+0x3288>
    80003690:	000121b7          	lui	x3,0x12
    80003694:	3ab1819b          	addiw	x3,x3,939 # 123ab <offset+0x123ab>
    80003698:	0030b423          	sd	x3,8(x1)
    8000369c:	0080006f          	jal	x0,800036a4 <rvtest_code_begin+0x3294>
    800036a0:	0280006f          	jal	x0,800036c8 <rvtest_code_begin+0x32b8>
    800036a4:	0000d1b7          	lui	x3,0xd
    800036a8:	ccc1819b          	addiw	x3,x3,-820 # cccc <offset+0xcccc>
    800036ac:	fff0091b          	addiw	x18,x0,-1
    800036b0:	03291913          	slli	x18,x18,0x32
    800036b4:	fff90913          	addi	x18,x18,-1
    800036b8:	00000993          	addi	x19,x0,0
    800036bc:	ff3902e3          	beq	x18,x19,800036a0 <rvtest_code_begin+0x3290>
    800036c0:	000121b7          	lui	x3,0x12
    800036c4:	3ab1819b          	addiw	x3,x3,939 # 123ab <offset+0x123ab>
    800036c8:	0030b823          	sd	x3,16(x1)
    800036cc:	0000d1b7          	lui	x3,0xd
    800036d0:	ccc1819b          	addiw	x3,x3,-820 # cccc <offset+0xcccc>
    800036d4:	fff0099b          	addiw	x19,x0,-1
    800036d8:	03399993          	slli	x19,x19,0x33
    800036dc:	fff98993          	addi	x19,x19,-1
    800036e0:	00000a13          	addi	x20,x0,0
    800036e4:	01498663          	beq	x19,x20,800036f0 <rvtest_code_begin+0x32e0>
    800036e8:	000121b7          	lui	x3,0x12
    800036ec:	3ab1819b          	addiw	x3,x3,939 # 123ab <offset+0x123ab>
    800036f0:	0030bc23          	sd	x3,24(x1)
    800036f4:	0000d1b7          	lui	x3,0xd
    800036f8:	ccc1819b          	addiw	x3,x3,-820 # cccc <offset+0xcccc>
    800036fc:	fff00a1b          	addiw	x20,x0,-1
    80003700:	034a1a13          	slli	x20,x20,0x34
    80003704:	fffa0a13          	addi	x20,x20,-1
    80003708:	00000a93          	addi	x21,x0,0
    8000370c:	015a0663          	beq	x20,x21,80003718 <rvtest_code_begin+0x3308>
    80003710:	000121b7          	lui	x3,0x12
    80003714:	3ab1819b          	addiw	x3,x3,939 # 123ab <offset+0x123ab>
    80003718:	0230b023          	sd	x3,32(x1)
    8000371c:	00002097          	auipc	x1,0x2
    80003720:	1dc08093          	addi	x1,x1,476 # 800058f8 <signature_58_0>
    80003724:	0000d1b7          	lui	x3,0xd
    80003728:	ccc1819b          	addiw	x3,x3,-820 # cccc <offset+0xcccc>
    8000372c:	fff00a9b          	addiw	x21,x0,-1
    80003730:	035a9a93          	slli	x21,x21,0x35
    80003734:	fffa8a93          	addi	x21,x21,-1
    80003738:	00000b13          	addi	x22,x0,0
    8000373c:	016a8663          	beq	x21,x22,80003748 <rvtest_code_begin+0x3338>
    80003740:	000121b7          	lui	x3,0x12
    80003744:	3ab1819b          	addiw	x3,x3,939 # 123ab <offset+0x123ab>
    80003748:	0030b023          	sd	x3,0(x1)
    8000374c:	0000d1b7          	lui	x3,0xd
    80003750:	ccc1819b          	addiw	x3,x3,-820 # cccc <offset+0xcccc>
    80003754:	fff00b1b          	addiw	x22,x0,-1
    80003758:	036b1b13          	slli	x22,x22,0x36
    8000375c:	fffb0b13          	addi	x22,x22,-1
    80003760:	00000b93          	addi	x23,x0,0
    80003764:	017b0663          	beq	x22,x23,80003770 <rvtest_code_begin+0x3360>
    80003768:	000121b7          	lui	x3,0x12
    8000376c:	3ab1819b          	addiw	x3,x3,939 # 123ab <offset+0x123ab>
    80003770:	0030b423          	sd	x3,8(x1)
    80003774:	0080006f          	jal	x0,8000377c <rvtest_code_begin+0x336c>
    80003778:	0280006f          	jal	x0,800037a0 <rvtest_code_begin+0x3390>
    8000377c:	0000d1b7          	lui	x3,0xd
    80003780:	ccc1819b          	addiw	x3,x3,-820 # cccc <offset+0xcccc>
    80003784:	fff00b9b          	addiw	x23,x0,-1
    80003788:	037b9b93          	slli	x23,x23,0x37
    8000378c:	fffb8b93          	addi	x23,x23,-1
    80003790:	00000c13          	addi	x24,x0,0
    80003794:	ff8b82e3          	beq	x23,x24,80003778 <rvtest_code_begin+0x3368>
    80003798:	000121b7          	lui	x3,0x12
    8000379c:	3ab1819b          	addiw	x3,x3,939 # 123ab <offset+0x123ab>
    800037a0:	0030b823          	sd	x3,16(x1)
    800037a4:	0000d1b7          	lui	x3,0xd
    800037a8:	ccc1819b          	addiw	x3,x3,-820 # cccc <offset+0xcccc>
    800037ac:	fff00c1b          	addiw	x24,x0,-1
    800037b0:	038c1c13          	slli	x24,x24,0x38
    800037b4:	fffc0c13          	addi	x24,x24,-1
    800037b8:	00000c93          	addi	x25,x0,0
    800037bc:	019c0663          	beq	x24,x25,800037c8 <rvtest_code_begin+0x33b8>
    800037c0:	000121b7          	lui	x3,0x12
    800037c4:	3ab1819b          	addiw	x3,x3,939 # 123ab <offset+0x123ab>
    800037c8:	0030bc23          	sd	x3,24(x1)
    800037cc:	0000d1b7          	lui	x3,0xd
    800037d0:	ccc1819b          	addiw	x3,x3,-820 # cccc <offset+0xcccc>
    800037d4:	fff00c9b          	addiw	x25,x0,-1
    800037d8:	039c9c93          	slli	x25,x25,0x39
    800037dc:	fffc8c93          	addi	x25,x25,-1
    800037e0:	00000d13          	addi	x26,x0,0
    800037e4:	01ac8663          	beq	x25,x26,800037f0 <rvtest_code_begin+0x33e0>
    800037e8:	000121b7          	lui	x3,0x12
    800037ec:	3ab1819b          	addiw	x3,x3,939 # 123ab <offset+0x123ab>
    800037f0:	0230b023          	sd	x3,32(x1)
    800037f4:	00002097          	auipc	x1,0x2
    800037f8:	12c08093          	addi	x1,x1,300 # 80005920 <signature_59_0>
    800037fc:	0000d1b7          	lui	x3,0xd
    80003800:	ccc1819b          	addiw	x3,x3,-820 # cccc <offset+0xcccc>
    80003804:	fff00d1b          	addiw	x26,x0,-1
    80003808:	03ad1d13          	slli	x26,x26,0x3a
    8000380c:	fffd0d13          	addi	x26,x26,-1
    80003810:	00000d93          	addi	x27,x0,0
    80003814:	01bd0663          	beq	x26,x27,80003820 <rvtest_code_begin+0x3410>
    80003818:	000121b7          	lui	x3,0x12
    8000381c:	3ab1819b          	addiw	x3,x3,939 # 123ab <offset+0x123ab>
    80003820:	0030b023          	sd	x3,0(x1)
    80003824:	0000d1b7          	lui	x3,0xd
    80003828:	ccc1819b          	addiw	x3,x3,-820 # cccc <offset+0xcccc>
    8000382c:	fff00d9b          	addiw	x27,x0,-1
    80003830:	03bd9d93          	slli	x27,x27,0x3b
    80003834:	fffd8d93          	addi	x27,x27,-1
    80003838:	00000e13          	addi	x28,x0,0
    8000383c:	01cd8663          	beq	x27,x28,80003848 <rvtest_code_begin+0x3438>
    80003840:	000121b7          	lui	x3,0x12
    80003844:	3ab1819b          	addiw	x3,x3,939 # 123ab <offset+0x123ab>
    80003848:	0030b423          	sd	x3,8(x1)
    8000384c:	0080006f          	jal	x0,80003854 <rvtest_code_begin+0x3444>
    80003850:	0280006f          	jal	x0,80003878 <rvtest_code_begin+0x3468>
    80003854:	0000d1b7          	lui	x3,0xd
    80003858:	ccc1819b          	addiw	x3,x3,-820 # cccc <offset+0xcccc>
    8000385c:	fff00e1b          	addiw	x28,x0,-1
    80003860:	03ce1e13          	slli	x28,x28,0x3c
    80003864:	fffe0e13          	addi	x28,x28,-1
    80003868:	00000e93          	addi	x29,x0,0
    8000386c:	ffde02e3          	beq	x28,x29,80003850 <rvtest_code_begin+0x3440>
    80003870:	000121b7          	lui	x3,0x12
    80003874:	3ab1819b          	addiw	x3,x3,939 # 123ab <offset+0x123ab>
    80003878:	0030b823          	sd	x3,16(x1)
    8000387c:	0000d1b7          	lui	x3,0xd
    80003880:	ccc1819b          	addiw	x3,x3,-820 # cccc <offset+0xcccc>
    80003884:	fff00e9b          	addiw	x29,x0,-1
    80003888:	03de9e93          	slli	x29,x29,0x3d
    8000388c:	fffe8e93          	addi	x29,x29,-1
    80003890:	00000f13          	addi	x30,x0,0
    80003894:	01ee8663          	beq	x29,x30,800038a0 <rvtest_code_begin+0x3490>
    80003898:	000121b7          	lui	x3,0x12
    8000389c:	3ab1819b          	addiw	x3,x3,939 # 123ab <offset+0x123ab>
    800038a0:	0030bc23          	sd	x3,24(x1)
    800038a4:	0000d1b7          	lui	x3,0xd
    800038a8:	ccc1819b          	addiw	x3,x3,-820 # cccc <offset+0xcccc>
    800038ac:	fff00f1b          	addiw	x30,x0,-1
    800038b0:	03ef1f13          	slli	x30,x30,0x3e
    800038b4:	ffff0f13          	addi	x30,x30,-1
    800038b8:	00000f93          	addi	x31,x0,0
    800038bc:	01ff0663          	beq	x30,x31,800038c8 <rvtest_code_begin+0x34b8>
    800038c0:	000121b7          	lui	x3,0x12
    800038c4:	3ab1819b          	addiw	x3,x3,939 # 123ab <offset+0x123ab>
    800038c8:	0230b023          	sd	x3,32(x1)
    800038cc:	00002117          	auipc	x2,0x2
    800038d0:	07c10113          	addi	x2,x2,124 # 80005948 <signature_60_0>
    800038d4:	0000d237          	lui	x4,0xd
    800038d8:	ccc2021b          	addiw	x4,x4,-820 # cccc <offset+0xcccc>
    800038dc:	fff00f9b          	addiw	x31,x0,-1
    800038e0:	03ff9f93          	slli	x31,x31,0x3f
    800038e4:	ffff8f93          	addi	x31,x31,-1
    800038e8:	00000093          	addi	x1,x0,0
    800038ec:	001f8663          	beq	x31,x1,800038f8 <rvtest_code_begin+0x34e8>
    800038f0:	00012237          	lui	x4,0x12
    800038f4:	3ab2021b          	addiw	x4,x4,939 # 123ab <offset+0x123ab>
    800038f8:	00413023          	sd	x4,0(x2)
    800038fc:	0000d237          	lui	x4,0xd
    80003900:	ccc2021b          	addiw	x4,x4,-820 # cccc <offset+0xcccc>
    80003904:	ffe85b37          	lui	x22,0xffe85
    80003908:	5a9b0b1b          	addiw	x22,x22,1449 # ffffffffffe855a9 <_end+0xffffffff7fe7faa1>
    8000390c:	00eb1b13          	slli	x22,x22,0xe
    80003910:	377b0b13          	addi	x22,x22,887
    80003914:	00db1b13          	slli	x22,x22,0xd
    80003918:	f73b0b13          	addi	x22,x22,-141
    8000391c:	00db1b13          	slli	x22,x22,0xd
    80003920:	e94b0b13          	addi	x22,x22,-364
    80003924:	00271b37          	lui	x22,0x271
    80003928:	ce7b0b1b          	addiw	x22,x22,-793 # 270ce7 <offset+0x270ce7>
    8000392c:	00eb1b13          	slli	x22,x22,0xe
    80003930:	553b0b13          	addi	x22,x22,1363
    80003934:	00db1b13          	slli	x22,x22,0xd
    80003938:	0afb0b13          	addi	x22,x22,175
    8000393c:	00eb1b13          	slli	x22,x22,0xe
    80003940:	336b0b13          	addi	x22,x22,822
    80003944:	016b0663          	beq	x22,x22,80003950 <rvtest_code_begin+0x3540>
    80003948:	00012237          	lui	x4,0x12
    8000394c:	3ab2021b          	addiw	x4,x4,939 # 123ab <offset+0x123ab>
    80003950:	00413423          	sd	x4,8(x2)
    80003954:	0080006f          	jal	x0,8000395c <rvtest_code_begin+0x354c>
    80003958:	0580006f          	jal	x0,800039b0 <rvtest_code_begin+0x35a0>
    8000395c:	0000d237          	lui	x4,0xd
    80003960:	ccc2021b          	addiw	x4,x4,-820 # cccc <offset+0xcccc>
    80003964:	00b46037          	lui	x0,0xb46
    80003968:	b330001b          	addiw	x0,x0,-1229
    8000396c:	00c01013          	slli	x0,x0,0xc
    80003970:	25900013          	addi	x0,x0,601
    80003974:	00d01013          	slli	x0,x0,0xd
    80003978:	dc900013          	addi	x0,x0,-567
    8000397c:	00d01013          	slli	x0,x0,0xd
    80003980:	dcd00013          	addi	x0,x0,-563
    80003984:	010686b7          	lui	x13,0x1068
    80003988:	13f6869b          	addiw	x13,x13,319 # 106813f <offset+0x106813f>
    8000398c:	00c69693          	slli	x13,x13,0xc
    80003990:	ac168693          	addi	x13,x13,-1343
    80003994:	00d69693          	slli	x13,x13,0xd
    80003998:	58968693          	addi	x13,x13,1417
    8000399c:	00d69693          	slli	x13,x13,0xd
    800039a0:	e7368693          	addi	x13,x13,-397
    800039a4:	fad00ae3          	beq	x0,x13,80003958 <rvtest_code_begin+0x3548>
    800039a8:	00012237          	lui	x4,0x12
    800039ac:	3ab2021b          	addiw	x4,x4,939 # 123ab <offset+0x123ab>
    800039b0:	00413823          	sd	x4,16(x2)
    800039b4:	0000d237          	lui	x4,0xd
    800039b8:	ccc2021b          	addiw	x4,x4,-820 # cccc <offset+0xcccc>
    800039bc:	017af3b7          	lui	x7,0x17af
    800039c0:	ca73839b          	addiw	x7,x7,-857 # 17aeca7 <offset+0x17aeca7>
    800039c4:	00c39393          	slli	x7,x7,0xc
    800039c8:	62538393          	addi	x7,x7,1573
    800039cc:	00c39393          	slli	x7,x7,0xc
    800039d0:	69d38393          	addi	x7,x7,1693
    800039d4:	00e39393          	slli	x7,x7,0xe
    800039d8:	54538393          	addi	x7,x7,1349
    800039dc:	05a5c037          	lui	x0,0x5a5c
    800039e0:	b730001b          	addiw	x0,x0,-1165
    800039e4:	00c01013          	slli	x0,x0,0xc
    800039e8:	68b00013          	addi	x0,x0,1675
    800039ec:	00c01013          	slli	x0,x0,0xc
    800039f0:	4ed00013          	addi	x0,x0,1261
    800039f4:	00c01013          	slli	x0,x0,0xc
    800039f8:	ba800013          	addi	x0,x0,-1112
    800039fc:	00038663          	beq	x7,x0,80003a08 <rvtest_code_begin+0x35f8>
    80003a00:	00012237          	lui	x4,0x12
    80003a04:	3ab2021b          	addiw	x4,x4,939 # 123ab <offset+0x123ab>
    80003a08:	00413c23          	sd	x4,24(x2)
    80003a0c:	00000013          	addi	x0,x0,0

0000000080003a10 <rvtest_code_end>:
    80003a10:	0ff0000f          	fence	iorw,iorw
    80003a14:	00000073          	ecall
	...
