
code/prog.elf:     file format elf64-littleriscv


Disassembly of section .text:

0000000000000000 <_start>:
   0:	00008137          	lui	x2,0x8
   4:	00002197          	auipc	x3,0x2
   8:	93018193          	addi	x3,x3,-1744 # 1934 <__global_pointer$>
   c:	00001517          	auipc	x10,0x1
  10:	19450513          	addi	x10,x10,404 # 11a0 <__BSS_END__>
  14:	00001597          	auipc	x11,0x1
  18:	18c58593          	addi	x11,x11,396 # 11a0 <__BSS_END__>

000000000000001c <while__0>:
  1c:	00b57863          	bgeu	x10,x11,2c <end__0>
  20:	00050023          	sb	x0,0(x10)
  24:	00150513          	addi	x10,x10,1
  28:	ff5ff06f          	jal	x0,1c <while__0>

000000000000002c <end__0>:
  2c:	00000097          	auipc	x1,0x0
  30:	0c8080e7          	jalr	x1,200(x1) # f4 <main>

0000000000000034 <while__1>:
  34:	0000006f          	jal	x0,34 <while__1>

0000000000000038 <trap>:
  38:	f8010113          	addi	x2,x2,-128 # 7f80 <__global_pointer$+0x664c>
  3c:	00113023          	sd	x1,0(x2)
  40:	00a13423          	sd	x10,8(x2)
  44:	00b13823          	sd	x11,16(x2)
  48:	00c13c23          	sd	x12,24(x2)
  4c:	02d13023          	sd	x13,32(x2)
  50:	02e13423          	sd	x14,40(x2)
  54:	02f13823          	sd	x15,48(x2)
  58:	03013c23          	sd	x16,56(x2)
  5c:	05113023          	sd	x17,64(x2)
  60:	04513423          	sd	x5,72(x2)
  64:	04613823          	sd	x6,80(x2)
  68:	04713c23          	sd	x7,88(x2)
  6c:	07c13023          	sd	x28,96(x2)
  70:	07d13423          	sd	x29,104(x2)
  74:	07e13823          	sd	x30,112(x2)
  78:	07f13c23          	sd	x31,120(x2)
  7c:	34202573          	csrrs	x10,mcause,x0

0000000000000080 <if__0>:
  80:	00054863          	blt	x10,x0,90 <else__0>

0000000000000084 <then__0>:
  84:	00001597          	auipc	x11,0x1
  88:	0b058593          	addi	x11,x11,176 # 1134 <__DATA_BEGIN__>
  8c:	0100006f          	jal	x0,9c <end__0>

0000000000000090 <else__0>:
  90:	00001597          	auipc	x11,0x1
  94:	10458593          	addi	x11,x11,260 # 1194 <table__1>
  98:	0040006f          	jal	x0,9c <end__0>

000000000000009c <end__0>:
  9c:	00351513          	slli	x10,x10,0x3
  a0:	00a585b3          	add	x11,x11,x10
  a4:	0005b603          	ld	x12,0(x11)
  a8:	000600e7          	jalr	x1,0(x12)
  ac:	00013083          	ld	x1,0(x2)
  b0:	00813503          	ld	x10,8(x2)
  b4:	01013583          	ld	x11,16(x2)
  b8:	01813603          	ld	x12,24(x2)
  bc:	02013683          	ld	x13,32(x2)
  c0:	02813703          	ld	x14,40(x2)
  c4:	03013783          	ld	x15,48(x2)
  c8:	03813803          	ld	x16,56(x2)
  cc:	04013883          	ld	x17,64(x2)
  d0:	04813283          	ld	x5,72(x2)
  d4:	05013303          	ld	x6,80(x2)
  d8:	05813383          	ld	x7,88(x2)
  dc:	06013e03          	ld	x28,96(x2)
  e0:	06813e83          	ld	x29,104(x2)
  e4:	07013f03          	ld	x30,112(x2)
  e8:	07813f83          	ld	x31,120(x2)
  ec:	f8010113          	addi	x2,x2,-128
  f0:	30200073          	mret

00000000000000f4 <main>:
  f4:	ff010113          	addi	x2,x2,-16
  f8:	00113423          	sd	x1,8(x2)
  fc:	00813023          	sd	x8,0(x2)
 100:	01010413          	addi	x8,x2,16
 104:	00000097          	auipc	x1,0x0
 108:	020080e7          	jalr	x1,32(x1) # 124 <init>
 10c:	00000793          	addi	x15,x0,0
 110:	00078513          	addi	x10,x15,0
 114:	00813083          	ld	x1,8(x2)
 118:	00013403          	ld	x8,0(x2)
 11c:	01010113          	addi	x2,x2,16
 120:	00008067          	jalr	x0,0(x1)

0000000000000124 <init>:
 124:	00000297          	auipc	x5,0x0
 128:	f1428293          	addi	x5,x5,-236 # 38 <trap>
 12c:	30529073          	csrrw	x0,mtvec,x5
 130:	00008067          	jalr	x0,0(x1)
