
ucode/prog.elf:     file format elf64-littleriscv


Disassembly of section .text:

0000000000000000 <_start>:
   0:	00008137          	lui	x2,0x8
   4:	00002197          	auipc	x3,0x2
   8:	92018193          	addi	x3,x3,-1760 # 1924 <__global_pointer$>
   c:	00001297          	auipc	x5,0x1
  10:	1f828293          	addi	x5,x5,504 # 1204 <__SDATA_BEGIN__>
  14:	00001317          	auipc	x6,0x1
  18:	1f430313          	addi	x6,x6,500 # 1208 <__BSS_END__>

000000000000001c <WHILE__0>:
  1c:	0062f863          	bgeu	x5,x6,2c <END__0>
  20:	00028023          	sb	x0,0(x5)
  24:	00128293          	addi	x5,x5,1
  28:	ff5ff06f          	jal	x0,1c <WHILE__0>

000000000000002c <END__0>:
  2c:	00000097          	auipc	x1,0x0
  30:	0f4080e7          	jalr	x1,244(x1) # 120 <main>

0000000000000034 <WHILE__1>:
  34:	0000006f          	jal	x0,34 <WHILE__1>

0000000000000038 <trap>:
  38:	f8010113          	addi	x2,x2,-128 # 7f80 <__global_pointer$+0x665c>
  3c:	00113023          	sd	x1,0(x2)
  40:	00a13423          	sd	x10,8(x2)
  44:	00b13823          	sd	x11,16(x2)
  48:	00c13c23          	sd	x12,24(x2)
  4c:	02d13023          	sd	x13,32(x2)
  50:	02e13423          	sd	x14,40(x2)
  54:	02f13823          	sd	x15,48(x2)
  58:	03013c23          	sd	x16,56(x2)
  5c:	05113023          	sd	x17,64(x2)
  60:	04513423          	sd	x5,72(x2)
  64:	04613823          	sd	x6,80(x2)
  68:	04713c23          	sd	x7,88(x2)
  6c:	07c13023          	sd	x28,96(x2)
  70:	07d13423          	sd	x29,104(x2)
  74:	07e13823          	sd	x30,112(x2)
  78:	07f13c23          	sd	x31,120(x2)
  7c:	342022f3          	csrrs	x5,mcause,x0

0000000000000080 <IF__0>:
  80:	0002c863          	blt	x5,x0,90 <ELSE__0>

0000000000000084 <THEN__0>:
  84:	00001317          	auipc	x6,0x1
  88:	0a030313          	addi	x6,x6,160 # 1124 <__DATA_BEGIN__>
  8c:	0100006f          	jal	x0,9c <END__0>

0000000000000090 <ELSE__0>:
  90:	00001317          	auipc	x6,0x1
  94:	11430313          	addi	x6,x6,276 # 11a4 <interrupt_vector_table>
  98:	0040006f          	jal	x0,9c <END__0>

000000000000009c <END__0>:
  9c:	00329293          	slli	x5,x5,0x3
  a0:	00530333          	add	x6,x6,x5
  a4:	00033383          	ld	x7,0(x6)
  a8:	000380e7          	jalr	x1,0(x7)
  ac:	00013083          	ld	x1,0(x2)
  b0:	00813503          	ld	x10,8(x2)
  b4:	01013583          	ld	x11,16(x2)
  b8:	01813603          	ld	x12,24(x2)
  bc:	02013683          	ld	x13,32(x2)
  c0:	02813703          	ld	x14,40(x2)
  c4:	03013783          	ld	x15,48(x2)
  c8:	03813803          	ld	x16,56(x2)
  cc:	04013883          	ld	x17,64(x2)
  d0:	04813283          	ld	x5,72(x2)
  d4:	05013303          	ld	x6,80(x2)
  d8:	05813383          	ld	x7,88(x2)
  dc:	06013e03          	ld	x28,96(x2)
  e0:	06813e83          	ld	x29,104(x2)
  e4:	07013f03          	ld	x30,112(x2)
  e8:	07813f83          	ld	x31,120(x2)
  ec:	f8010113          	addi	x2,x2,-128
  f0:	30200073          	mret

00000000000000f4 <stub>:
  f4:	00008067          	jalr	x0,0(x1)

00000000000000f8 <IF__0>:
  f8:	00059863          	bne	x11,x0,108 <ELSE__0>

00000000000000fc <THEN__0>:
  fc:	00001297          	auipc	x5,0x1
 100:	02828293          	addi	x5,x5,40 # 1124 <__DATA_BEGIN__>
 104:	0100006f          	jal	x0,114 <END__0>

0000000000000108 <ELSE__0>:
 108:	00001297          	auipc	x5,0x1
 10c:	09c28293          	addi	x5,x5,156 # 11a4 <interrupt_vector_table>
 110:	0040006f          	jal	x0,114 <END__0>

0000000000000114 <END__0>:
 114:	00351513          	slli	x10,x10,0x3
 118:	00a282b3          	add	x5,x5,x10
 11c:	00c2b023          	sd	x12,0(x5)

0000000000000120 <main>:
 120:	00008067          	jalr	x0,0(x1)
