
/home/seankent/bluejay/ip/central_processing_unit/sim/gen/sim__xyz/JALR-01/JALR-01.elf:     file format elf64-littleriscv


Disassembly of section .text.init:

0000000080000000 <rvtest_entry_point>:
    80000000:	0440006f          	jal	x0,80000044 <reset_vector>

0000000080000004 <trap_vector>:
    80000004:	342022f3          	csrrs	x5,mcause,x0
    80000008:	00800313          	addi	x6,x0,8
    8000000c:	02628663          	beq	x5,x6,80000038 <write_tohost>
    80000010:	00900313          	addi	x6,x0,9
    80000014:	02628263          	beq	x5,x6,80000038 <write_tohost>
    80000018:	00b00313          	addi	x6,x0,11
    8000001c:	00628e63          	beq	x5,x6,80000038 <write_tohost>
    80000020:	00000293          	addi	x5,x0,0
    80000024:	00028463          	beq	x5,x0,8000002c <trap_vector+0x28>
    80000028:	00028067          	jalr	x0,0(x5)
    8000002c:	342022f3          	csrrs	x5,mcause,x0
    80000030:	0002d263          	bge	x5,x0,80000034 <handle_exception>

0000000080000034 <handle_exception>:
    80000034:	5391e193          	ori	x3,x3,1337

0000000080000038 <write_tohost>:
    80000038:	00004297          	auipc	x5,0x4
    8000003c:	fc32a423          	sw	x3,-56(x5) # 80004000 <tohost>
    80000040:	ff9ff06f          	jal	x0,80000038 <write_tohost>

0000000080000044 <reset_vector>:
    80000044:	00002537          	lui	x10,0x2
    80000048:	8005051b          	addiw	x10,x10,-2048 # 1800 <offset+0x1800>
    8000004c:	30052073          	csrrs	x0,mstatus,x10
    80000050:	00000297          	auipc	x5,0x0
    80000054:	fb428293          	addi	x5,x5,-76 # 80000004 <trap_vector>
    80000058:	30529073          	csrrw	x0,mtvec,x5
    8000005c:	00000297          	auipc	x5,0x0
    80000060:	02428293          	addi	x5,x5,36 # 80000080 <rvtest_init>
    80000064:	34129073          	csrrw	x0,mepc,x5
    80000068:	f1402573          	csrrs	x10,mhartid,x0
    8000006c:	30200073          	mret
    80000070:	00000013          	addi	x0,x0,0
    80000074:	00000013          	addi	x0,x0,0
    80000078:	00000013          	addi	x0,x0,0
    8000007c:	00000013          	addi	x0,x0,0

0000000080000080 <rvtest_init>:
    80000080:	ff76e0b7          	lui	x1,0xff76e
    80000084:	f570809b          	addiw	x1,x1,-169 # ffffffffff76df57 <_end+0xffffffff7f76844f>
    80000088:	01309093          	slli	x1,x1,0x13
    8000008c:	bb708093          	addi	x1,x1,-1097
    80000090:	00e09093          	slli	x1,x1,0xe
    80000094:	ead08093          	addi	x1,x1,-339
    80000098:	ff76e137          	lui	x2,0xff76e
    8000009c:	f571011b          	addiw	x2,x2,-169 # ffffffffff76df57 <_end+0xffffffff7f76844f>
    800000a0:	01311113          	slli	x2,x2,0x13
    800000a4:	bb710113          	addi	x2,x2,-1097
    800000a8:	00d11113          	slli	x2,x2,0xd
    800000ac:	f5610113          	addi	x2,x2,-170
    800000b0:	000801b7          	lui	x3,0x80
    800000b4:	bb71819b          	addiw	x3,x3,-1097 # 7fbb7 <offset+0x7fbb7>
    800000b8:	00d19193          	slli	x3,x3,0xd
    800000bc:	f5718193          	addi	x3,x3,-169
    800000c0:	01319193          	slli	x3,x3,0x13
    800000c4:	bb718193          	addi	x3,x3,-1097
    800000c8:	00c19193          	slli	x3,x3,0xc
    800000cc:	fab18193          	addi	x3,x3,-85
    800000d0:	fff80237          	lui	x4,0xfff80
    800000d4:	bb72021b          	addiw	x4,x4,-1097 # fffffffffff7fbb7 <_end+0xffffffff7ff7a0af>
    800000d8:	00d21213          	slli	x4,x4,0xd
    800000dc:	f5720213          	addi	x4,x4,-169 # ffffffffffffff57 <_end+0xffffffff7fffa44f>
    800000e0:	01221213          	slli	x4,x4,0x12
    800000e4:	ddb20213          	addi	x4,x4,-549 # fffffffffffffddb <_end+0xffffffff7fffa2d3>
    800000e8:	00c21213          	slli	x4,x4,0xc
    800000ec:	7d520213          	addi	x4,x4,2005 # 7d5 <offset+0x7d5>
    800000f0:	00000297          	auipc	x5,0x0
    800000f4:	32028293          	addi	x5,x5,800 # 80000410 <rvtest_code_begin>
    800000f8:	00005317          	auipc	x6,0x5
    800000fc:	f0830313          	addi	x6,x6,-248 # 80005000 <rvtest_data_begin>
    80000100:	ffb803b7          	lui	x7,0xffb80
    80000104:	bb73839b          	addiw	x7,x7,-1097 # ffffffffffb7fbb7 <_end+0xffffffff7fb7a0af>
    80000108:	00d39393          	slli	x7,x7,0xd
    8000010c:	f5738393          	addi	x7,x7,-169
    80000110:	00f39393          	slli	x7,x7,0xf
    80000114:	fbb38393          	addi	x7,x7,-69
    80000118:	00c39393          	slli	x7,x7,0xc
    8000011c:	6fa38393          	addi	x7,x7,1786
    80000120:	00b80437          	lui	x8,0xb80
    80000124:	bb74041b          	addiw	x8,x8,-1097 # b7fbb7 <offset+0xb7fbb7>
    80000128:	00d41413          	slli	x8,x8,0xd
    8000012c:	f5740413          	addi	x8,x8,-169
    80000130:	00d41413          	slli	x8,x8,0xd
    80000134:	fef40413          	addi	x8,x8,-17
    80000138:	00d41413          	slli	x8,x8,0xd
    8000013c:	b7d40413          	addi	x8,x8,-1155
    80000140:	feb804b7          	lui	x9,0xfeb80
    80000144:	bb74849b          	addiw	x9,x9,-1097 # fffffffffeb7fbb7 <_end+0xffffffff7eb7a0af>
    80000148:	00d49493          	slli	x9,x9,0xd
    8000014c:	f5748493          	addi	x9,x9,-169
    80000150:	00d49493          	slli	x9,x9,0xd
    80000154:	fef48493          	addi	x9,x9,-17
    80000158:	00c49493          	slli	x9,x9,0xc
    8000015c:	dbe48493          	addi	x9,x9,-578
    80000160:	02b80537          	lui	x10,0x2b80
    80000164:	bb75051b          	addiw	x10,x10,-1097 # 2b7fbb7 <offset+0x2b7fbb7>
    80000168:	00d51513          	slli	x10,x10,0xd
    8000016c:	f5750513          	addi	x10,x10,-169
    80000170:	00c51513          	slli	x10,x10,0xc
    80000174:	ff750513          	addi	x10,x10,-9
    80000178:	00c51513          	slli	x10,x10,0xc
    8000017c:	6df50513          	addi	x10,x10,1759
    80000180:	ff5705b7          	lui	x11,0xff570
    80000184:	f775859b          	addiw	x11,x11,-137 # ffffffffff56ff77 <_end+0xffffffff7f56a46f>
    80000188:	00d59593          	slli	x11,x11,0xd
    8000018c:	beb58593          	addi	x11,x11,-1045
    80000190:	00c59593          	slli	x11,x11,0xc
    80000194:	dff58593          	addi	x11,x11,-513
    80000198:	00e59593          	slli	x11,x11,0xe
    8000019c:	b6f58593          	addi	x11,x11,-1169
    800001a0:	ff570637          	lui	x12,0xff570
    800001a4:	f776061b          	addiw	x12,x12,-137 # ffffffffff56ff77 <_end+0xffffffff7f56a46f>
    800001a8:	00d61613          	slli	x12,x12,0xd
    800001ac:	beb60613          	addi	x12,x12,-1045
    800001b0:	00c61613          	slli	x12,x12,0xc
    800001b4:	dff60613          	addi	x12,x12,-513
    800001b8:	00d61613          	slli	x12,x12,0xd
    800001bc:	db760613          	addi	x12,x12,-585
    800001c0:	ff5706b7          	lui	x13,0xff570
    800001c4:	f776869b          	addiw	x13,x13,-137 # ffffffffff56ff77 <_end+0xffffffff7f56a46f>
    800001c8:	00d69693          	slli	x13,x13,0xd
    800001cc:	beb68693          	addi	x13,x13,-1045
    800001d0:	00c69693          	slli	x13,x13,0xc
    800001d4:	dff68693          	addi	x13,x13,-513
    800001d8:	00c69693          	slli	x13,x13,0xc
    800001dc:	edb68693          	addi	x13,x13,-293
    800001e0:	ff570737          	lui	x14,0xff570
    800001e4:	f777071b          	addiw	x14,x14,-137 # ffffffffff56ff77 <_end+0xffffffff7f56a46f>
    800001e8:	00c71713          	slli	x14,x14,0xc
    800001ec:	df570713          	addi	x14,x14,-523
    800001f0:	00c71713          	slli	x14,x14,0xc
    800001f4:	6ff70713          	addi	x14,x14,1791
    800001f8:	00c71713          	slli	x14,x14,0xc
    800001fc:	76d70713          	addi	x14,x14,1901
    80000200:	fab807b7          	lui	x15,0xfab80
    80000204:	bb77879b          	addiw	x15,x15,-1097 # fffffffffab7fbb7 <_end+0xffffffff7ab7a0af>
    80000208:	00d79793          	slli	x15,x15,0xd
    8000020c:	f5778793          	addi	x15,x15,-169
    80000210:	01379793          	slli	x15,x15,0x13
    80000214:	bb678793          	addi	x15,x15,-1098
    80000218:	00002837          	lui	x16,0x2
    8000021c:	f578081b          	addiw	x16,x16,-169 # 1f57 <offset+0x1f57>
    80000220:	01381813          	slli	x16,x16,0x13
    80000224:	bb780813          	addi	x16,x16,-1097
    80000228:	00d81813          	slli	x16,x16,0xd
    8000022c:	f5780813          	addi	x16,x16,-169
    80000230:	01281813          	slli	x16,x16,0x12
    80000234:	ddb80813          	addi	x16,x16,-549
    80000238:	ffffe8b7          	lui	x17,0xffffe
    8000023c:	f578889b          	addiw	x17,x17,-169 # ffffffffffffdf57 <_end+0xffffffff7fff844f>
    80000240:	01389893          	slli	x17,x17,0x13
    80000244:	bb788893          	addi	x17,x17,-1097
    80000248:	00d89893          	slli	x17,x17,0xd
    8000024c:	f5788893          	addi	x17,x17,-169
    80000250:	01189893          	slli	x17,x17,0x11
    80000254:	eed88893          	addi	x17,x17,-275
    80000258:	ffffe937          	lui	x18,0xffffe
    8000025c:	f579091b          	addiw	x18,x18,-169 # ffffffffffffdf57 <_end+0xffffffff7fff844f>
    80000260:	01391913          	slli	x18,x18,0x13
    80000264:	bb790913          	addi	x18,x18,-1097
    80000268:	00d91913          	slli	x18,x18,0xd
    8000026c:	f5790913          	addi	x18,x18,-169
    80000270:	01091913          	slli	x18,x18,0x10
    80000274:	f7690913          	addi	x18,x18,-138
    80000278:	0000e9b7          	lui	x19,0xe
    8000027c:	f579899b          	addiw	x19,x19,-169 # df57 <offset+0xdf57>
    80000280:	01399993          	slli	x19,x19,0x13
    80000284:	bb798993          	addi	x19,x19,-1097
    80000288:	00d99993          	slli	x19,x19,0xd
    8000028c:	f5798993          	addi	x19,x19,-169
    80000290:	00f99993          	slli	x19,x19,0xf
    80000294:	fbb98993          	addi	x19,x19,-69
    80000298:	fffeea37          	lui	x20,0xfffee
    8000029c:	f57a0a1b          	addiw	x20,x20,-169 # fffffffffffedf57 <_end+0xffffffff7ffe844f>
    800002a0:	013a1a13          	slli	x20,x20,0x13
    800002a4:	bb7a0a13          	addi	x20,x20,-1097
    800002a8:	00da1a13          	slli	x20,x20,0xd
    800002ac:	f57a0a13          	addi	x20,x20,-169
    800002b0:	00ea1a13          	slli	x20,x20,0xe
    800002b4:	fdda0a13          	addi	x20,x20,-35
    800002b8:	fffeeab7          	lui	x21,0xfffee
    800002bc:	f57a8a9b          	addiw	x21,x21,-169 # fffffffffffedf57 <_end+0xffffffff7ffe844f>
    800002c0:	013a9a93          	slli	x21,x21,0x13
    800002c4:	bb7a8a93          	addi	x21,x21,-1097
    800002c8:	00da9a93          	slli	x21,x21,0xd
    800002cc:	f57a8a93          	addi	x21,x21,-169
    800002d0:	00da9a93          	slli	x21,x21,0xd
    800002d4:	feea8a93          	addi	x21,x21,-18
    800002d8:	0006eb37          	lui	x22,0x6e
    800002dc:	f57b0b1b          	addiw	x22,x22,-169 # 6df57 <offset+0x6df57>
    800002e0:	013b1b13          	slli	x22,x22,0x13
    800002e4:	bb7b0b13          	addi	x22,x22,-1097
    800002e8:	00db1b13          	slli	x22,x22,0xd
    800002ec:	f57b0b13          	addi	x22,x22,-169
    800002f0:	00cb1b13          	slli	x22,x22,0xc
    800002f4:	ff7b0b13          	addi	x22,x22,-9
    800002f8:	fff6ebb7          	lui	x23,0xfff6e
    800002fc:	f57b8b9b          	addiw	x23,x23,-169 # fffffffffff6df57 <_end+0xffffffff7ff6844f>
    80000300:	013b9b93          	slli	x23,x23,0x13
    80000304:	bb7b8b93          	addi	x23,x23,-1097
    80000308:	00cb9b93          	slli	x23,x23,0xc
    8000030c:	fabb8b93          	addi	x23,x23,-85
    80000310:	00cb9b93          	slli	x23,x23,0xc
    80000314:	7fbb8b93          	addi	x23,x23,2043
    80000318:	fff6ec37          	lui	x24,0xfff6e
    8000031c:	f57c0c1b          	addiw	x24,x24,-169 # fffffffffff6df57 <_end+0xffffffff7ff6844f>
    80000320:	010c1c13          	slli	x24,x24,0x10
    80000324:	f77c0c13          	addi	x24,x24,-137
    80000328:	00dc1c13          	slli	x24,x24,0xd
    8000032c:	bebc0c13          	addi	x24,x24,-1045
    80000330:	00dc1c13          	slli	x24,x24,0xd
    80000334:	bfdc0c13          	addi	x24,x24,-1027
    80000338:	fff6ecb7          	lui	x25,0xfff6e
    8000033c:	f57c8c9b          	addiw	x25,x25,-169 # fffffffffff6df57 <_end+0xffffffff7ff6844f>
    80000340:	010c9c93          	slli	x25,x25,0x10
    80000344:	f77c8c93          	addi	x25,x25,-137
    80000348:	00dc9c93          	slli	x25,x25,0xd
    8000034c:	bebc8c93          	addi	x25,x25,-1045
    80000350:	00cc9c93          	slli	x25,x25,0xc
    80000354:	dfec8c93          	addi	x25,x25,-514
    80000358:	0076ed37          	lui	x26,0x76e
    8000035c:	f57d0d1b          	addiw	x26,x26,-169 # 76df57 <offset+0x76df57>
    80000360:	010d1d13          	slli	x26,x26,0x10
    80000364:	f77d0d13          	addi	x26,x26,-137
    80000368:	00cd1d13          	slli	x26,x26,0xc
    8000036c:	df5d0d13          	addi	x26,x26,-523
    80000370:	00cd1d13          	slli	x26,x26,0xc
    80000374:	6ffd0d13          	addi	x26,x26,1791
    80000378:	ff76edb7          	lui	x27,0xff76e
    8000037c:	f57d8d9b          	addiw	x27,x27,-169 # ffffffffff76df57 <_end+0xffffffff7f76844f>
    80000380:	00fd9d93          	slli	x27,x27,0xf
    80000384:	fbbd8d93          	addi	x27,x27,-69
    80000388:	00cd9d93          	slli	x27,x27,0xc
    8000038c:	6fbd8d93          	addi	x27,x27,1787
    80000390:	00cd9d93          	slli	x27,x27,0xc
    80000394:	b7fd8d93          	addi	x27,x27,-1153
    80000398:	ff76ee37          	lui	x28,0xff76e
    8000039c:	f57e0e1b          	addiw	x28,x28,-169 # ffffffffff76df57 <_end+0xffffffff7f76844f>
    800003a0:	00de1e13          	slli	x28,x28,0xd
    800003a4:	fefe0e13          	addi	x28,x28,-17
    800003a8:	00de1e13          	slli	x28,x28,0xd
    800003ac:	b7de0e13          	addi	x28,x28,-1155
    800003b0:	00ce1e13          	slli	x28,x28,0xc
    800003b4:	5bfe0e13          	addi	x28,x28,1471
    800003b8:	ff76eeb7          	lui	x29,0xff76e
    800003bc:	f57e8e9b          	addiw	x29,x29,-169 # ffffffffff76df57 <_end+0xffffffff7f76844f>
    800003c0:	00de9e93          	slli	x29,x29,0xd
    800003c4:	fefe8e93          	addi	x29,x29,-17
    800003c8:	00ce9e93          	slli	x29,x29,0xc
    800003cc:	dbfe8e93          	addi	x29,x29,-577
    800003d0:	00ce9e93          	slli	x29,x29,0xc
    800003d4:	adfe8e93          	addi	x29,x29,-1313
    800003d8:	ff76ef37          	lui	x30,0xff76e
    800003dc:	f57f0f1b          	addiw	x30,x30,-169 # ffffffffff76df57 <_end+0xffffffff7f76844f>
    800003e0:	00cf1f13          	slli	x30,x30,0xc
    800003e4:	ff7f0f13          	addi	x30,x30,-9
    800003e8:	00cf1f13          	slli	x30,x30,0xc
    800003ec:	6dff0f13          	addi	x30,x30,1759
    800003f0:	00cf1f13          	slli	x30,x30,0xc
    800003f4:	56ff0f13          	addi	x30,x30,1391
    800003f8:	ff76efb7          	lui	x31,0xff76e
    800003fc:	f57f8f9b          	addiw	x31,x31,-169 # ffffffffff76df57 <_end+0xffffffff7f76844f>
    80000400:	013f9f93          	slli	x31,x31,0x13
    80000404:	bb7f8f93          	addi	x31,x31,-1097
    80000408:	010f9f93          	slli	x31,x31,0x10
    8000040c:	ab7f8f93          	addi	x31,x31,-1353

0000000080000410 <rvtest_code_begin>:
    80000410:	00005097          	auipc	x1,0x5
    80000414:	c0008093          	addi	x1,x1,-1024 # 80005010 <begin_signature>
    80000418:	0000d237          	lui	x4,0xd
    8000041c:	ccc2021b          	addiw	x4,x4,-820 # cccc <offset+0xcccc>
    80000420:	00000e97          	auipc	x29,0x0
    80000424:	01ce8e93          	addi	x29,x29,28 # 8000043c <rvtest_code_begin+0x2c>
    80000428:	d270019b          	addiw	x3,x0,-729
    8000042c:	403e8eb3          	sub	x29,x29,x3
    80000430:	d27e89e7          	jalr	x19,-729(x29)
    80000434:	00012237          	lui	x4,0x12
    80000438:	3ab2021b          	addiw	x4,x4,939 # 123ab <offset+0x123ab>
    8000043c:	0040b023          	sd	x4,0(x1)
    80000440:	0000d237          	lui	x4,0xd
    80000444:	ccc2021b          	addiw	x4,x4,-820 # cccc <offset+0xcccc>
    80000448:	00000a97          	auipc	x21,0x0
    8000044c:	01ca8a93          	addi	x21,x21,28 # 80000464 <rvtest_code_begin+0x54>
    80000450:	a510019b          	addiw	x3,x0,-1455
    80000454:	403a8ab3          	sub	x21,x21,x3
    80000458:	a51a8f67          	jalr	x30,-1455(x21)
    8000045c:	00012237          	lui	x4,0x12
    80000460:	3ab2021b          	addiw	x4,x4,939 # 123ab <offset+0x123ab>
    80000464:	0040b423          	sd	x4,8(x1)
    80000468:	0080006f          	jal	x0,80000470 <rvtest_code_begin+0x60>
    8000046c:	0280006f          	jal	x0,80000494 <rvtest_code_begin+0x84>
    80000470:	0000d237          	lui	x4,0xd
    80000474:	ccc2021b          	addiw	x4,x4,-820 # cccc <offset+0xcccc>
    80000478:	00000117          	auipc	x2,0x0
    8000047c:	ff410113          	addi	x2,x2,-12 # 8000046c <rvtest_code_begin+0x5c>
    80000480:	c650019b          	addiw	x3,x0,-923
    80000484:	40310133          	sub	x2,x2,x3
    80000488:	c6510567          	jalr	x10,-923(x2)
    8000048c:	00012237          	lui	x4,0x12
    80000490:	3ab2021b          	addiw	x4,x4,939 # 123ab <offset+0x123ab>
    80000494:	0040b823          	sd	x4,16(x1)
    80000498:	00005117          	auipc	x2,0x5
    8000049c:	b9010113          	addi	x2,x2,-1136 # 80005028 <signature_2_0>
    800004a0:	0000d2b7          	lui	x5,0xd
    800004a4:	ccc2829b          	addiw	x5,x5,-820 # cccc <offset+0xcccc>
    800004a8:	00000097          	auipc	x1,0x0
    800004ac:	01c08093          	addi	x1,x1,28 # 800004c4 <rvtest_code_begin+0xb4>
    800004b0:	a640021b          	addiw	x4,x0,-1436
    800004b4:	404080b3          	sub	x1,x1,x4
    800004b8:	a64081e7          	jalr	x3,-1436(x1)
    800004bc:	000122b7          	lui	x5,0x12
    800004c0:	3ab2829b          	addiw	x5,x5,939 # 123ab <offset+0x123ab>
    800004c4:	00513023          	sd	x5,0(x2)
    800004c8:	0000d2b7          	lui	x5,0xd
    800004cc:	ccc2829b          	addiw	x5,x5,-820 # cccc <offset+0xcccc>
    800004d0:	00000317          	auipc	x6,0x0
    800004d4:	01c30313          	addi	x6,x6,28 # 800004ec <rvtest_code_begin+0xdc>
    800004d8:	c1e0021b          	addiw	x4,x0,-994
    800004dc:	40430333          	sub	x6,x6,x4
    800004e0:	c1e30ee7          	jalr	x29,-994(x6)
    800004e4:	000122b7          	lui	x5,0x12
    800004e8:	3ab2829b          	addiw	x5,x5,939 # 123ab <offset+0x123ab>
    800004ec:	00513423          	sd	x5,8(x2)
    800004f0:	0080006f          	jal	x0,800004f8 <rvtest_code_begin+0xe8>
    800004f4:	0280006f          	jal	x0,8000051c <rvtest_code_begin+0x10c>
    800004f8:	0000d2b7          	lui	x5,0xd
    800004fc:	ccc2829b          	addiw	x5,x5,-820 # cccc <offset+0xcccc>
    80000500:	00000717          	auipc	x14,0x0
    80000504:	ff470713          	addi	x14,x14,-12 # 800004f4 <rvtest_code_begin+0xe4>
    80000508:	adf0021b          	addiw	x4,x0,-1313
    8000050c:	40470733          	sub	x14,x14,x4
    80000510:	adf70067          	jalr	x0,-1313(x14)
    80000514:	000122b7          	lui	x5,0x12
    80000518:	3ab2829b          	addiw	x5,x5,939 # 123ab <offset+0x123ab>
    8000051c:	00513823          	sd	x5,16(x2)
    80000520:	00005097          	auipc	x1,0x5
    80000524:	b2008093          	addi	x1,x1,-1248 # 80005040 <signature_3_0>
    80000528:	0000d2b7          	lui	x5,0xd
    8000052c:	ccc2829b          	addiw	x5,x5,-820 # cccc <offset+0xcccc>
    80000530:	00000617          	auipc	x12,0x0
    80000534:	01c60613          	addi	x12,x12,28 # 8000054c <rvtest_code_begin+0x13c>
    80000538:	ae70011b          	addiw	x2,x0,-1305
    8000053c:	40260633          	sub	x12,x12,x2
    80000540:	ae760267          	jalr	x4,-1305(x12)
    80000544:	000122b7          	lui	x5,0x12
    80000548:	3ab2829b          	addiw	x5,x5,939 # 123ab <offset+0x123ab>
    8000054c:	0050b023          	sd	x5,0(x1)
    80000550:	0000d2b7          	lui	x5,0xd
    80000554:	ccc2829b          	addiw	x5,x5,-820 # cccc <offset+0xcccc>
    80000558:	00000197          	auipc	x3,0x0
    8000055c:	01c18193          	addi	x3,x3,28 # 80000574 <rvtest_code_begin+0x164>
    80000560:	3d10011b          	addiw	x2,x0,977
    80000564:	402181b3          	sub	x3,x3,x2
    80000568:	3d118ce7          	jalr	x25,977(x3)
    8000056c:	000122b7          	lui	x5,0x12
    80000570:	3ab2829b          	addiw	x5,x5,939 # 123ab <offset+0x123ab>
    80000574:	0050b423          	sd	x5,8(x1)
    80000578:	0080006f          	jal	x0,80000580 <rvtest_code_begin+0x170>
    8000057c:	0280006f          	jal	x0,800005a4 <rvtest_code_begin+0x194>
    80000580:	0000d2b7          	lui	x5,0xd
    80000584:	ccc2829b          	addiw	x5,x5,-820 # cccc <offset+0xcccc>
    80000588:	00000997          	auipc	x19,0x0
    8000058c:	ff498993          	addi	x19,x19,-12 # 8000057c <rvtest_code_begin+0x16c>
    80000590:	ff40011b          	addiw	x2,x0,-12
    80000594:	402989b3          	sub	x19,x19,x2
    80000598:	ff498967          	jalr	x18,-12(x19)
    8000059c:	000122b7          	lui	x5,0x12
    800005a0:	3ab2829b          	addiw	x5,x5,939 # 123ab <offset+0x123ab>
    800005a4:	0050b823          	sd	x5,16(x1)
    800005a8:	00005117          	auipc	x2,0x5
    800005ac:	ab010113          	addi	x2,x2,-1360 # 80005058 <signature_4_0>
    800005b0:	0000d237          	lui	x4,0xd
    800005b4:	ccc2021b          	addiw	x4,x4,-820 # cccc <offset+0xcccc>
    800005b8:	00000517          	auipc	x10,0x0
    800005bc:	01c50513          	addi	x10,x10,28 # 800005d4 <rvtest_code_begin+0x1c4>
    800005c0:	4c00019b          	addiw	x3,x0,1216
    800005c4:	40350533          	sub	x10,x10,x3
    800005c8:	4c0503e7          	jalr	x7,1216(x10)
    800005cc:	00012237          	lui	x4,0x12
    800005d0:	3ab2021b          	addiw	x4,x4,939 # 123ab <offset+0x123ab>
    800005d4:	00413023          	sd	x4,0(x2)
    800005d8:	0000d237          	lui	x4,0xd
    800005dc:	ccc2021b          	addiw	x4,x4,-820 # cccc <offset+0xcccc>
    800005e0:	00000917          	auipc	x18,0x0
    800005e4:	01c90913          	addi	x18,x18,28 # 800005fc <rvtest_code_begin+0x1ec>
    800005e8:	63e0019b          	addiw	x3,x0,1598
    800005ec:	40390933          	sub	x18,x18,x3
    800005f0:	63e90fe7          	jalr	x31,1598(x18)
    800005f4:	00012237          	lui	x4,0x12
    800005f8:	3ab2021b          	addiw	x4,x4,939 # 123ab <offset+0x123ab>
    800005fc:	00413423          	sd	x4,8(x2)
    80000600:	0080006f          	jal	x0,80000608 <rvtest_code_begin+0x1f8>
    80000604:	0280006f          	jal	x0,8000062c <rvtest_code_begin+0x21c>
    80000608:	0000d237          	lui	x4,0xd
    8000060c:	ccc2021b          	addiw	x4,x4,-820 # cccc <offset+0xcccc>
    80000610:	00000097          	auipc	x1,0x0
    80000614:	ff408093          	addi	x1,x1,-12 # 80000604 <rvtest_code_begin+0x1f4>
    80000618:	9ae0019b          	addiw	x3,x0,-1618
    8000061c:	403080b3          	sub	x1,x1,x3
    80000620:	9ae08be7          	jalr	x23,-1618(x1)
    80000624:	00012237          	lui	x4,0x12
    80000628:	3ab2021b          	addiw	x4,x4,939 # 123ab <offset+0x123ab>
    8000062c:	00413823          	sd	x4,16(x2)
    80000630:	00005197          	auipc	x3,0x5
    80000634:	a4018193          	addi	x3,x3,-1472 # 80005070 <signature_5_0>
    80000638:	0000d2b7          	lui	x5,0xd
    8000063c:	ccc2829b          	addiw	x5,x5,-820 # cccc <offset+0xcccc>
    80000640:	00000117          	auipc	x2,0x0
    80000644:	01c10113          	addi	x2,x2,28 # 8000065c <rvtest_code_begin+0x24c>
    80000648:	6500021b          	addiw	x4,x0,1616
    8000064c:	40410133          	sub	x2,x2,x4
    80000650:	65010ae7          	jalr	x21,1616(x2)
    80000654:	000122b7          	lui	x5,0x12
    80000658:	3ab2829b          	addiw	x5,x5,939 # 123ab <offset+0x123ab>
    8000065c:	0051b023          	sd	x5,0(x3)
    80000660:	0000d2b7          	lui	x5,0xd
    80000664:	ccc2829b          	addiw	x5,x5,-820 # cccc <offset+0xcccc>
    80000668:	00000097          	auipc	x1,0x0
    8000066c:	01c08093          	addi	x1,x1,28 # 80000684 <rvtest_code_begin+0x274>
    80000670:	0710021b          	addiw	x4,x0,113
    80000674:	404080b3          	sub	x1,x1,x4
    80000678:	07108f67          	jalr	x30,113(x1)
    8000067c:	000122b7          	lui	x5,0x12
    80000680:	3ab2829b          	addiw	x5,x5,939 # 123ab <offset+0x123ab>
    80000684:	0051b423          	sd	x5,8(x3)
    80000688:	0080006f          	jal	x0,80000690 <rvtest_code_begin+0x280>
    8000068c:	0280006f          	jal	x0,800006b4 <rvtest_code_begin+0x2a4>
    80000690:	0000d2b7          	lui	x5,0xd
    80000694:	ccc2829b          	addiw	x5,x5,-820 # cccc <offset+0xcccc>
    80000698:	00000097          	auipc	x1,0x0
    8000069c:	ff408093          	addi	x1,x1,-12 # 8000068c <rvtest_code_begin+0x27c>
    800006a0:	dd80021b          	addiw	x4,x0,-552
    800006a4:	404080b3          	sub	x1,x1,x4
    800006a8:	dd8088e7          	jalr	x17,-552(x1)
    800006ac:	000122b7          	lui	x5,0x12
    800006b0:	3ab2829b          	addiw	x5,x5,939 # 123ab <offset+0x123ab>
    800006b4:	0051b823          	sd	x5,16(x3)
    800006b8:	00005097          	auipc	x1,0x5
    800006bc:	9d008093          	addi	x1,x1,-1584 # 80005088 <signature_6_0>
    800006c0:	0000d237          	lui	x4,0xd
    800006c4:	ccc2021b          	addiw	x4,x4,-820 # cccc <offset+0xcccc>
    800006c8:	00000617          	auipc	x12,0x0
    800006cc:	01c60613          	addi	x12,x12,28 # 800006e4 <rvtest_code_begin+0x2d4>
    800006d0:	b6d0019b          	addiw	x3,x0,-1171
    800006d4:	40360633          	sub	x12,x12,x3
    800006d8:	b6d60367          	jalr	x6,-1171(x12)
    800006dc:	00012237          	lui	x4,0x12
    800006e0:	3ab2021b          	addiw	x4,x4,939 # 123ab <offset+0x123ab>
    800006e4:	0040b023          	sd	x4,0(x1)
    800006e8:	0000d237          	lui	x4,0xd
    800006ec:	ccc2021b          	addiw	x4,x4,-820 # cccc <offset+0xcccc>
    800006f0:	00000517          	auipc	x10,0x0
    800006f4:	01c50513          	addi	x10,x10,28 # 8000070c <rvtest_code_begin+0x2fc>
    800006f8:	8a50019b          	addiw	x3,x0,-1883
    800006fc:	40350533          	sub	x10,x10,x3
    80000700:	8a550b67          	jalr	x22,-1883(x10)
    80000704:	00012237          	lui	x4,0x12
    80000708:	3ab2021b          	addiw	x4,x4,939 # 123ab <offset+0x123ab>
    8000070c:	0040b423          	sd	x4,8(x1)
    80000710:	0080006f          	jal	x0,80000718 <rvtest_code_begin+0x308>
    80000714:	0280006f          	jal	x0,8000073c <rvtest_code_begin+0x32c>
    80000718:	0000d237          	lui	x4,0xd
    8000071c:	ccc2021b          	addiw	x4,x4,-820 # cccc <offset+0xcccc>
    80000720:	00000417          	auipc	x8,0x0
    80000724:	ff440413          	addi	x8,x8,-12 # 80000714 <rvtest_code_begin+0x304>
    80000728:	6210019b          	addiw	x3,x0,1569
    8000072c:	40340433          	sub	x8,x8,x3
    80000730:	62140167          	jalr	x2,1569(x8)
    80000734:	00012237          	lui	x4,0x12
    80000738:	3ab2021b          	addiw	x4,x4,939 # 123ab <offset+0x123ab>
    8000073c:	0040b823          	sd	x4,16(x1)
    80000740:	00005097          	auipc	x1,0x5
    80000744:	96008093          	addi	x1,x1,-1696 # 800050a0 <signature_7_0>
    80000748:	0000d237          	lui	x4,0xd
    8000074c:	ccc2021b          	addiw	x4,x4,-820 # cccc <offset+0xcccc>
    80000750:	00000417          	auipc	x8,0x0
    80000754:	01c40413          	addi	x8,x8,28 # 8000076c <rvtest_code_begin+0x35c>
    80000758:	ba80011b          	addiw	x2,x0,-1112
    8000075c:	40240433          	sub	x8,x8,x2
    80000760:	ba8406e7          	jalr	x13,-1112(x8)
    80000764:	00012237          	lui	x4,0x12
    80000768:	3ab2021b          	addiw	x4,x4,939 # 123ab <offset+0x123ab>
    8000076c:	0040b023          	sd	x4,0(x1)
    80000770:	0000d237          	lui	x4,0xd
    80000774:	ccc2021b          	addiw	x4,x4,-820 # cccc <offset+0xcccc>
    80000778:	00000717          	auipc	x14,0x0
    8000077c:	01c70713          	addi	x14,x14,28 # 80000794 <rvtest_code_begin+0x384>
    80000780:	81b0011b          	addiw	x2,x0,-2021
    80000784:	40270733          	sub	x14,x14,x2
    80000788:	81b701e7          	jalr	x3,-2021(x14)
    8000078c:	00012237          	lui	x4,0x12
    80000790:	3ab2021b          	addiw	x4,x4,939 # 123ab <offset+0x123ab>
    80000794:	0040b423          	sd	x4,8(x1)
    80000798:	0080006f          	jal	x0,800007a0 <rvtest_code_begin+0x390>
    8000079c:	0280006f          	jal	x0,800007c4 <rvtest_code_begin+0x3b4>
    800007a0:	0000d237          	lui	x4,0xd
    800007a4:	ccc2021b          	addiw	x4,x4,-820 # cccc <offset+0xcccc>
    800007a8:	00000697          	auipc	x13,0x0
    800007ac:	ff468693          	addi	x13,x13,-12 # 8000079c <rvtest_code_begin+0x38c>
    800007b0:	d8c0011b          	addiw	x2,x0,-628
    800007b4:	402686b3          	sub	x13,x13,x2
    800007b8:	d8c68c67          	jalr	x24,-628(x13)
    800007bc:	00012237          	lui	x4,0x12
    800007c0:	3ab2021b          	addiw	x4,x4,939 # 123ab <offset+0x123ab>
    800007c4:	0040b823          	sd	x4,16(x1)
    800007c8:	00005117          	auipc	x2,0x5
    800007cc:	8f010113          	addi	x2,x2,-1808 # 800050b8 <signature_8_0>
    800007d0:	0000d2b7          	lui	x5,0xd
    800007d4:	ccc2829b          	addiw	x5,x5,-820 # cccc <offset+0xcccc>
    800007d8:	00000917          	auipc	x18,0x0
    800007dc:	01c90913          	addi	x18,x18,28 # 800007f4 <rvtest_code_begin+0x3e4>
    800007e0:	eb50021b          	addiw	x4,x0,-331
    800007e4:	40490933          	sub	x18,x18,x4
    800007e8:	eb5901e7          	jalr	x3,-331(x18)
    800007ec:	000122b7          	lui	x5,0x12
    800007f0:	3ab2829b          	addiw	x5,x5,939 # 123ab <offset+0x123ab>
    800007f4:	00513023          	sd	x5,0(x2)
    800007f8:	0000d2b7          	lui	x5,0xd
    800007fc:	ccc2829b          	addiw	x5,x5,-820 # cccc <offset+0xcccc>
    80000800:	00000097          	auipc	x1,0x0
    80000804:	01c08093          	addi	x1,x1,28 # 8000081c <rvtest_code_begin+0x40c>
    80000808:	d040021b          	addiw	x4,x0,-764
    8000080c:	404080b3          	sub	x1,x1,x4
    80000810:	d0408767          	jalr	x14,-764(x1)
    80000814:	000122b7          	lui	x5,0x12
    80000818:	3ab2829b          	addiw	x5,x5,939 # 123ab <offset+0x123ab>
    8000081c:	00513423          	sd	x5,8(x2)
    80000820:	0080006f          	jal	x0,80000828 <rvtest_code_begin+0x418>
    80000824:	0280006f          	jal	x0,8000084c <rvtest_code_begin+0x43c>
    80000828:	0000d2b7          	lui	x5,0xd
    8000082c:	ccc2829b          	addiw	x5,x5,-820 # cccc <offset+0xcccc>
    80000830:	00000997          	auipc	x19,0x0
    80000834:	ff498993          	addi	x19,x19,-12 # 80000824 <rvtest_code_begin+0x414>
    80000838:	6860021b          	addiw	x4,x0,1670
    8000083c:	404989b3          	sub	x19,x19,x4
    80000840:	68698a67          	jalr	x20,1670(x19)
    80000844:	000122b7          	lui	x5,0x12
    80000848:	3ab2829b          	addiw	x5,x5,939 # 123ab <offset+0x123ab>
    8000084c:	00513823          	sd	x5,16(x2)
    80000850:	00005097          	auipc	x1,0x5
    80000854:	88008093          	addi	x1,x1,-1920 # 800050d0 <signature_9_0>
    80000858:	0000d2b7          	lui	x5,0xd
    8000085c:	ccc2829b          	addiw	x5,x5,-820 # cccc <offset+0xcccc>
    80000860:	00000f17          	auipc	x30,0x0
    80000864:	01cf0f13          	addi	x30,x30,28 # 8000087c <rvtest_code_begin+0x46c>
    80000868:	92c0019b          	addiw	x3,x0,-1748
    8000086c:	403f0f33          	sub	x30,x30,x3
    80000870:	92cf0267          	jalr	x4,-1748(x30)
    80000874:	000122b7          	lui	x5,0x12
    80000878:	3ab2829b          	addiw	x5,x5,939 # 123ab <offset+0x123ab>
    8000087c:	0050b023          	sd	x5,0(x1)
    80000880:	0000d2b7          	lui	x5,0xd
    80000884:	ccc2829b          	addiw	x5,x5,-820 # cccc <offset+0xcccc>
    80000888:	00000f97          	auipc	x31,0x0
    8000088c:	01cf8f93          	addi	x31,x31,28 # 800008a4 <rvtest_code_begin+0x494>
    80000890:	1560019b          	addiw	x3,x0,342
    80000894:	403f8fb3          	sub	x31,x31,x3
    80000898:	156f8ee7          	jalr	x29,342(x31)
    8000089c:	000122b7          	lui	x5,0x12
    800008a0:	3ab2829b          	addiw	x5,x5,939 # 123ab <offset+0x123ab>
    800008a4:	0050b423          	sd	x5,8(x1)
    800008a8:	0080006f          	jal	x0,800008b0 <rvtest_code_begin+0x4a0>
    800008ac:	0280006f          	jal	x0,800008d4 <rvtest_code_begin+0x4c4>
    800008b0:	0000d2b7          	lui	x5,0xd
    800008b4:	ccc2829b          	addiw	x5,x5,-820 # cccc <offset+0xcccc>
    800008b8:	00000117          	auipc	x2,0x0
    800008bc:	ff410113          	addi	x2,x2,-12 # 800008ac <rvtest_code_begin+0x49c>
    800008c0:	1d40019b          	addiw	x3,x0,468
    800008c4:	40310133          	sub	x2,x2,x3
    800008c8:	1d4108e7          	jalr	x17,468(x2)
    800008cc:	000122b7          	lui	x5,0x12
    800008d0:	3ab2829b          	addiw	x5,x5,939 # 123ab <offset+0x123ab>
    800008d4:	0050b823          	sd	x5,16(x1)
    800008d8:	00005097          	auipc	x1,0x5
    800008dc:	81008093          	addi	x1,x1,-2032 # 800050e8 <signature_10_0>
    800008e0:	0000d2b7          	lui	x5,0xd
    800008e4:	ccc2829b          	addiw	x5,x5,-820 # cccc <offset+0xcccc>
    800008e8:	00000217          	auipc	x4,0x0
    800008ec:	01c20213          	addi	x4,x4,28 # 80000904 <rvtest_code_begin+0x4f4>
    800008f0:	6780011b          	addiw	x2,x0,1656
    800008f4:	40220233          	sub	x4,x4,x2
    800008f8:	67820b67          	jalr	x22,1656(x4) # 0 <offset>
    800008fc:	000122b7          	lui	x5,0x12
    80000900:	3ab2829b          	addiw	x5,x5,939 # 123ab <offset+0x123ab>
    80000904:	0050b023          	sd	x5,0(x1)
    80000908:	0000d2b7          	lui	x5,0xd
    8000090c:	ccc2829b          	addiw	x5,x5,-820 # cccc <offset+0xcccc>
    80000910:	00000a17          	auipc	x20,0x0
    80000914:	01ca0a13          	addi	x20,x20,28 # 8000092c <rvtest_code_begin+0x51c>
    80000918:	ddc0011b          	addiw	x2,x0,-548
    8000091c:	402a0a33          	sub	x20,x20,x2
    80000920:	ddca01e7          	jalr	x3,-548(x20)
    80000924:	000122b7          	lui	x5,0x12
    80000928:	3ab2829b          	addiw	x5,x5,939 # 123ab <offset+0x123ab>
    8000092c:	0050b423          	sd	x5,8(x1)
    80000930:	0080006f          	jal	x0,80000938 <rvtest_code_begin+0x528>
    80000934:	0280006f          	jal	x0,8000095c <rvtest_code_begin+0x54c>
    80000938:	0000d2b7          	lui	x5,0xd
    8000093c:	ccc2829b          	addiw	x5,x5,-820 # cccc <offset+0xcccc>
    80000940:	00000717          	auipc	x14,0x0
    80000944:	ff470713          	addi	x14,x14,-12 # 80000934 <rvtest_code_begin+0x524>
    80000948:	5320011b          	addiw	x2,x0,1330
    8000094c:	40270733          	sub	x14,x14,x2
    80000950:	532707e7          	jalr	x15,1330(x14)
    80000954:	000122b7          	lui	x5,0x12
    80000958:	3ab2829b          	addiw	x5,x5,939 # 123ab <offset+0x123ab>
    8000095c:	0050b823          	sd	x5,16(x1)
    80000960:	00004097          	auipc	x1,0x4
    80000964:	7a008093          	addi	x1,x1,1952 # 80005100 <signature_11_0>
    80000968:	0000d1b7          	lui	x3,0xd
    8000096c:	ccc1819b          	addiw	x3,x3,-820 # cccc <offset+0xcccc>
    80000970:	00000397          	auipc	x7,0x0
    80000974:	01c38393          	addi	x7,x7,28 # 8000098c <rvtest_code_begin+0x57c>
    80000978:	0000011b          	addiw	x2,x0,0
    8000097c:	402383b3          	sub	x7,x7,x2
    80000980:	00038e67          	jalr	x28,0(x7)
    80000984:	000121b7          	lui	x3,0x12
    80000988:	3ab1819b          	addiw	x3,x3,939 # 123ab <offset+0x123ab>
    8000098c:	0030b023          	sd	x3,0(x1)
    80000990:	0000d1b7          	lui	x3,0xd
    80000994:	ccc1819b          	addiw	x3,x3,-820 # cccc <offset+0xcccc>
    80000998:	00000397          	auipc	x7,0x0
    8000099c:	01c38393          	addi	x7,x7,28 # 800009b4 <rvtest_code_begin+0x5a4>
    800009a0:	fff0011b          	addiw	x2,x0,-1
    800009a4:	402383b3          	sub	x7,x7,x2
    800009a8:	fff38767          	jalr	x14,-1(x7)
    800009ac:	000121b7          	lui	x3,0x12
    800009b0:	3ab1819b          	addiw	x3,x3,939 # 123ab <offset+0x123ab>
    800009b4:	0030b423          	sd	x3,8(x1)
    800009b8:	0080006f          	jal	x0,800009c0 <rvtest_code_begin+0x5b0>
    800009bc:	0280006f          	jal	x0,800009e4 <rvtest_code_begin+0x5d4>
    800009c0:	0000d1b7          	lui	x3,0xd
    800009c4:	ccc1819b          	addiw	x3,x3,-820 # cccc <offset+0xcccc>
    800009c8:	00000917          	auipc	x18,0x0
    800009cc:	ff490913          	addi	x18,x18,-12 # 800009bc <rvtest_code_begin+0x5ac>
    800009d0:	fff0011b          	addiw	x2,x0,-1
    800009d4:	40290933          	sub	x18,x18,x2
    800009d8:	fff904e7          	jalr	x9,-1(x18)
    800009dc:	000121b7          	lui	x3,0x12
    800009e0:	3ab1819b          	addiw	x3,x3,939 # 123ab <offset+0x123ab>
    800009e4:	0030b823          	sd	x3,16(x1)
    800009e8:	00004097          	auipc	x1,0x4
    800009ec:	73008093          	addi	x1,x1,1840 # 80005118 <signature_12_0>
    800009f0:	0000d237          	lui	x4,0xd
    800009f4:	ccc2021b          	addiw	x4,x4,-820 # cccc <offset+0xcccc>
    800009f8:	00000797          	auipc	x15,0x0
    800009fc:	01c78793          	addi	x15,x15,28 # 80000a14 <rvtest_code_begin+0x604>
    80000a00:	fff0019b          	addiw	x3,x0,-1
    80000a04:	403787b3          	sub	x15,x15,x3
    80000a08:	fff78567          	jalr	x10,-1(x15)
    80000a0c:	00012237          	lui	x4,0x12
    80000a10:	3ab2021b          	addiw	x4,x4,939 # 123ab <offset+0x123ab>
    80000a14:	0040b023          	sd	x4,0(x1)
    80000a18:	0000d237          	lui	x4,0xd
    80000a1c:	ccc2021b          	addiw	x4,x4,-820 # cccc <offset+0xcccc>
    80000a20:	00000b97          	auipc	x23,0x0
    80000a24:	01cb8b93          	addi	x23,x23,28 # 80000a3c <rvtest_code_begin+0x62c>
    80000a28:	0000019b          	addiw	x3,x0,0
    80000a2c:	403b8bb3          	sub	x23,x23,x3
    80000a30:	000b8367          	jalr	x6,0(x23)
    80000a34:	00012237          	lui	x4,0x12
    80000a38:	3ab2021b          	addiw	x4,x4,939 # 123ab <offset+0x123ab>
    80000a3c:	0040b423          	sd	x4,8(x1)
    80000a40:	0080006f          	jal	x0,80000a48 <rvtest_code_begin+0x638>
    80000a44:	0280006f          	jal	x0,80000a6c <rvtest_code_begin+0x65c>
    80000a48:	0000d237          	lui	x4,0xd
    80000a4c:	ccc2021b          	addiw	x4,x4,-820 # cccc <offset+0xcccc>
    80000a50:	00000117          	auipc	x2,0x0
    80000a54:	ff410113          	addi	x2,x2,-12 # 80000a44 <rvtest_code_begin+0x634>
    80000a58:	fff0019b          	addiw	x3,x0,-1
    80000a5c:	40310133          	sub	x2,x2,x3
    80000a60:	fff10067          	jalr	x0,-1(x2)
    80000a64:	00012237          	lui	x4,0x12
    80000a68:	3ab2021b          	addiw	x4,x4,939 # 123ab <offset+0x123ab>
    80000a6c:	0040b823          	sd	x4,16(x1)
    80000a70:	00004117          	auipc	x2,0x4
    80000a74:	6c010113          	addi	x2,x2,1728 # 80005130 <signature_13_0>
    80000a78:	0000d237          	lui	x4,0xd
    80000a7c:	ccc2021b          	addiw	x4,x4,-820 # cccc <offset+0xcccc>
    80000a80:	00000e97          	auipc	x29,0x0
    80000a84:	01ce8e93          	addi	x29,x29,28 # 80000a9c <rvtest_code_begin+0x68c>
    80000a88:	fff0019b          	addiw	x3,x0,-1
    80000a8c:	403e8eb3          	sub	x29,x29,x3
    80000a90:	fffe89e7          	jalr	x19,-1(x29)
    80000a94:	00012237          	lui	x4,0x12
    80000a98:	3ab2021b          	addiw	x4,x4,939 # 123ab <offset+0x123ab>
    80000a9c:	00413023          	sd	x4,0(x2)
    80000aa0:	0000d237          	lui	x4,0xd
    80000aa4:	ccc2021b          	addiw	x4,x4,-820 # cccc <offset+0xcccc>
    80000aa8:	00000097          	auipc	x1,0x0
    80000aac:	01c08093          	addi	x1,x1,28 # 80000ac4 <rvtest_code_begin+0x6b4>
    80000ab0:	fff0019b          	addiw	x3,x0,-1
    80000ab4:	403080b3          	sub	x1,x1,x3
    80000ab8:	fff089e7          	jalr	x19,-1(x1)
    80000abc:	00012237          	lui	x4,0x12
    80000ac0:	3ab2021b          	addiw	x4,x4,939 # 123ab <offset+0x123ab>
    80000ac4:	00413423          	sd	x4,8(x2)
    80000ac8:	0080006f          	jal	x0,80000ad0 <rvtest_code_begin+0x6c0>
    80000acc:	0280006f          	jal	x0,80000af4 <rvtest_code_begin+0x6e4>
    80000ad0:	0000d237          	lui	x4,0xd
    80000ad4:	ccc2021b          	addiw	x4,x4,-820 # cccc <offset+0xcccc>
    80000ad8:	00000e17          	auipc	x28,0x0
    80000adc:	ff4e0e13          	addi	x28,x28,-12 # 80000acc <rvtest_code_begin+0x6bc>
    80000ae0:	0000019b          	addiw	x3,x0,0
    80000ae4:	403e0e33          	sub	x28,x28,x3
    80000ae8:	000e0f67          	jalr	x30,0(x28)
    80000aec:	00012237          	lui	x4,0x12
    80000af0:	3ab2021b          	addiw	x4,x4,939 # 123ab <offset+0x123ab>
    80000af4:	00413823          	sd	x4,16(x2)
    80000af8:	00004197          	auipc	x3,0x4
    80000afc:	65018193          	addi	x3,x3,1616 # 80005148 <signature_14_0>
    80000b00:	0000d2b7          	lui	x5,0xd
    80000b04:	ccc2829b          	addiw	x5,x5,-820 # cccc <offset+0xcccc>
    80000b08:	00000c17          	auipc	x24,0x0
    80000b0c:	01cc0c13          	addi	x24,x24,28 # 80000b24 <rvtest_code_begin+0x714>
    80000b10:	fff0021b          	addiw	x4,x0,-1
    80000b14:	404c0c33          	sub	x24,x24,x4
    80000b18:	fffc0ae7          	jalr	x21,-1(x24)
    80000b1c:	000122b7          	lui	x5,0x12
    80000b20:	3ab2829b          	addiw	x5,x5,939 # 123ab <offset+0x123ab>
    80000b24:	0051b023          	sd	x5,0(x3)
    80000b28:	0000d2b7          	lui	x5,0xd
    80000b2c:	ccc2829b          	addiw	x5,x5,-820 # cccc <offset+0xcccc>
    80000b30:	00000117          	auipc	x2,0x0
    80000b34:	01c10113          	addi	x2,x2,28 # 80000b4c <rvtest_code_begin+0x73c>
    80000b38:	0010021b          	addiw	x4,x0,1
    80000b3c:	40410133          	sub	x2,x2,x4
    80000b40:	001100e7          	jalr	x1,1(x2)
    80000b44:	000122b7          	lui	x5,0x12
    80000b48:	3ab2829b          	addiw	x5,x5,939 # 123ab <offset+0x123ab>
    80000b4c:	0051b423          	sd	x5,8(x3)
    80000b50:	0080006f          	jal	x0,80000b58 <rvtest_code_begin+0x748>
    80000b54:	0280006f          	jal	x0,80000b7c <rvtest_code_begin+0x76c>
    80000b58:	0000d2b7          	lui	x5,0xd
    80000b5c:	ccc2829b          	addiw	x5,x5,-820 # cccc <offset+0xcccc>
    80000b60:	00000117          	auipc	x2,0x0
    80000b64:	ff410113          	addi	x2,x2,-12 # 80000b54 <rvtest_code_begin+0x744>
    80000b68:	0020021b          	addiw	x4,x0,2
    80000b6c:	40410133          	sub	x2,x2,x4
    80000b70:	002100e7          	jalr	x1,2(x2)
    80000b74:	000122b7          	lui	x5,0x12
    80000b78:	3ab2829b          	addiw	x5,x5,939 # 123ab <offset+0x123ab>
    80000b7c:	0051b823          	sd	x5,16(x3)
    80000b80:	00004097          	auipc	x1,0x4
    80000b84:	5e008093          	addi	x1,x1,1504 # 80005160 <signature_15_0>
    80000b88:	0000d3b7          	lui	x7,0xd
    80000b8c:	ccc3839b          	addiw	x7,x7,-820 # cccc <offset+0xcccc>
    80000b90:	00000197          	auipc	x3,0x0
    80000b94:	01c18193          	addi	x3,x3,28 # 80000bac <rvtest_code_begin+0x79c>
    80000b98:	0040031b          	addiw	x6,x0,4
    80000b9c:	406181b3          	sub	x3,x3,x6
    80000ba0:	00418167          	jalr	x2,4(x3)
    80000ba4:	000123b7          	lui	x7,0x12
    80000ba8:	3ab3839b          	addiw	x7,x7,939 # 123ab <offset+0x123ab>
    80000bac:	0070b023          	sd	x7,0(x1)
    80000bb0:	0000d3b7          	lui	x7,0xd
    80000bb4:	ccc3839b          	addiw	x7,x7,-820 # cccc <offset+0xcccc>
    80000bb8:	00000217          	auipc	x4,0x0
    80000bbc:	01c20213          	addi	x4,x4,28 # 80000bd4 <rvtest_code_begin+0x7c4>
    80000bc0:	0080031b          	addiw	x6,x0,8
    80000bc4:	40620233          	sub	x4,x4,x6
    80000bc8:	008201e7          	jalr	x3,8(x4) # 0 <offset>
    80000bcc:	000123b7          	lui	x7,0x12
    80000bd0:	3ab3839b          	addiw	x7,x7,939 # 123ab <offset+0x123ab>
    80000bd4:	0070b423          	sd	x7,8(x1)
    80000bd8:	0080006f          	jal	x0,80000be0 <rvtest_code_begin+0x7d0>
    80000bdc:	0280006f          	jal	x0,80000c04 <rvtest_code_begin+0x7f4>
    80000be0:	0000d3b7          	lui	x7,0xd
    80000be4:	ccc3839b          	addiw	x7,x7,-820 # cccc <offset+0xcccc>
    80000be8:	00000297          	auipc	x5,0x0
    80000bec:	ff428293          	addi	x5,x5,-12 # 80000bdc <rvtest_code_begin+0x7cc>
    80000bf0:	0100031b          	addiw	x6,x0,16
    80000bf4:	406282b3          	sub	x5,x5,x6
    80000bf8:	01028267          	jalr	x4,16(x5)
    80000bfc:	000123b7          	lui	x7,0x12
    80000c00:	3ab3839b          	addiw	x7,x7,939 # 123ab <offset+0x123ab>
    80000c04:	0070b823          	sd	x7,16(x1)
    80000c08:	00004097          	auipc	x1,0x4
    80000c0c:	57008093          	addi	x1,x1,1392 # 80005178 <signature_16_0>
    80000c10:	0000d1b7          	lui	x3,0xd
    80000c14:	ccc1819b          	addiw	x3,x3,-820 # cccc <offset+0xcccc>
    80000c18:	00000317          	auipc	x6,0x0
    80000c1c:	01c30313          	addi	x6,x6,28 # 80000c34 <rvtest_code_begin+0x824>
    80000c20:	0200011b          	addiw	x2,x0,32
    80000c24:	40230333          	sub	x6,x6,x2
    80000c28:	020302e7          	jalr	x5,32(x6)
    80000c2c:	000121b7          	lui	x3,0x12
    80000c30:	3ab1819b          	addiw	x3,x3,939 # 123ab <offset+0x123ab>
    80000c34:	0030b023          	sd	x3,0(x1)
    80000c38:	0000d1b7          	lui	x3,0xd
    80000c3c:	ccc1819b          	addiw	x3,x3,-820 # cccc <offset+0xcccc>
    80000c40:	00000397          	auipc	x7,0x0
    80000c44:	01c38393          	addi	x7,x7,28 # 80000c5c <rvtest_code_begin+0x84c>
    80000c48:	0400011b          	addiw	x2,x0,64
    80000c4c:	402383b3          	sub	x7,x7,x2
    80000c50:	04038367          	jalr	x6,64(x7)
    80000c54:	000121b7          	lui	x3,0x12
    80000c58:	3ab1819b          	addiw	x3,x3,939 # 123ab <offset+0x123ab>
    80000c5c:	0030b423          	sd	x3,8(x1)
    80000c60:	0080006f          	jal	x0,80000c68 <rvtest_code_begin+0x858>
    80000c64:	0280006f          	jal	x0,80000c8c <rvtest_code_begin+0x87c>
    80000c68:	0000d1b7          	lui	x3,0xd
    80000c6c:	ccc1819b          	addiw	x3,x3,-820 # cccc <offset+0xcccc>
    80000c70:	00000417          	auipc	x8,0x0
    80000c74:	ff440413          	addi	x8,x8,-12 # 80000c64 <rvtest_code_begin+0x854>
    80000c78:	0800011b          	addiw	x2,x0,128
    80000c7c:	40240433          	sub	x8,x8,x2
    80000c80:	080403e7          	jalr	x7,128(x8)
    80000c84:	000121b7          	lui	x3,0x12
    80000c88:	3ab1819b          	addiw	x3,x3,939 # 123ab <offset+0x123ab>
    80000c8c:	0030b823          	sd	x3,16(x1)
    80000c90:	00004097          	auipc	x1,0x4
    80000c94:	50008093          	addi	x1,x1,1280 # 80005190 <signature_17_0>
    80000c98:	0000d1b7          	lui	x3,0xd
    80000c9c:	ccc1819b          	addiw	x3,x3,-820 # cccc <offset+0xcccc>
    80000ca0:	00000497          	auipc	x9,0x0
    80000ca4:	01c48493          	addi	x9,x9,28 # 80000cbc <rvtest_code_begin+0x8ac>
    80000ca8:	1000011b          	addiw	x2,x0,256
    80000cac:	402484b3          	sub	x9,x9,x2
    80000cb0:	10048467          	jalr	x8,256(x9)
    80000cb4:	000121b7          	lui	x3,0x12
    80000cb8:	3ab1819b          	addiw	x3,x3,939 # 123ab <offset+0x123ab>
    80000cbc:	0030b023          	sd	x3,0(x1)
    80000cc0:	0000d1b7          	lui	x3,0xd
    80000cc4:	ccc1819b          	addiw	x3,x3,-820 # cccc <offset+0xcccc>
    80000cc8:	00000517          	auipc	x10,0x0
    80000ccc:	01c50513          	addi	x10,x10,28 # 80000ce4 <rvtest_code_begin+0x8d4>
    80000cd0:	2000011b          	addiw	x2,x0,512
    80000cd4:	40250533          	sub	x10,x10,x2
    80000cd8:	200504e7          	jalr	x9,512(x10)
    80000cdc:	000121b7          	lui	x3,0x12
    80000ce0:	3ab1819b          	addiw	x3,x3,939 # 123ab <offset+0x123ab>
    80000ce4:	0030b423          	sd	x3,8(x1)
    80000ce8:	0080006f          	jal	x0,80000cf0 <rvtest_code_begin+0x8e0>
    80000cec:	0280006f          	jal	x0,80000d14 <rvtest_code_begin+0x904>
    80000cf0:	0000d1b7          	lui	x3,0xd
    80000cf4:	ccc1819b          	addiw	x3,x3,-820 # cccc <offset+0xcccc>
    80000cf8:	00000597          	auipc	x11,0x0
    80000cfc:	ff458593          	addi	x11,x11,-12 # 80000cec <rvtest_code_begin+0x8dc>
    80000d00:	4000011b          	addiw	x2,x0,1024
    80000d04:	402585b3          	sub	x11,x11,x2
    80000d08:	40058567          	jalr	x10,1024(x11)
    80000d0c:	000121b7          	lui	x3,0x12
    80000d10:	3ab1819b          	addiw	x3,x3,939 # 123ab <offset+0x123ab>
    80000d14:	0030b823          	sd	x3,16(x1)
    80000d18:	00004097          	auipc	x1,0x4
    80000d1c:	49008093          	addi	x1,x1,1168 # 800051a8 <signature_18_0>
    80000d20:	0000d1b7          	lui	x3,0xd
    80000d24:	ccc1819b          	addiw	x3,x3,-820 # cccc <offset+0xcccc>
    80000d28:	00000617          	auipc	x12,0x0
    80000d2c:	01c60613          	addi	x12,x12,28 # 80000d44 <rvtest_code_begin+0x934>
    80000d30:	8000011b          	addiw	x2,x0,-2048
    80000d34:	40260633          	sub	x12,x12,x2
    80000d38:	800605e7          	jalr	x11,-2048(x12)
    80000d3c:	000121b7          	lui	x3,0x12
    80000d40:	3ab1819b          	addiw	x3,x3,939 # 123ab <offset+0x123ab>
    80000d44:	0030b023          	sd	x3,0(x1)
    80000d48:	0000d1b7          	lui	x3,0xd
    80000d4c:	ccc1819b          	addiw	x3,x3,-820 # cccc <offset+0xcccc>
    80000d50:	00000697          	auipc	x13,0x0
    80000d54:	01c68693          	addi	x13,x13,28 # 80000d6c <rvtest_code_begin+0x95c>
    80000d58:	ffe0011b          	addiw	x2,x0,-2
    80000d5c:	402686b3          	sub	x13,x13,x2
    80000d60:	ffe68667          	jalr	x12,-2(x13)
    80000d64:	000121b7          	lui	x3,0x12
    80000d68:	3ab1819b          	addiw	x3,x3,939 # 123ab <offset+0x123ab>
    80000d6c:	0030b423          	sd	x3,8(x1)
    80000d70:	0080006f          	jal	x0,80000d78 <rvtest_code_begin+0x968>
    80000d74:	0280006f          	jal	x0,80000d9c <rvtest_code_begin+0x98c>
    80000d78:	0000d1b7          	lui	x3,0xd
    80000d7c:	ccc1819b          	addiw	x3,x3,-820 # cccc <offset+0xcccc>
    80000d80:	00000717          	auipc	x14,0x0
    80000d84:	ff470713          	addi	x14,x14,-12 # 80000d74 <rvtest_code_begin+0x964>
    80000d88:	ffd0011b          	addiw	x2,x0,-3
    80000d8c:	40270733          	sub	x14,x14,x2
    80000d90:	ffd706e7          	jalr	x13,-3(x14)
    80000d94:	000121b7          	lui	x3,0x12
    80000d98:	3ab1819b          	addiw	x3,x3,939 # 123ab <offset+0x123ab>
    80000d9c:	0030b823          	sd	x3,16(x1)
    80000da0:	00004097          	auipc	x1,0x4
    80000da4:	42008093          	addi	x1,x1,1056 # 800051c0 <signature_19_0>
    80000da8:	0000d1b7          	lui	x3,0xd
    80000dac:	ccc1819b          	addiw	x3,x3,-820 # cccc <offset+0xcccc>
    80000db0:	00000797          	auipc	x15,0x0
    80000db4:	01c78793          	addi	x15,x15,28 # 80000dcc <rvtest_code_begin+0x9bc>
    80000db8:	ffb0011b          	addiw	x2,x0,-5
    80000dbc:	402787b3          	sub	x15,x15,x2
    80000dc0:	ffb78767          	jalr	x14,-5(x15)
    80000dc4:	000121b7          	lui	x3,0x12
    80000dc8:	3ab1819b          	addiw	x3,x3,939 # 123ab <offset+0x123ab>
    80000dcc:	0030b023          	sd	x3,0(x1)
    80000dd0:	0000d1b7          	lui	x3,0xd
    80000dd4:	ccc1819b          	addiw	x3,x3,-820 # cccc <offset+0xcccc>
    80000dd8:	00000817          	auipc	x16,0x0
    80000ddc:	01c80813          	addi	x16,x16,28 # 80000df4 <rvtest_code_begin+0x9e4>
    80000de0:	ff70011b          	addiw	x2,x0,-9
    80000de4:	40280833          	sub	x16,x16,x2
    80000de8:	ff7807e7          	jalr	x15,-9(x16)
    80000dec:	000121b7          	lui	x3,0x12
    80000df0:	3ab1819b          	addiw	x3,x3,939 # 123ab <offset+0x123ab>
    80000df4:	0030b423          	sd	x3,8(x1)
    80000df8:	0080006f          	jal	x0,80000e00 <rvtest_code_begin+0x9f0>
    80000dfc:	0280006f          	jal	x0,80000e24 <rvtest_code_begin+0xa14>
    80000e00:	0000d1b7          	lui	x3,0xd
    80000e04:	ccc1819b          	addiw	x3,x3,-820 # cccc <offset+0xcccc>
    80000e08:	00000897          	auipc	x17,0x0
    80000e0c:	ff488893          	addi	x17,x17,-12 # 80000dfc <rvtest_code_begin+0x9ec>
    80000e10:	fef0011b          	addiw	x2,x0,-17
    80000e14:	402888b3          	sub	x17,x17,x2
    80000e18:	fef88867          	jalr	x16,-17(x17)
    80000e1c:	000121b7          	lui	x3,0x12
    80000e20:	3ab1819b          	addiw	x3,x3,939 # 123ab <offset+0x123ab>
    80000e24:	0030b823          	sd	x3,16(x1)
    80000e28:	00004097          	auipc	x1,0x4
    80000e2c:	3b008093          	addi	x1,x1,944 # 800051d8 <signature_20_0>
    80000e30:	0000d1b7          	lui	x3,0xd
    80000e34:	ccc1819b          	addiw	x3,x3,-820 # cccc <offset+0xcccc>
    80000e38:	00000917          	auipc	x18,0x0
    80000e3c:	01c90913          	addi	x18,x18,28 # 80000e54 <rvtest_code_begin+0xa44>
    80000e40:	fdf0011b          	addiw	x2,x0,-33
    80000e44:	40290933          	sub	x18,x18,x2
    80000e48:	fdf908e7          	jalr	x17,-33(x18)
    80000e4c:	000121b7          	lui	x3,0x12
    80000e50:	3ab1819b          	addiw	x3,x3,939 # 123ab <offset+0x123ab>
    80000e54:	0030b023          	sd	x3,0(x1)
    80000e58:	0000d1b7          	lui	x3,0xd
    80000e5c:	ccc1819b          	addiw	x3,x3,-820 # cccc <offset+0xcccc>
    80000e60:	00000997          	auipc	x19,0x0
    80000e64:	01c98993          	addi	x19,x19,28 # 80000e7c <rvtest_code_begin+0xa6c>
    80000e68:	fbf0011b          	addiw	x2,x0,-65
    80000e6c:	402989b3          	sub	x19,x19,x2
    80000e70:	fbf98967          	jalr	x18,-65(x19)
    80000e74:	000121b7          	lui	x3,0x12
    80000e78:	3ab1819b          	addiw	x3,x3,939 # 123ab <offset+0x123ab>
    80000e7c:	0030b423          	sd	x3,8(x1)
    80000e80:	0080006f          	jal	x0,80000e88 <rvtest_code_begin+0xa78>
    80000e84:	0280006f          	jal	x0,80000eac <rvtest_code_begin+0xa9c>
    80000e88:	0000d1b7          	lui	x3,0xd
    80000e8c:	ccc1819b          	addiw	x3,x3,-820 # cccc <offset+0xcccc>
    80000e90:	00000a17          	auipc	x20,0x0
    80000e94:	ff4a0a13          	addi	x20,x20,-12 # 80000e84 <rvtest_code_begin+0xa74>
    80000e98:	f7f0011b          	addiw	x2,x0,-129
    80000e9c:	402a0a33          	sub	x20,x20,x2
    80000ea0:	f7fa09e7          	jalr	x19,-129(x20)
    80000ea4:	000121b7          	lui	x3,0x12
    80000ea8:	3ab1819b          	addiw	x3,x3,939 # 123ab <offset+0x123ab>
    80000eac:	0030b823          	sd	x3,16(x1)
    80000eb0:	00004097          	auipc	x1,0x4
    80000eb4:	34008093          	addi	x1,x1,832 # 800051f0 <signature_21_0>
    80000eb8:	0000d1b7          	lui	x3,0xd
    80000ebc:	ccc1819b          	addiw	x3,x3,-820 # cccc <offset+0xcccc>
    80000ec0:	00000a97          	auipc	x21,0x0
    80000ec4:	01ca8a93          	addi	x21,x21,28 # 80000edc <rvtest_code_begin+0xacc>
    80000ec8:	eff0011b          	addiw	x2,x0,-257
    80000ecc:	402a8ab3          	sub	x21,x21,x2
    80000ed0:	effa8a67          	jalr	x20,-257(x21)
    80000ed4:	000121b7          	lui	x3,0x12
    80000ed8:	3ab1819b          	addiw	x3,x3,939 # 123ab <offset+0x123ab>
    80000edc:	0030b023          	sd	x3,0(x1)
    80000ee0:	0000d1b7          	lui	x3,0xd
    80000ee4:	ccc1819b          	addiw	x3,x3,-820 # cccc <offset+0xcccc>
    80000ee8:	00000b17          	auipc	x22,0x0
    80000eec:	01cb0b13          	addi	x22,x22,28 # 80000f04 <rvtest_code_begin+0xaf4>
    80000ef0:	dff0011b          	addiw	x2,x0,-513
    80000ef4:	402b0b33          	sub	x22,x22,x2
    80000ef8:	dffb0ae7          	jalr	x21,-513(x22)
    80000efc:	000121b7          	lui	x3,0x12
    80000f00:	3ab1819b          	addiw	x3,x3,939 # 123ab <offset+0x123ab>
    80000f04:	0030b423          	sd	x3,8(x1)
    80000f08:	0080006f          	jal	x0,80000f10 <rvtest_code_begin+0xb00>
    80000f0c:	0280006f          	jal	x0,80000f34 <rvtest_code_begin+0xb24>
    80000f10:	0000d1b7          	lui	x3,0xd
    80000f14:	ccc1819b          	addiw	x3,x3,-820 # cccc <offset+0xcccc>
    80000f18:	00000b97          	auipc	x23,0x0
    80000f1c:	ff4b8b93          	addi	x23,x23,-12 # 80000f0c <rvtest_code_begin+0xafc>
    80000f20:	bff0011b          	addiw	x2,x0,-1025
    80000f24:	402b8bb3          	sub	x23,x23,x2
    80000f28:	bffb8b67          	jalr	x22,-1025(x23)
    80000f2c:	000121b7          	lui	x3,0x12
    80000f30:	3ab1819b          	addiw	x3,x3,939 # 123ab <offset+0x123ab>
    80000f34:	0030b823          	sd	x3,16(x1)
    80000f38:	00004097          	auipc	x1,0x4
    80000f3c:	2d008093          	addi	x1,x1,720 # 80005208 <signature_22_0>
    80000f40:	0000d1b7          	lui	x3,0xd
    80000f44:	ccc1819b          	addiw	x3,x3,-820 # cccc <offset+0xcccc>
    80000f48:	00000c17          	auipc	x24,0x0
    80000f4c:	01cc0c13          	addi	x24,x24,28 # 80000f64 <rvtest_code_begin+0xb54>
    80000f50:	7ff0011b          	addiw	x2,x0,2047
    80000f54:	402c0c33          	sub	x24,x24,x2
    80000f58:	7ffc0be7          	jalr	x23,2047(x24)
    80000f5c:	000121b7          	lui	x3,0x12
    80000f60:	3ab1819b          	addiw	x3,x3,939 # 123ab <offset+0x123ab>
    80000f64:	0030b023          	sd	x3,0(x1)
    80000f68:	0000d1b7          	lui	x3,0xd
    80000f6c:	ccc1819b          	addiw	x3,x3,-820 # cccc <offset+0xcccc>
    80000f70:	00000c97          	auipc	x25,0x0
    80000f74:	01cc8c93          	addi	x25,x25,28 # 80000f8c <rvtest_code_begin+0xb7c>
    80000f78:	ffe0011b          	addiw	x2,x0,-2
    80000f7c:	402c8cb3          	sub	x25,x25,x2
    80000f80:	ffec8c67          	jalr	x24,-2(x25)
    80000f84:	000121b7          	lui	x3,0x12
    80000f88:	3ab1819b          	addiw	x3,x3,939 # 123ab <offset+0x123ab>
    80000f8c:	0030b423          	sd	x3,8(x1)
    80000f90:	0080006f          	jal	x0,80000f98 <rvtest_code_begin+0xb88>
    80000f94:	0280006f          	jal	x0,80000fbc <rvtest_code_begin+0xbac>
    80000f98:	0000d1b7          	lui	x3,0xd
    80000f9c:	ccc1819b          	addiw	x3,x3,-820 # cccc <offset+0xcccc>
    80000fa0:	00000d17          	auipc	x26,0x0
    80000fa4:	ff4d0d13          	addi	x26,x26,-12 # 80000f94 <rvtest_code_begin+0xb84>
    80000fa8:	ffd0011b          	addiw	x2,x0,-3
    80000fac:	402d0d33          	sub	x26,x26,x2
    80000fb0:	ffdd0ce7          	jalr	x25,-3(x26)
    80000fb4:	000121b7          	lui	x3,0x12
    80000fb8:	3ab1819b          	addiw	x3,x3,939 # 123ab <offset+0x123ab>
    80000fbc:	0030b823          	sd	x3,16(x1)
    80000fc0:	00004097          	auipc	x1,0x4
    80000fc4:	26008093          	addi	x1,x1,608 # 80005220 <signature_23_0>
    80000fc8:	0000d1b7          	lui	x3,0xd
    80000fcc:	ccc1819b          	addiw	x3,x3,-820 # cccc <offset+0xcccc>
    80000fd0:	00000d97          	auipc	x27,0x0
    80000fd4:	01cd8d93          	addi	x27,x27,28 # 80000fec <rvtest_code_begin+0xbdc>
    80000fd8:	ffb0011b          	addiw	x2,x0,-5
    80000fdc:	402d8db3          	sub	x27,x27,x2
    80000fe0:	ffbd8d67          	jalr	x26,-5(x27)
    80000fe4:	000121b7          	lui	x3,0x12
    80000fe8:	3ab1819b          	addiw	x3,x3,939 # 123ab <offset+0x123ab>
    80000fec:	0030b023          	sd	x3,0(x1)
    80000ff0:	0000d1b7          	lui	x3,0xd
    80000ff4:	ccc1819b          	addiw	x3,x3,-820 # cccc <offset+0xcccc>
    80000ff8:	00000e17          	auipc	x28,0x0
    80000ffc:	01ce0e13          	addi	x28,x28,28 # 80001014 <rvtest_code_begin+0xc04>
    80001000:	ff70011b          	addiw	x2,x0,-9
    80001004:	402e0e33          	sub	x28,x28,x2
    80001008:	ff7e0de7          	jalr	x27,-9(x28)
    8000100c:	000121b7          	lui	x3,0x12
    80001010:	3ab1819b          	addiw	x3,x3,939 # 123ab <offset+0x123ab>
    80001014:	0030b423          	sd	x3,8(x1)
    80001018:	0080006f          	jal	x0,80001020 <rvtest_code_begin+0xc10>
    8000101c:	0280006f          	jal	x0,80001044 <rvtest_code_begin+0xc34>
    80001020:	0000d1b7          	lui	x3,0xd
    80001024:	ccc1819b          	addiw	x3,x3,-820 # cccc <offset+0xcccc>
    80001028:	00000e97          	auipc	x29,0x0
    8000102c:	ff4e8e93          	addi	x29,x29,-12 # 8000101c <rvtest_code_begin+0xc0c>
    80001030:	fef0011b          	addiw	x2,x0,-17
    80001034:	402e8eb3          	sub	x29,x29,x2
    80001038:	fefe8e67          	jalr	x28,-17(x29)
    8000103c:	000121b7          	lui	x3,0x12
    80001040:	3ab1819b          	addiw	x3,x3,939 # 123ab <offset+0x123ab>
    80001044:	0030b823          	sd	x3,16(x1)
    80001048:	00004117          	auipc	x2,0x4
    8000104c:	1f010113          	addi	x2,x2,496 # 80005238 <signature_24_0>
    80001050:	0000d237          	lui	x4,0xd
    80001054:	ccc2021b          	addiw	x4,x4,-820 # cccc <offset+0xcccc>
    80001058:	00000f17          	auipc	x30,0x0
    8000105c:	01cf0f13          	addi	x30,x30,28 # 80001074 <rvtest_code_begin+0xc64>
    80001060:	fdf0019b          	addiw	x3,x0,-33
    80001064:	403f0f33          	sub	x30,x30,x3
    80001068:	fdff0ee7          	jalr	x29,-33(x30)
    8000106c:	00012237          	lui	x4,0x12
    80001070:	3ab2021b          	addiw	x4,x4,939 # 123ab <offset+0x123ab>
    80001074:	00413023          	sd	x4,0(x2)
    80001078:	0000d237          	lui	x4,0xd
    8000107c:	ccc2021b          	addiw	x4,x4,-820 # cccc <offset+0xcccc>
    80001080:	00000f97          	auipc	x31,0x0
    80001084:	01cf8f93          	addi	x31,x31,28 # 8000109c <rvtest_code_begin+0xc8c>
    80001088:	fbf0019b          	addiw	x3,x0,-65
    8000108c:	403f8fb3          	sub	x31,x31,x3
    80001090:	fbff8f67          	jalr	x30,-65(x31)
    80001094:	00012237          	lui	x4,0x12
    80001098:	3ab2021b          	addiw	x4,x4,939 # 123ab <offset+0x123ab>
    8000109c:	00413423          	sd	x4,8(x2)
    800010a0:	0080006f          	jal	x0,800010a8 <rvtest_code_begin+0xc98>
    800010a4:	0280006f          	jal	x0,800010cc <rvtest_code_begin+0xcbc>
    800010a8:	0000d237          	lui	x4,0xd
    800010ac:	ccc2021b          	addiw	x4,x4,-820 # cccc <offset+0xcccc>
    800010b0:	00000097          	auipc	x1,0x0
    800010b4:	ff408093          	addi	x1,x1,-12 # 800010a4 <rvtest_code_begin+0xc94>
    800010b8:	f7f0019b          	addiw	x3,x0,-129
    800010bc:	403080b3          	sub	x1,x1,x3
    800010c0:	f7f08fe7          	jalr	x31,-129(x1)
    800010c4:	00012237          	lui	x4,0x12
    800010c8:	3ab2021b          	addiw	x4,x4,939 # 123ab <offset+0x123ab>
    800010cc:	00413823          	sd	x4,16(x2)
    800010d0:	00004217          	auipc	x4,0x4
    800010d4:	18020213          	addi	x4,x4,384 # 80005250 <signature_25_0>
    800010d8:	0000d337          	lui	x6,0xd
    800010dc:	ccc3031b          	addiw	x6,x6,-820 # cccc <offset+0xcccc>
    800010e0:	00000117          	auipc	x2,0x0
    800010e4:	01c10113          	addi	x2,x2,28 # 800010fc <rvtest_code_begin+0xcec>
    800010e8:	eff0029b          	addiw	x5,x0,-257
    800010ec:	40510133          	sub	x2,x2,x5
    800010f0:	eff100e7          	jalr	x1,-257(x2)
    800010f4:	00012337          	lui	x6,0x12
    800010f8:	3ab3031b          	addiw	x6,x6,939 # 123ab <offset+0x123ab>
    800010fc:	00623023          	sd	x6,0(x4) # 0 <offset>
    80001100:	0000d337          	lui	x6,0xd
    80001104:	ccc3031b          	addiw	x6,x6,-820 # cccc <offset+0xcccc>
    80001108:	00000117          	auipc	x2,0x0
    8000110c:	01c10113          	addi	x2,x2,28 # 80001124 <rvtest_code_begin+0xd14>
    80001110:	dff0029b          	addiw	x5,x0,-513
    80001114:	40510133          	sub	x2,x2,x5
    80001118:	dff100e7          	jalr	x1,-513(x2)
    8000111c:	00012337          	lui	x6,0x12
    80001120:	3ab3031b          	addiw	x6,x6,939 # 123ab <offset+0x123ab>
    80001124:	00623423          	sd	x6,8(x4) # 8 <offset+0x8>
    80001128:	0080006f          	jal	x0,80001130 <rvtest_code_begin+0xd20>
    8000112c:	0280006f          	jal	x0,80001154 <rvtest_code_begin+0xd44>
    80001130:	0000d337          	lui	x6,0xd
    80001134:	ccc3031b          	addiw	x6,x6,-820 # cccc <offset+0xcccc>
    80001138:	00000197          	auipc	x3,0x0
    8000113c:	ff418193          	addi	x3,x3,-12 # 8000112c <rvtest_code_begin+0xd1c>
    80001140:	bff0029b          	addiw	x5,x0,-1025
    80001144:	405181b3          	sub	x3,x3,x5
    80001148:	bff18167          	jalr	x2,-1025(x3)
    8000114c:	00012337          	lui	x6,0x12
    80001150:	3ab3031b          	addiw	x6,x6,939 # 123ab <offset+0x123ab>
    80001154:	00623823          	sd	x6,16(x4) # 10 <offset+0x10>
    80001158:	00004097          	auipc	x1,0x4
    8000115c:	11008093          	addi	x1,x1,272 # 80005268 <signature_26_0>
    80001160:	0000d3b7          	lui	x7,0xd
    80001164:	ccc3839b          	addiw	x7,x7,-820 # cccc <offset+0xcccc>
    80001168:	00000217          	auipc	x4,0x0
    8000116c:	01c20213          	addi	x4,x4,28 # 80001184 <rvtest_code_begin+0xd74>
    80001170:	7ff0011b          	addiw	x2,x0,2047
    80001174:	40220233          	sub	x4,x4,x2
    80001178:	7ff201e7          	jalr	x3,2047(x4) # 0 <offset>
    8000117c:	000123b7          	lui	x7,0x12
    80001180:	3ab3839b          	addiw	x7,x7,939 # 123ab <offset+0x123ab>
    80001184:	0070b023          	sd	x7,0(x1)
    80001188:	0000d3b7          	lui	x7,0xd
    8000118c:	ccc3839b          	addiw	x7,x7,-820 # cccc <offset+0xcccc>
    80001190:	00000297          	auipc	x5,0x0
    80001194:	01c28293          	addi	x5,x5,28 # 800011ac <rvtest_code_begin+0xd9c>
    80001198:	ffe0011b          	addiw	x2,x0,-2
    8000119c:	402282b3          	sub	x5,x5,x2
    800011a0:	ffe28267          	jalr	x4,-2(x5)
    800011a4:	000123b7          	lui	x7,0x12
    800011a8:	3ab3839b          	addiw	x7,x7,939 # 123ab <offset+0x123ab>
    800011ac:	0070b423          	sd	x7,8(x1)
    800011b0:	0080006f          	jal	x0,800011b8 <rvtest_code_begin+0xda8>
    800011b4:	0280006f          	jal	x0,800011dc <rvtest_code_begin+0xdcc>
    800011b8:	0000d3b7          	lui	x7,0xd
    800011bc:	ccc3839b          	addiw	x7,x7,-820 # cccc <offset+0xcccc>
    800011c0:	00000317          	auipc	x6,0x0
    800011c4:	ff430313          	addi	x6,x6,-12 # 800011b4 <rvtest_code_begin+0xda4>
    800011c8:	ffd0011b          	addiw	x2,x0,-3
    800011cc:	40230333          	sub	x6,x6,x2
    800011d0:	ffd302e7          	jalr	x5,-3(x6)
    800011d4:	000123b7          	lui	x7,0x12
    800011d8:	3ab3839b          	addiw	x7,x7,939 # 123ab <offset+0x123ab>
    800011dc:	0070b823          	sd	x7,16(x1)
    800011e0:	00004097          	auipc	x1,0x4
    800011e4:	0a008093          	addi	x1,x1,160 # 80005280 <signature_27_0>
    800011e8:	0000d1b7          	lui	x3,0xd
    800011ec:	ccc1819b          	addiw	x3,x3,-820 # cccc <offset+0xcccc>
    800011f0:	00000397          	auipc	x7,0x0
    800011f4:	01c38393          	addi	x7,x7,28 # 8000120c <rvtest_code_begin+0xdfc>
    800011f8:	ffb0011b          	addiw	x2,x0,-5
    800011fc:	402383b3          	sub	x7,x7,x2
    80001200:	ffb38367          	jalr	x6,-5(x7)
    80001204:	000121b7          	lui	x3,0x12
    80001208:	3ab1819b          	addiw	x3,x3,939 # 123ab <offset+0x123ab>
    8000120c:	0030b023          	sd	x3,0(x1)
    80001210:	0000d1b7          	lui	x3,0xd
    80001214:	ccc1819b          	addiw	x3,x3,-820 # cccc <offset+0xcccc>
    80001218:	00000417          	auipc	x8,0x0
    8000121c:	01c40413          	addi	x8,x8,28 # 80001234 <rvtest_code_begin+0xe24>
    80001220:	ff70011b          	addiw	x2,x0,-9
    80001224:	40240433          	sub	x8,x8,x2
    80001228:	ff7403e7          	jalr	x7,-9(x8)
    8000122c:	000121b7          	lui	x3,0x12
    80001230:	3ab1819b          	addiw	x3,x3,939 # 123ab <offset+0x123ab>
    80001234:	0030b423          	sd	x3,8(x1)
    80001238:	0080006f          	jal	x0,80001240 <rvtest_code_begin+0xe30>
    8000123c:	0280006f          	jal	x0,80001264 <rvtest_code_begin+0xe54>
    80001240:	0000d1b7          	lui	x3,0xd
    80001244:	ccc1819b          	addiw	x3,x3,-820 # cccc <offset+0xcccc>
    80001248:	00000497          	auipc	x9,0x0
    8000124c:	ff448493          	addi	x9,x9,-12 # 8000123c <rvtest_code_begin+0xe2c>
    80001250:	fef0011b          	addiw	x2,x0,-17
    80001254:	402484b3          	sub	x9,x9,x2
    80001258:	fef48467          	jalr	x8,-17(x9)
    8000125c:	000121b7          	lui	x3,0x12
    80001260:	3ab1819b          	addiw	x3,x3,939 # 123ab <offset+0x123ab>
    80001264:	0030b823          	sd	x3,16(x1)
    80001268:	00004097          	auipc	x1,0x4
    8000126c:	03008093          	addi	x1,x1,48 # 80005298 <signature_28_0>
    80001270:	0000d1b7          	lui	x3,0xd
    80001274:	ccc1819b          	addiw	x3,x3,-820 # cccc <offset+0xcccc>
    80001278:	00000517          	auipc	x10,0x0
    8000127c:	01c50513          	addi	x10,x10,28 # 80001294 <rvtest_code_begin+0xe84>
    80001280:	fdf0011b          	addiw	x2,x0,-33
    80001284:	40250533          	sub	x10,x10,x2
    80001288:	fdf504e7          	jalr	x9,-33(x10)
    8000128c:	000121b7          	lui	x3,0x12
    80001290:	3ab1819b          	addiw	x3,x3,939 # 123ab <offset+0x123ab>
    80001294:	0030b023          	sd	x3,0(x1)
    80001298:	0000d1b7          	lui	x3,0xd
    8000129c:	ccc1819b          	addiw	x3,x3,-820 # cccc <offset+0xcccc>
    800012a0:	00000597          	auipc	x11,0x0
    800012a4:	01c58593          	addi	x11,x11,28 # 800012bc <rvtest_code_begin+0xeac>
    800012a8:	fbf0011b          	addiw	x2,x0,-65
    800012ac:	402585b3          	sub	x11,x11,x2
    800012b0:	fbf58567          	jalr	x10,-65(x11)
    800012b4:	000121b7          	lui	x3,0x12
    800012b8:	3ab1819b          	addiw	x3,x3,939 # 123ab <offset+0x123ab>
    800012bc:	0030b423          	sd	x3,8(x1)
    800012c0:	0080006f          	jal	x0,800012c8 <rvtest_code_begin+0xeb8>
    800012c4:	0280006f          	jal	x0,800012ec <rvtest_code_begin+0xedc>
    800012c8:	0000d1b7          	lui	x3,0xd
    800012cc:	ccc1819b          	addiw	x3,x3,-820 # cccc <offset+0xcccc>
    800012d0:	00000617          	auipc	x12,0x0
    800012d4:	ff460613          	addi	x12,x12,-12 # 800012c4 <rvtest_code_begin+0xeb4>
    800012d8:	f7f0011b          	addiw	x2,x0,-129
    800012dc:	40260633          	sub	x12,x12,x2
    800012e0:	f7f605e7          	jalr	x11,-129(x12)
    800012e4:	000121b7          	lui	x3,0x12
    800012e8:	3ab1819b          	addiw	x3,x3,939 # 123ab <offset+0x123ab>
    800012ec:	0030b823          	sd	x3,16(x1)
    800012f0:	00004097          	auipc	x1,0x4
    800012f4:	fc008093          	addi	x1,x1,-64 # 800052b0 <signature_29_0>
    800012f8:	0000d1b7          	lui	x3,0xd
    800012fc:	ccc1819b          	addiw	x3,x3,-820 # cccc <offset+0xcccc>
    80001300:	00000697          	auipc	x13,0x0
    80001304:	01c68693          	addi	x13,x13,28 # 8000131c <rvtest_code_begin+0xf0c>
    80001308:	eff0011b          	addiw	x2,x0,-257
    8000130c:	402686b3          	sub	x13,x13,x2
    80001310:	eff68667          	jalr	x12,-257(x13)
    80001314:	000121b7          	lui	x3,0x12
    80001318:	3ab1819b          	addiw	x3,x3,939 # 123ab <offset+0x123ab>
    8000131c:	0030b023          	sd	x3,0(x1)
    80001320:	0000d1b7          	lui	x3,0xd
    80001324:	ccc1819b          	addiw	x3,x3,-820 # cccc <offset+0xcccc>
    80001328:	00000717          	auipc	x14,0x0
    8000132c:	01c70713          	addi	x14,x14,28 # 80001344 <rvtest_code_begin+0xf34>
    80001330:	dff0011b          	addiw	x2,x0,-513
    80001334:	40270733          	sub	x14,x14,x2
    80001338:	dff706e7          	jalr	x13,-513(x14)
    8000133c:	000121b7          	lui	x3,0x12
    80001340:	3ab1819b          	addiw	x3,x3,939 # 123ab <offset+0x123ab>
    80001344:	0030b423          	sd	x3,8(x1)
    80001348:	0080006f          	jal	x0,80001350 <rvtest_code_begin+0xf40>
    8000134c:	0280006f          	jal	x0,80001374 <rvtest_code_begin+0xf64>
    80001350:	0000d1b7          	lui	x3,0xd
    80001354:	ccc1819b          	addiw	x3,x3,-820 # cccc <offset+0xcccc>
    80001358:	00000797          	auipc	x15,0x0
    8000135c:	ff478793          	addi	x15,x15,-12 # 8000134c <rvtest_code_begin+0xf3c>
    80001360:	bff0011b          	addiw	x2,x0,-1025
    80001364:	402787b3          	sub	x15,x15,x2
    80001368:	bff78767          	jalr	x14,-1025(x15)
    8000136c:	000121b7          	lui	x3,0x12
    80001370:	3ab1819b          	addiw	x3,x3,939 # 123ab <offset+0x123ab>
    80001374:	0030b823          	sd	x3,16(x1)
    80001378:	00004097          	auipc	x1,0x4
    8000137c:	f5008093          	addi	x1,x1,-176 # 800052c8 <signature_30_0>
    80001380:	0000d1b7          	lui	x3,0xd
    80001384:	ccc1819b          	addiw	x3,x3,-820 # cccc <offset+0xcccc>
    80001388:	00000817          	auipc	x16,0x0
    8000138c:	01c80813          	addi	x16,x16,28 # 800013a4 <rvtest_code_begin+0xf94>
    80001390:	7ff0011b          	addiw	x2,x0,2047
    80001394:	40280833          	sub	x16,x16,x2
    80001398:	7ff807e7          	jalr	x15,2047(x16)
    8000139c:	000121b7          	lui	x3,0x12
    800013a0:	3ab1819b          	addiw	x3,x3,939 # 123ab <offset+0x123ab>
    800013a4:	0030b023          	sd	x3,0(x1)
    800013a8:	0000d1b7          	lui	x3,0xd
    800013ac:	ccc1819b          	addiw	x3,x3,-820 # cccc <offset+0xcccc>
    800013b0:	00000897          	auipc	x17,0x0
    800013b4:	01c88893          	addi	x17,x17,28 # 800013cc <rvtest_code_begin+0xfbc>
    800013b8:	ffe0011b          	addiw	x2,x0,-2
    800013bc:	402888b3          	sub	x17,x17,x2
    800013c0:	ffe88867          	jalr	x16,-2(x17)
    800013c4:	000121b7          	lui	x3,0x12
    800013c8:	3ab1819b          	addiw	x3,x3,939 # 123ab <offset+0x123ab>
    800013cc:	0030b423          	sd	x3,8(x1)
    800013d0:	0080006f          	jal	x0,800013d8 <rvtest_code_begin+0xfc8>
    800013d4:	0280006f          	jal	x0,800013fc <rvtest_code_begin+0xfec>
    800013d8:	0000d1b7          	lui	x3,0xd
    800013dc:	ccc1819b          	addiw	x3,x3,-820 # cccc <offset+0xcccc>
    800013e0:	00000917          	auipc	x18,0x0
    800013e4:	ff490913          	addi	x18,x18,-12 # 800013d4 <rvtest_code_begin+0xfc4>
    800013e8:	ffd0011b          	addiw	x2,x0,-3
    800013ec:	40290933          	sub	x18,x18,x2
    800013f0:	ffd908e7          	jalr	x17,-3(x18)
    800013f4:	000121b7          	lui	x3,0x12
    800013f8:	3ab1819b          	addiw	x3,x3,939 # 123ab <offset+0x123ab>
    800013fc:	0030b823          	sd	x3,16(x1)
    80001400:	00004097          	auipc	x1,0x4
    80001404:	ee008093          	addi	x1,x1,-288 # 800052e0 <signature_31_0>
    80001408:	0000d1b7          	lui	x3,0xd
    8000140c:	ccc1819b          	addiw	x3,x3,-820 # cccc <offset+0xcccc>
    80001410:	00000997          	auipc	x19,0x0
    80001414:	01c98993          	addi	x19,x19,28 # 8000142c <rvtest_code_begin+0x101c>
    80001418:	ffb0011b          	addiw	x2,x0,-5
    8000141c:	402989b3          	sub	x19,x19,x2
    80001420:	ffb98967          	jalr	x18,-5(x19)
    80001424:	000121b7          	lui	x3,0x12
    80001428:	3ab1819b          	addiw	x3,x3,939 # 123ab <offset+0x123ab>
    8000142c:	0030b023          	sd	x3,0(x1)
    80001430:	0000d1b7          	lui	x3,0xd
    80001434:	ccc1819b          	addiw	x3,x3,-820 # cccc <offset+0xcccc>
    80001438:	00000a17          	auipc	x20,0x0
    8000143c:	01ca0a13          	addi	x20,x20,28 # 80001454 <rvtest_code_begin+0x1044>
    80001440:	ff70011b          	addiw	x2,x0,-9
    80001444:	402a0a33          	sub	x20,x20,x2
    80001448:	ff7a09e7          	jalr	x19,-9(x20)
    8000144c:	000121b7          	lui	x3,0x12
    80001450:	3ab1819b          	addiw	x3,x3,939 # 123ab <offset+0x123ab>
    80001454:	0030b423          	sd	x3,8(x1)
    80001458:	0080006f          	jal	x0,80001460 <rvtest_code_begin+0x1050>
    8000145c:	0280006f          	jal	x0,80001484 <rvtest_code_begin+0x1074>
    80001460:	0000d1b7          	lui	x3,0xd
    80001464:	ccc1819b          	addiw	x3,x3,-820 # cccc <offset+0xcccc>
    80001468:	00000a97          	auipc	x21,0x0
    8000146c:	ff4a8a93          	addi	x21,x21,-12 # 8000145c <rvtest_code_begin+0x104c>
    80001470:	fef0011b          	addiw	x2,x0,-17
    80001474:	402a8ab3          	sub	x21,x21,x2
    80001478:	fefa8a67          	jalr	x20,-17(x21)
    8000147c:	000121b7          	lui	x3,0x12
    80001480:	3ab1819b          	addiw	x3,x3,939 # 123ab <offset+0x123ab>
    80001484:	0030b823          	sd	x3,16(x1)
    80001488:	00004097          	auipc	x1,0x4
    8000148c:	e7008093          	addi	x1,x1,-400 # 800052f8 <signature_32_0>
    80001490:	0000d1b7          	lui	x3,0xd
    80001494:	ccc1819b          	addiw	x3,x3,-820 # cccc <offset+0xcccc>
    80001498:	00000b17          	auipc	x22,0x0
    8000149c:	01cb0b13          	addi	x22,x22,28 # 800014b4 <rvtest_code_begin+0x10a4>
    800014a0:	fdf0011b          	addiw	x2,x0,-33
    800014a4:	402b0b33          	sub	x22,x22,x2
    800014a8:	fdfb0ae7          	jalr	x21,-33(x22)
    800014ac:	000121b7          	lui	x3,0x12
    800014b0:	3ab1819b          	addiw	x3,x3,939 # 123ab <offset+0x123ab>
    800014b4:	0030b023          	sd	x3,0(x1)
    800014b8:	0000d1b7          	lui	x3,0xd
    800014bc:	ccc1819b          	addiw	x3,x3,-820 # cccc <offset+0xcccc>
    800014c0:	00000b97          	auipc	x23,0x0
    800014c4:	01cb8b93          	addi	x23,x23,28 # 800014dc <rvtest_code_begin+0x10cc>
    800014c8:	fbf0011b          	addiw	x2,x0,-65
    800014cc:	402b8bb3          	sub	x23,x23,x2
    800014d0:	fbfb8b67          	jalr	x22,-65(x23)
    800014d4:	000121b7          	lui	x3,0x12
    800014d8:	3ab1819b          	addiw	x3,x3,939 # 123ab <offset+0x123ab>
    800014dc:	0030b423          	sd	x3,8(x1)
    800014e0:	0080006f          	jal	x0,800014e8 <rvtest_code_begin+0x10d8>
    800014e4:	0280006f          	jal	x0,8000150c <rvtest_code_begin+0x10fc>
    800014e8:	0000d1b7          	lui	x3,0xd
    800014ec:	ccc1819b          	addiw	x3,x3,-820 # cccc <offset+0xcccc>
    800014f0:	00000c17          	auipc	x24,0x0
    800014f4:	ff4c0c13          	addi	x24,x24,-12 # 800014e4 <rvtest_code_begin+0x10d4>
    800014f8:	f7f0011b          	addiw	x2,x0,-129
    800014fc:	402c0c33          	sub	x24,x24,x2
    80001500:	f7fc0be7          	jalr	x23,-129(x24)
    80001504:	000121b7          	lui	x3,0x12
    80001508:	3ab1819b          	addiw	x3,x3,939 # 123ab <offset+0x123ab>
    8000150c:	0030b823          	sd	x3,16(x1)
    80001510:	00004097          	auipc	x1,0x4
    80001514:	e0008093          	addi	x1,x1,-512 # 80005310 <signature_33_0>
    80001518:	0000d1b7          	lui	x3,0xd
    8000151c:	ccc1819b          	addiw	x3,x3,-820 # cccc <offset+0xcccc>
    80001520:	00000c97          	auipc	x25,0x0
    80001524:	01cc8c93          	addi	x25,x25,28 # 8000153c <rvtest_code_begin+0x112c>
    80001528:	eff0011b          	addiw	x2,x0,-257
    8000152c:	402c8cb3          	sub	x25,x25,x2
    80001530:	effc8c67          	jalr	x24,-257(x25)
    80001534:	000121b7          	lui	x3,0x12
    80001538:	3ab1819b          	addiw	x3,x3,939 # 123ab <offset+0x123ab>
    8000153c:	0030b023          	sd	x3,0(x1)
    80001540:	0000d1b7          	lui	x3,0xd
    80001544:	ccc1819b          	addiw	x3,x3,-820 # cccc <offset+0xcccc>
    80001548:	00000d17          	auipc	x26,0x0
    8000154c:	01cd0d13          	addi	x26,x26,28 # 80001564 <rvtest_code_begin+0x1154>
    80001550:	dff0011b          	addiw	x2,x0,-513
    80001554:	402d0d33          	sub	x26,x26,x2
    80001558:	dffd0ce7          	jalr	x25,-513(x26)
    8000155c:	000121b7          	lui	x3,0x12
    80001560:	3ab1819b          	addiw	x3,x3,939 # 123ab <offset+0x123ab>
    80001564:	0030b423          	sd	x3,8(x1)
    80001568:	0080006f          	jal	x0,80001570 <rvtest_code_begin+0x1160>
    8000156c:	0280006f          	jal	x0,80001594 <rvtest_code_begin+0x1184>
    80001570:	0000d1b7          	lui	x3,0xd
    80001574:	ccc1819b          	addiw	x3,x3,-820 # cccc <offset+0xcccc>
    80001578:	00000d97          	auipc	x27,0x0
    8000157c:	ff4d8d93          	addi	x27,x27,-12 # 8000156c <rvtest_code_begin+0x115c>
    80001580:	bff0011b          	addiw	x2,x0,-1025
    80001584:	402d8db3          	sub	x27,x27,x2
    80001588:	bffd8d67          	jalr	x26,-1025(x27)
    8000158c:	000121b7          	lui	x3,0x12
    80001590:	3ab1819b          	addiw	x3,x3,939 # 123ab <offset+0x123ab>
    80001594:	0030b823          	sd	x3,16(x1)
    80001598:	00004097          	auipc	x1,0x4
    8000159c:	d9008093          	addi	x1,x1,-624 # 80005328 <signature_34_0>
    800015a0:	0000d1b7          	lui	x3,0xd
    800015a4:	ccc1819b          	addiw	x3,x3,-820 # cccc <offset+0xcccc>
    800015a8:	00000e17          	auipc	x28,0x0
    800015ac:	01ce0e13          	addi	x28,x28,28 # 800015c4 <rvtest_code_begin+0x11b4>
    800015b0:	7ff0011b          	addiw	x2,x0,2047
    800015b4:	402e0e33          	sub	x28,x28,x2
    800015b8:	7ffe0de7          	jalr	x27,2047(x28)
    800015bc:	000121b7          	lui	x3,0x12
    800015c0:	3ab1819b          	addiw	x3,x3,939 # 123ab <offset+0x123ab>
    800015c4:	0030b023          	sd	x3,0(x1)
    800015c8:	0000d1b7          	lui	x3,0xd
    800015cc:	ccc1819b          	addiw	x3,x3,-820 # cccc <offset+0xcccc>
    800015d0:	00000e97          	auipc	x29,0x0
    800015d4:	01ce8e93          	addi	x29,x29,28 # 800015ec <rvtest_code_begin+0x11dc>
    800015d8:	ffe0011b          	addiw	x2,x0,-2
    800015dc:	402e8eb3          	sub	x29,x29,x2
    800015e0:	ffee8e67          	jalr	x28,-2(x29)
    800015e4:	000121b7          	lui	x3,0x12
    800015e8:	3ab1819b          	addiw	x3,x3,939 # 123ab <offset+0x123ab>
    800015ec:	0030b423          	sd	x3,8(x1)
    800015f0:	0080006f          	jal	x0,800015f8 <rvtest_code_begin+0x11e8>
    800015f4:	0280006f          	jal	x0,8000161c <rvtest_code_begin+0x120c>
    800015f8:	0000d1b7          	lui	x3,0xd
    800015fc:	ccc1819b          	addiw	x3,x3,-820 # cccc <offset+0xcccc>
    80001600:	00000f17          	auipc	x30,0x0
    80001604:	ff4f0f13          	addi	x30,x30,-12 # 800015f4 <rvtest_code_begin+0x11e4>
    80001608:	ffd0011b          	addiw	x2,x0,-3
    8000160c:	402f0f33          	sub	x30,x30,x2
    80001610:	ffdf0ee7          	jalr	x29,-3(x30)
    80001614:	000121b7          	lui	x3,0x12
    80001618:	3ab1819b          	addiw	x3,x3,939 # 123ab <offset+0x123ab>
    8000161c:	0030b823          	sd	x3,16(x1)
    80001620:	00004197          	auipc	x3,0x4
    80001624:	d2018193          	addi	x3,x3,-736 # 80005340 <signature_35_0>
    80001628:	0000d2b7          	lui	x5,0xd
    8000162c:	ccc2829b          	addiw	x5,x5,-820 # cccc <offset+0xcccc>
    80001630:	00000f97          	auipc	x31,0x0
    80001634:	01cf8f93          	addi	x31,x31,28 # 8000164c <rvtest_code_begin+0x123c>
    80001638:	ffb0021b          	addiw	x4,x0,-5
    8000163c:	404f8fb3          	sub	x31,x31,x4
    80001640:	ffbf8f67          	jalr	x30,-5(x31)
    80001644:	000122b7          	lui	x5,0x12
    80001648:	3ab2829b          	addiw	x5,x5,939 # 123ab <offset+0x123ab>
    8000164c:	0051b023          	sd	x5,0(x3)
    80001650:	0000d2b7          	lui	x5,0xd
    80001654:	ccc2829b          	addiw	x5,x5,-820 # cccc <offset+0xcccc>
    80001658:	00000097          	auipc	x1,0x0
    8000165c:	01c08093          	addi	x1,x1,28 # 80001674 <rvtest_code_begin+0x1264>
    80001660:	ff70021b          	addiw	x4,x0,-9
    80001664:	404080b3          	sub	x1,x1,x4
    80001668:	ff708fe7          	jalr	x31,-9(x1)
    8000166c:	000122b7          	lui	x5,0x12
    80001670:	3ab2829b          	addiw	x5,x5,939 # 123ab <offset+0x123ab>
    80001674:	0051b423          	sd	x5,8(x3)
    80001678:	0080006f          	jal	x0,80001680 <rvtest_code_begin+0x1270>
    8000167c:	0280006f          	jal	x0,800016a4 <rvtest_code_begin+0x1294>
    80001680:	0000d2b7          	lui	x5,0xd
    80001684:	ccc2829b          	addiw	x5,x5,-820 # cccc <offset+0xcccc>
    80001688:	00000117          	auipc	x2,0x0
    8000168c:	ff410113          	addi	x2,x2,-12 # 8000167c <rvtest_code_begin+0x126c>
    80001690:	fef0021b          	addiw	x4,x0,-17
    80001694:	40410133          	sub	x2,x2,x4
    80001698:	fef100e7          	jalr	x1,-17(x2)
    8000169c:	000122b7          	lui	x5,0x12
    800016a0:	3ab2829b          	addiw	x5,x5,939 # 123ab <offset+0x123ab>
    800016a4:	0051b823          	sd	x5,16(x3)
    800016a8:	00004297          	auipc	x5,0x4
    800016ac:	cb028293          	addi	x5,x5,-848 # 80005358 <signature_36_0>
    800016b0:	0000d3b7          	lui	x7,0xd
    800016b4:	ccc3839b          	addiw	x7,x7,-820 # cccc <offset+0xcccc>
    800016b8:	00000117          	auipc	x2,0x0
    800016bc:	01c10113          	addi	x2,x2,28 # 800016d4 <rvtest_code_begin+0x12c4>
    800016c0:	fdf0031b          	addiw	x6,x0,-33
    800016c4:	40610133          	sub	x2,x2,x6
    800016c8:	fdf100e7          	jalr	x1,-33(x2)
    800016cc:	000123b7          	lui	x7,0x12
    800016d0:	3ab3839b          	addiw	x7,x7,939 # 123ab <offset+0x123ab>
    800016d4:	0072b023          	sd	x7,0(x5)
    800016d8:	0000d3b7          	lui	x7,0xd
    800016dc:	ccc3839b          	addiw	x7,x7,-820 # cccc <offset+0xcccc>
    800016e0:	00000197          	auipc	x3,0x0
    800016e4:	01c18193          	addi	x3,x3,28 # 800016fc <rvtest_code_begin+0x12ec>
    800016e8:	fbf0031b          	addiw	x6,x0,-65
    800016ec:	406181b3          	sub	x3,x3,x6
    800016f0:	fbf18167          	jalr	x2,-65(x3)
    800016f4:	000123b7          	lui	x7,0x12
    800016f8:	3ab3839b          	addiw	x7,x7,939 # 123ab <offset+0x123ab>
    800016fc:	0072b423          	sd	x7,8(x5)
    80001700:	0080006f          	jal	x0,80001708 <rvtest_code_begin+0x12f8>
    80001704:	0280006f          	jal	x0,8000172c <rvtest_code_begin+0x131c>
    80001708:	0000d3b7          	lui	x7,0xd
    8000170c:	ccc3839b          	addiw	x7,x7,-820 # cccc <offset+0xcccc>
    80001710:	00000217          	auipc	x4,0x0
    80001714:	ff420213          	addi	x4,x4,-12 # 80001704 <rvtest_code_begin+0x12f4>
    80001718:	f7f0031b          	addiw	x6,x0,-129
    8000171c:	40620233          	sub	x4,x4,x6
    80001720:	f7f201e7          	jalr	x3,-129(x4) # 0 <offset>
    80001724:	000123b7          	lui	x7,0x12
    80001728:	3ab3839b          	addiw	x7,x7,939 # 123ab <offset+0x123ab>
    8000172c:	0072b823          	sd	x7,16(x5)
    80001730:	00004097          	auipc	x1,0x4
    80001734:	c4008093          	addi	x1,x1,-960 # 80005370 <signature_37_0>
    80001738:	0000d1b7          	lui	x3,0xd
    8000173c:	ccc1819b          	addiw	x3,x3,-820 # cccc <offset+0xcccc>
    80001740:	00000297          	auipc	x5,0x0
    80001744:	01c28293          	addi	x5,x5,28 # 8000175c <rvtest_code_begin+0x134c>
    80001748:	eff0011b          	addiw	x2,x0,-257
    8000174c:	402282b3          	sub	x5,x5,x2
    80001750:	eff28267          	jalr	x4,-257(x5)
    80001754:	000121b7          	lui	x3,0x12
    80001758:	3ab1819b          	addiw	x3,x3,939 # 123ab <offset+0x123ab>
    8000175c:	0030b023          	sd	x3,0(x1)
    80001760:	0000d1b7          	lui	x3,0xd
    80001764:	ccc1819b          	addiw	x3,x3,-820 # cccc <offset+0xcccc>
    80001768:	00000317          	auipc	x6,0x0
    8000176c:	01c30313          	addi	x6,x6,28 # 80001784 <rvtest_code_begin+0x1374>
    80001770:	dff0011b          	addiw	x2,x0,-513
    80001774:	40230333          	sub	x6,x6,x2
    80001778:	dff302e7          	jalr	x5,-513(x6)
    8000177c:	000121b7          	lui	x3,0x12
    80001780:	3ab1819b          	addiw	x3,x3,939 # 123ab <offset+0x123ab>
    80001784:	0030b423          	sd	x3,8(x1)
    80001788:	0080006f          	jal	x0,80001790 <rvtest_code_begin+0x1380>
    8000178c:	0280006f          	jal	x0,800017b4 <rvtest_code_begin+0x13a4>
    80001790:	0000d1b7          	lui	x3,0xd
    80001794:	ccc1819b          	addiw	x3,x3,-820 # cccc <offset+0xcccc>
    80001798:	00000397          	auipc	x7,0x0
    8000179c:	ff438393          	addi	x7,x7,-12 # 8000178c <rvtest_code_begin+0x137c>
    800017a0:	bff0011b          	addiw	x2,x0,-1025
    800017a4:	402383b3          	sub	x7,x7,x2
    800017a8:	bff38367          	jalr	x6,-1025(x7)
    800017ac:	000121b7          	lui	x3,0x12
    800017b0:	3ab1819b          	addiw	x3,x3,939 # 123ab <offset+0x123ab>
    800017b4:	0030b823          	sd	x3,16(x1)
    800017b8:	00004097          	auipc	x1,0x4
    800017bc:	bd008093          	addi	x1,x1,-1072 # 80005388 <signature_38_0>
    800017c0:	0000d1b7          	lui	x3,0xd
    800017c4:	ccc1819b          	addiw	x3,x3,-820 # cccc <offset+0xcccc>
    800017c8:	00000417          	auipc	x8,0x0
    800017cc:	01c40413          	addi	x8,x8,28 # 800017e4 <rvtest_code_begin+0x13d4>
    800017d0:	7ff0011b          	addiw	x2,x0,2047
    800017d4:	40240433          	sub	x8,x8,x2
    800017d8:	7ff403e7          	jalr	x7,2047(x8)
    800017dc:	000121b7          	lui	x3,0x12
    800017e0:	3ab1819b          	addiw	x3,x3,939 # 123ab <offset+0x123ab>
    800017e4:	0030b023          	sd	x3,0(x1)
    800017e8:	0000d1b7          	lui	x3,0xd
    800017ec:	ccc1819b          	addiw	x3,x3,-820 # cccc <offset+0xcccc>
    800017f0:	00000497          	auipc	x9,0x0
    800017f4:	01c48493          	addi	x9,x9,28 # 8000180c <rvtest_code_begin+0x13fc>
    800017f8:	ffe0011b          	addiw	x2,x0,-2
    800017fc:	402484b3          	sub	x9,x9,x2
    80001800:	ffe48467          	jalr	x8,-2(x9)
    80001804:	000121b7          	lui	x3,0x12
    80001808:	3ab1819b          	addiw	x3,x3,939 # 123ab <offset+0x123ab>
    8000180c:	0030b423          	sd	x3,8(x1)
    80001810:	0080006f          	jal	x0,80001818 <rvtest_code_begin+0x1408>
    80001814:	0280006f          	jal	x0,8000183c <rvtest_code_begin+0x142c>
    80001818:	0000d1b7          	lui	x3,0xd
    8000181c:	ccc1819b          	addiw	x3,x3,-820 # cccc <offset+0xcccc>
    80001820:	00000517          	auipc	x10,0x0
    80001824:	ff450513          	addi	x10,x10,-12 # 80001814 <rvtest_code_begin+0x1404>
    80001828:	ffd0011b          	addiw	x2,x0,-3
    8000182c:	40250533          	sub	x10,x10,x2
    80001830:	ffd504e7          	jalr	x9,-3(x10)
    80001834:	000121b7          	lui	x3,0x12
    80001838:	3ab1819b          	addiw	x3,x3,939 # 123ab <offset+0x123ab>
    8000183c:	0030b823          	sd	x3,16(x1)
    80001840:	00004097          	auipc	x1,0x4
    80001844:	b6008093          	addi	x1,x1,-1184 # 800053a0 <signature_39_0>
    80001848:	0000d1b7          	lui	x3,0xd
    8000184c:	ccc1819b          	addiw	x3,x3,-820 # cccc <offset+0xcccc>
    80001850:	00000597          	auipc	x11,0x0
    80001854:	01c58593          	addi	x11,x11,28 # 8000186c <rvtest_code_begin+0x145c>
    80001858:	ffb0011b          	addiw	x2,x0,-5
    8000185c:	402585b3          	sub	x11,x11,x2
    80001860:	ffb58567          	jalr	x10,-5(x11)
    80001864:	000121b7          	lui	x3,0x12
    80001868:	3ab1819b          	addiw	x3,x3,939 # 123ab <offset+0x123ab>
    8000186c:	0030b023          	sd	x3,0(x1)
    80001870:	0000d1b7          	lui	x3,0xd
    80001874:	ccc1819b          	addiw	x3,x3,-820 # cccc <offset+0xcccc>
    80001878:	00000617          	auipc	x12,0x0
    8000187c:	01c60613          	addi	x12,x12,28 # 80001894 <rvtest_code_begin+0x1484>
    80001880:	ff70011b          	addiw	x2,x0,-9
    80001884:	40260633          	sub	x12,x12,x2
    80001888:	ff7605e7          	jalr	x11,-9(x12)
    8000188c:	000121b7          	lui	x3,0x12
    80001890:	3ab1819b          	addiw	x3,x3,939 # 123ab <offset+0x123ab>
    80001894:	0030b423          	sd	x3,8(x1)
    80001898:	0080006f          	jal	x0,800018a0 <rvtest_code_begin+0x1490>
    8000189c:	0280006f          	jal	x0,800018c4 <rvtest_code_begin+0x14b4>
    800018a0:	0000d1b7          	lui	x3,0xd
    800018a4:	ccc1819b          	addiw	x3,x3,-820 # cccc <offset+0xcccc>
    800018a8:	00000697          	auipc	x13,0x0
    800018ac:	ff468693          	addi	x13,x13,-12 # 8000189c <rvtest_code_begin+0x148c>
    800018b0:	fef0011b          	addiw	x2,x0,-17
    800018b4:	402686b3          	sub	x13,x13,x2
    800018b8:	fef68667          	jalr	x12,-17(x13)
    800018bc:	000121b7          	lui	x3,0x12
    800018c0:	3ab1819b          	addiw	x3,x3,939 # 123ab <offset+0x123ab>
    800018c4:	0030b823          	sd	x3,16(x1)
    800018c8:	00004097          	auipc	x1,0x4
    800018cc:	af008093          	addi	x1,x1,-1296 # 800053b8 <signature_40_0>
    800018d0:	0000d1b7          	lui	x3,0xd
    800018d4:	ccc1819b          	addiw	x3,x3,-820 # cccc <offset+0xcccc>
    800018d8:	00000717          	auipc	x14,0x0
    800018dc:	01c70713          	addi	x14,x14,28 # 800018f4 <rvtest_code_begin+0x14e4>
    800018e0:	fdf0011b          	addiw	x2,x0,-33
    800018e4:	40270733          	sub	x14,x14,x2
    800018e8:	fdf706e7          	jalr	x13,-33(x14)
    800018ec:	000121b7          	lui	x3,0x12
    800018f0:	3ab1819b          	addiw	x3,x3,939 # 123ab <offset+0x123ab>
    800018f4:	0030b023          	sd	x3,0(x1)
    800018f8:	0000d1b7          	lui	x3,0xd
    800018fc:	ccc1819b          	addiw	x3,x3,-820 # cccc <offset+0xcccc>
    80001900:	00000797          	auipc	x15,0x0
    80001904:	01c78793          	addi	x15,x15,28 # 8000191c <rvtest_code_begin+0x150c>
    80001908:	fbf0011b          	addiw	x2,x0,-65
    8000190c:	402787b3          	sub	x15,x15,x2
    80001910:	fbf78767          	jalr	x14,-65(x15)
    80001914:	000121b7          	lui	x3,0x12
    80001918:	3ab1819b          	addiw	x3,x3,939 # 123ab <offset+0x123ab>
    8000191c:	0030b423          	sd	x3,8(x1)
    80001920:	0080006f          	jal	x0,80001928 <rvtest_code_begin+0x1518>
    80001924:	0280006f          	jal	x0,8000194c <rvtest_code_begin+0x153c>
    80001928:	0000d1b7          	lui	x3,0xd
    8000192c:	ccc1819b          	addiw	x3,x3,-820 # cccc <offset+0xcccc>
    80001930:	00000817          	auipc	x16,0x0
    80001934:	ff480813          	addi	x16,x16,-12 # 80001924 <rvtest_code_begin+0x1514>
    80001938:	f7f0011b          	addiw	x2,x0,-129
    8000193c:	40280833          	sub	x16,x16,x2
    80001940:	f7f807e7          	jalr	x15,-129(x16)
    80001944:	000121b7          	lui	x3,0x12
    80001948:	3ab1819b          	addiw	x3,x3,939 # 123ab <offset+0x123ab>
    8000194c:	0030b823          	sd	x3,16(x1)
    80001950:	00004097          	auipc	x1,0x4
    80001954:	a8008093          	addi	x1,x1,-1408 # 800053d0 <signature_41_0>
    80001958:	0000d1b7          	lui	x3,0xd
    8000195c:	ccc1819b          	addiw	x3,x3,-820 # cccc <offset+0xcccc>
    80001960:	00000897          	auipc	x17,0x0
    80001964:	01c88893          	addi	x17,x17,28 # 8000197c <rvtest_code_begin+0x156c>
    80001968:	eff0011b          	addiw	x2,x0,-257
    8000196c:	402888b3          	sub	x17,x17,x2
    80001970:	eff88867          	jalr	x16,-257(x17)
    80001974:	000121b7          	lui	x3,0x12
    80001978:	3ab1819b          	addiw	x3,x3,939 # 123ab <offset+0x123ab>
    8000197c:	0030b023          	sd	x3,0(x1)
    80001980:	0000d1b7          	lui	x3,0xd
    80001984:	ccc1819b          	addiw	x3,x3,-820 # cccc <offset+0xcccc>
    80001988:	00000917          	auipc	x18,0x0
    8000198c:	01c90913          	addi	x18,x18,28 # 800019a4 <rvtest_code_begin+0x1594>
    80001990:	dff0011b          	addiw	x2,x0,-513
    80001994:	40290933          	sub	x18,x18,x2
    80001998:	dff908e7          	jalr	x17,-513(x18)
    8000199c:	000121b7          	lui	x3,0x12
    800019a0:	3ab1819b          	addiw	x3,x3,939 # 123ab <offset+0x123ab>
    800019a4:	0030b423          	sd	x3,8(x1)
    800019a8:	0080006f          	jal	x0,800019b0 <rvtest_code_begin+0x15a0>
    800019ac:	0280006f          	jal	x0,800019d4 <rvtest_code_begin+0x15c4>
    800019b0:	0000d1b7          	lui	x3,0xd
    800019b4:	ccc1819b          	addiw	x3,x3,-820 # cccc <offset+0xcccc>
    800019b8:	00000997          	auipc	x19,0x0
    800019bc:	ff498993          	addi	x19,x19,-12 # 800019ac <rvtest_code_begin+0x159c>
    800019c0:	bff0011b          	addiw	x2,x0,-1025
    800019c4:	402989b3          	sub	x19,x19,x2
    800019c8:	bff98967          	jalr	x18,-1025(x19)
    800019cc:	000121b7          	lui	x3,0x12
    800019d0:	3ab1819b          	addiw	x3,x3,939 # 123ab <offset+0x123ab>
    800019d4:	0030b823          	sd	x3,16(x1)
    800019d8:	00004097          	auipc	x1,0x4
    800019dc:	a1008093          	addi	x1,x1,-1520 # 800053e8 <signature_42_0>
    800019e0:	0000d1b7          	lui	x3,0xd
    800019e4:	ccc1819b          	addiw	x3,x3,-820 # cccc <offset+0xcccc>
    800019e8:	00000a17          	auipc	x20,0x0
    800019ec:	01ca0a13          	addi	x20,x20,28 # 80001a04 <rvtest_code_begin+0x15f4>
    800019f0:	7ff0011b          	addiw	x2,x0,2047
    800019f4:	402a0a33          	sub	x20,x20,x2
    800019f8:	7ffa09e7          	jalr	x19,2047(x20)
    800019fc:	000121b7          	lui	x3,0x12
    80001a00:	3ab1819b          	addiw	x3,x3,939 # 123ab <offset+0x123ab>
    80001a04:	0030b023          	sd	x3,0(x1)
    80001a08:	0000d1b7          	lui	x3,0xd
    80001a0c:	ccc1819b          	addiw	x3,x3,-820 # cccc <offset+0xcccc>
    80001a10:	00000a97          	auipc	x21,0x0
    80001a14:	01ca8a93          	addi	x21,x21,28 # 80001a2c <rvtest_code_begin+0x161c>
    80001a18:	ffe0011b          	addiw	x2,x0,-2
    80001a1c:	402a8ab3          	sub	x21,x21,x2
    80001a20:	ffea8a67          	jalr	x20,-2(x21)
    80001a24:	000121b7          	lui	x3,0x12
    80001a28:	3ab1819b          	addiw	x3,x3,939 # 123ab <offset+0x123ab>
    80001a2c:	0030b423          	sd	x3,8(x1)
    80001a30:	0080006f          	jal	x0,80001a38 <rvtest_code_begin+0x1628>
    80001a34:	0280006f          	jal	x0,80001a5c <rvtest_code_begin+0x164c>
    80001a38:	0000d1b7          	lui	x3,0xd
    80001a3c:	ccc1819b          	addiw	x3,x3,-820 # cccc <offset+0xcccc>
    80001a40:	00000b17          	auipc	x22,0x0
    80001a44:	ff4b0b13          	addi	x22,x22,-12 # 80001a34 <rvtest_code_begin+0x1624>
    80001a48:	ffd0011b          	addiw	x2,x0,-3
    80001a4c:	402b0b33          	sub	x22,x22,x2
    80001a50:	ffdb0ae7          	jalr	x21,-3(x22)
    80001a54:	000121b7          	lui	x3,0x12
    80001a58:	3ab1819b          	addiw	x3,x3,939 # 123ab <offset+0x123ab>
    80001a5c:	0030b823          	sd	x3,16(x1)
    80001a60:	00004097          	auipc	x1,0x4
    80001a64:	9a008093          	addi	x1,x1,-1632 # 80005400 <signature_43_0>
    80001a68:	0000d1b7          	lui	x3,0xd
    80001a6c:	ccc1819b          	addiw	x3,x3,-820 # cccc <offset+0xcccc>
    80001a70:	00000b97          	auipc	x23,0x0
    80001a74:	01cb8b93          	addi	x23,x23,28 # 80001a8c <rvtest_code_begin+0x167c>
    80001a78:	ffb0011b          	addiw	x2,x0,-5
    80001a7c:	402b8bb3          	sub	x23,x23,x2
    80001a80:	ffbb8b67          	jalr	x22,-5(x23)
    80001a84:	000121b7          	lui	x3,0x12
    80001a88:	3ab1819b          	addiw	x3,x3,939 # 123ab <offset+0x123ab>
    80001a8c:	0030b023          	sd	x3,0(x1)
    80001a90:	0000d1b7          	lui	x3,0xd
    80001a94:	ccc1819b          	addiw	x3,x3,-820 # cccc <offset+0xcccc>
    80001a98:	00000c17          	auipc	x24,0x0
    80001a9c:	01cc0c13          	addi	x24,x24,28 # 80001ab4 <rvtest_code_begin+0x16a4>
    80001aa0:	ff70011b          	addiw	x2,x0,-9
    80001aa4:	402c0c33          	sub	x24,x24,x2
    80001aa8:	ff7c0be7          	jalr	x23,-9(x24)
    80001aac:	000121b7          	lui	x3,0x12
    80001ab0:	3ab1819b          	addiw	x3,x3,939 # 123ab <offset+0x123ab>
    80001ab4:	0030b423          	sd	x3,8(x1)
    80001ab8:	0080006f          	jal	x0,80001ac0 <rvtest_code_begin+0x16b0>
    80001abc:	0280006f          	jal	x0,80001ae4 <rvtest_code_begin+0x16d4>
    80001ac0:	0000d1b7          	lui	x3,0xd
    80001ac4:	ccc1819b          	addiw	x3,x3,-820 # cccc <offset+0xcccc>
    80001ac8:	00000c97          	auipc	x25,0x0
    80001acc:	ff4c8c93          	addi	x25,x25,-12 # 80001abc <rvtest_code_begin+0x16ac>
    80001ad0:	fef0011b          	addiw	x2,x0,-17
    80001ad4:	402c8cb3          	sub	x25,x25,x2
    80001ad8:	fefc8c67          	jalr	x24,-17(x25)
    80001adc:	000121b7          	lui	x3,0x12
    80001ae0:	3ab1819b          	addiw	x3,x3,939 # 123ab <offset+0x123ab>
    80001ae4:	0030b823          	sd	x3,16(x1)
    80001ae8:	00004097          	auipc	x1,0x4
    80001aec:	93008093          	addi	x1,x1,-1744 # 80005418 <signature_44_0>
    80001af0:	0000d1b7          	lui	x3,0xd
    80001af4:	ccc1819b          	addiw	x3,x3,-820 # cccc <offset+0xcccc>
    80001af8:	00000d17          	auipc	x26,0x0
    80001afc:	01cd0d13          	addi	x26,x26,28 # 80001b14 <rvtest_code_begin+0x1704>
    80001b00:	fdf0011b          	addiw	x2,x0,-33
    80001b04:	402d0d33          	sub	x26,x26,x2
    80001b08:	fdfd0ce7          	jalr	x25,-33(x26)
    80001b0c:	000121b7          	lui	x3,0x12
    80001b10:	3ab1819b          	addiw	x3,x3,939 # 123ab <offset+0x123ab>
    80001b14:	0030b023          	sd	x3,0(x1)
    80001b18:	0000d1b7          	lui	x3,0xd
    80001b1c:	ccc1819b          	addiw	x3,x3,-820 # cccc <offset+0xcccc>
    80001b20:	00000d97          	auipc	x27,0x0
    80001b24:	01cd8d93          	addi	x27,x27,28 # 80001b3c <rvtest_code_begin+0x172c>
    80001b28:	fbf0011b          	addiw	x2,x0,-65
    80001b2c:	402d8db3          	sub	x27,x27,x2
    80001b30:	fbfd8d67          	jalr	x26,-65(x27)
    80001b34:	000121b7          	lui	x3,0x12
    80001b38:	3ab1819b          	addiw	x3,x3,939 # 123ab <offset+0x123ab>
    80001b3c:	0030b423          	sd	x3,8(x1)
    80001b40:	0080006f          	jal	x0,80001b48 <rvtest_code_begin+0x1738>
    80001b44:	0280006f          	jal	x0,80001b6c <rvtest_code_begin+0x175c>
    80001b48:	0000d1b7          	lui	x3,0xd
    80001b4c:	ccc1819b          	addiw	x3,x3,-820 # cccc <offset+0xcccc>
    80001b50:	00000e17          	auipc	x28,0x0
    80001b54:	ff4e0e13          	addi	x28,x28,-12 # 80001b44 <rvtest_code_begin+0x1734>
    80001b58:	f7f0011b          	addiw	x2,x0,-129
    80001b5c:	402e0e33          	sub	x28,x28,x2
    80001b60:	f7fe0de7          	jalr	x27,-129(x28)
    80001b64:	000121b7          	lui	x3,0x12
    80001b68:	3ab1819b          	addiw	x3,x3,939 # 123ab <offset+0x123ab>
    80001b6c:	0030b823          	sd	x3,16(x1)
    80001b70:	00004097          	auipc	x1,0x4
    80001b74:	8c008093          	addi	x1,x1,-1856 # 80005430 <signature_45_0>
    80001b78:	0000d1b7          	lui	x3,0xd
    80001b7c:	ccc1819b          	addiw	x3,x3,-820 # cccc <offset+0xcccc>
    80001b80:	00000e97          	auipc	x29,0x0
    80001b84:	01ce8e93          	addi	x29,x29,28 # 80001b9c <rvtest_code_begin+0x178c>
    80001b88:	eff0011b          	addiw	x2,x0,-257
    80001b8c:	402e8eb3          	sub	x29,x29,x2
    80001b90:	effe8e67          	jalr	x28,-257(x29)
    80001b94:	000121b7          	lui	x3,0x12
    80001b98:	3ab1819b          	addiw	x3,x3,939 # 123ab <offset+0x123ab>
    80001b9c:	0030b023          	sd	x3,0(x1)
    80001ba0:	0000d1b7          	lui	x3,0xd
    80001ba4:	ccc1819b          	addiw	x3,x3,-820 # cccc <offset+0xcccc>
    80001ba8:	00000f17          	auipc	x30,0x0
    80001bac:	01cf0f13          	addi	x30,x30,28 # 80001bc4 <rvtest_code_begin+0x17b4>
    80001bb0:	dff0011b          	addiw	x2,x0,-513
    80001bb4:	402f0f33          	sub	x30,x30,x2
    80001bb8:	dfff0ee7          	jalr	x29,-513(x30)
    80001bbc:	000121b7          	lui	x3,0x12
    80001bc0:	3ab1819b          	addiw	x3,x3,939 # 123ab <offset+0x123ab>
    80001bc4:	0030b423          	sd	x3,8(x1)
    80001bc8:	0080006f          	jal	x0,80001bd0 <rvtest_code_begin+0x17c0>
    80001bcc:	0280006f          	jal	x0,80001bf4 <rvtest_code_begin+0x17e4>
    80001bd0:	0000d1b7          	lui	x3,0xd
    80001bd4:	ccc1819b          	addiw	x3,x3,-820 # cccc <offset+0xcccc>
    80001bd8:	00000f97          	auipc	x31,0x0
    80001bdc:	ff4f8f93          	addi	x31,x31,-12 # 80001bcc <rvtest_code_begin+0x17bc>
    80001be0:	bff0011b          	addiw	x2,x0,-1025
    80001be4:	402f8fb3          	sub	x31,x31,x2
    80001be8:	bfff8f67          	jalr	x30,-1025(x31)
    80001bec:	000121b7          	lui	x3,0x12
    80001bf0:	3ab1819b          	addiw	x3,x3,939 # 123ab <offset+0x123ab>
    80001bf4:	0030b823          	sd	x3,16(x1)
    80001bf8:	00004197          	auipc	x3,0x4
    80001bfc:	85018193          	addi	x3,x3,-1968 # 80005448 <signature_46_0>
    80001c00:	0000d2b7          	lui	x5,0xd
    80001c04:	ccc2829b          	addiw	x5,x5,-820 # cccc <offset+0xcccc>
    80001c08:	00000097          	auipc	x1,0x0
    80001c0c:	01c08093          	addi	x1,x1,28 # 80001c24 <rvtest_code_begin+0x1814>
    80001c10:	7ff0021b          	addiw	x4,x0,2047
    80001c14:	404080b3          	sub	x1,x1,x4
    80001c18:	7ff08fe7          	jalr	x31,2047(x1)
    80001c1c:	000122b7          	lui	x5,0x12
    80001c20:	3ab2829b          	addiw	x5,x5,939 # 123ab <offset+0x123ab>
    80001c24:	0051b023          	sd	x5,0(x3)
    80001c28:	0000d2b7          	lui	x5,0xd
    80001c2c:	ccc2829b          	addiw	x5,x5,-820 # cccc <offset+0xcccc>
    80001c30:	00000117          	auipc	x2,0x0
    80001c34:	01c10113          	addi	x2,x2,28 # 80001c4c <rvtest_code_begin+0x183c>
    80001c38:	ffe0021b          	addiw	x4,x0,-2
    80001c3c:	40410133          	sub	x2,x2,x4
    80001c40:	ffe100e7          	jalr	x1,-2(x2)
    80001c44:	000122b7          	lui	x5,0x12
    80001c48:	3ab2829b          	addiw	x5,x5,939 # 123ab <offset+0x123ab>
    80001c4c:	0051b423          	sd	x5,8(x3)
    80001c50:	0080006f          	jal	x0,80001c58 <rvtest_code_begin+0x1848>
    80001c54:	0280006f          	jal	x0,80001c7c <rvtest_code_begin+0x186c>
    80001c58:	0000d2b7          	lui	x5,0xd
    80001c5c:	ccc2829b          	addiw	x5,x5,-820 # cccc <offset+0xcccc>
    80001c60:	00000117          	auipc	x2,0x0
    80001c64:	ff410113          	addi	x2,x2,-12 # 80001c54 <rvtest_code_begin+0x1844>
    80001c68:	ffd0021b          	addiw	x4,x0,-3
    80001c6c:	40410133          	sub	x2,x2,x4
    80001c70:	ffd100e7          	jalr	x1,-3(x2)
    80001c74:	000122b7          	lui	x5,0x12
    80001c78:	3ab2829b          	addiw	x5,x5,939 # 123ab <offset+0x123ab>
    80001c7c:	0051b823          	sd	x5,16(x3)
    80001c80:	00003097          	auipc	x1,0x3
    80001c84:	7e008093          	addi	x1,x1,2016 # 80005460 <signature_47_0>
    80001c88:	0000d3b7          	lui	x7,0xd
    80001c8c:	ccc3839b          	addiw	x7,x7,-820 # cccc <offset+0xcccc>
    80001c90:	00000197          	auipc	x3,0x0
    80001c94:	01c18193          	addi	x3,x3,28 # 80001cac <rvtest_code_begin+0x189c>
    80001c98:	ffb0031b          	addiw	x6,x0,-5
    80001c9c:	406181b3          	sub	x3,x3,x6
    80001ca0:	ffb18167          	jalr	x2,-5(x3)
    80001ca4:	000123b7          	lui	x7,0x12
    80001ca8:	3ab3839b          	addiw	x7,x7,939 # 123ab <offset+0x123ab>
    80001cac:	0070b023          	sd	x7,0(x1)
    80001cb0:	0000d3b7          	lui	x7,0xd
    80001cb4:	ccc3839b          	addiw	x7,x7,-820 # cccc <offset+0xcccc>
    80001cb8:	00000217          	auipc	x4,0x0
    80001cbc:	01c20213          	addi	x4,x4,28 # 80001cd4 <rvtest_code_begin+0x18c4>
    80001cc0:	ff70031b          	addiw	x6,x0,-9
    80001cc4:	40620233          	sub	x4,x4,x6
    80001cc8:	ff7201e7          	jalr	x3,-9(x4) # 0 <offset>
    80001ccc:	000123b7          	lui	x7,0x12
    80001cd0:	3ab3839b          	addiw	x7,x7,939 # 123ab <offset+0x123ab>
    80001cd4:	0070b423          	sd	x7,8(x1)
    80001cd8:	0080006f          	jal	x0,80001ce0 <rvtest_code_begin+0x18d0>
    80001cdc:	0280006f          	jal	x0,80001d04 <rvtest_code_begin+0x18f4>
    80001ce0:	0000d3b7          	lui	x7,0xd
    80001ce4:	ccc3839b          	addiw	x7,x7,-820 # cccc <offset+0xcccc>
    80001ce8:	00000297          	auipc	x5,0x0
    80001cec:	ff428293          	addi	x5,x5,-12 # 80001cdc <rvtest_code_begin+0x18cc>
    80001cf0:	fef0031b          	addiw	x6,x0,-17
    80001cf4:	406282b3          	sub	x5,x5,x6
    80001cf8:	fef28267          	jalr	x4,-17(x5)
    80001cfc:	000123b7          	lui	x7,0x12
    80001d00:	3ab3839b          	addiw	x7,x7,939 # 123ab <offset+0x123ab>
    80001d04:	0070b823          	sd	x7,16(x1)
    80001d08:	00003097          	auipc	x1,0x3
    80001d0c:	77008093          	addi	x1,x1,1904 # 80005478 <signature_48_0>
    80001d10:	0000d1b7          	lui	x3,0xd
    80001d14:	ccc1819b          	addiw	x3,x3,-820 # cccc <offset+0xcccc>
    80001d18:	00000317          	auipc	x6,0x0
    80001d1c:	01c30313          	addi	x6,x6,28 # 80001d34 <rvtest_code_begin+0x1924>
    80001d20:	fdf0011b          	addiw	x2,x0,-33
    80001d24:	40230333          	sub	x6,x6,x2
    80001d28:	fdf302e7          	jalr	x5,-33(x6)
    80001d2c:	000121b7          	lui	x3,0x12
    80001d30:	3ab1819b          	addiw	x3,x3,939 # 123ab <offset+0x123ab>
    80001d34:	0030b023          	sd	x3,0(x1)
    80001d38:	0000d1b7          	lui	x3,0xd
    80001d3c:	ccc1819b          	addiw	x3,x3,-820 # cccc <offset+0xcccc>
    80001d40:	00000397          	auipc	x7,0x0
    80001d44:	01c38393          	addi	x7,x7,28 # 80001d5c <rvtest_code_begin+0x194c>
    80001d48:	fbf0011b          	addiw	x2,x0,-65
    80001d4c:	402383b3          	sub	x7,x7,x2
    80001d50:	fbf38367          	jalr	x6,-65(x7)
    80001d54:	000121b7          	lui	x3,0x12
    80001d58:	3ab1819b          	addiw	x3,x3,939 # 123ab <offset+0x123ab>
    80001d5c:	0030b423          	sd	x3,8(x1)
    80001d60:	0080006f          	jal	x0,80001d68 <rvtest_code_begin+0x1958>
    80001d64:	0280006f          	jal	x0,80001d8c <rvtest_code_begin+0x197c>
    80001d68:	0000d1b7          	lui	x3,0xd
    80001d6c:	ccc1819b          	addiw	x3,x3,-820 # cccc <offset+0xcccc>
    80001d70:	00000417          	auipc	x8,0x0
    80001d74:	ff440413          	addi	x8,x8,-12 # 80001d64 <rvtest_code_begin+0x1954>
    80001d78:	f7f0011b          	addiw	x2,x0,-129
    80001d7c:	40240433          	sub	x8,x8,x2
    80001d80:	f7f403e7          	jalr	x7,-129(x8)
    80001d84:	000121b7          	lui	x3,0x12
    80001d88:	3ab1819b          	addiw	x3,x3,939 # 123ab <offset+0x123ab>
    80001d8c:	0030b823          	sd	x3,16(x1)
    80001d90:	00003097          	auipc	x1,0x3
    80001d94:	70008093          	addi	x1,x1,1792 # 80005490 <signature_49_0>
    80001d98:	0000d1b7          	lui	x3,0xd
    80001d9c:	ccc1819b          	addiw	x3,x3,-820 # cccc <offset+0xcccc>
    80001da0:	00000497          	auipc	x9,0x0
    80001da4:	01c48493          	addi	x9,x9,28 # 80001dbc <rvtest_code_begin+0x19ac>
    80001da8:	eff0011b          	addiw	x2,x0,-257
    80001dac:	402484b3          	sub	x9,x9,x2
    80001db0:	eff48467          	jalr	x8,-257(x9)
    80001db4:	000121b7          	lui	x3,0x12
    80001db8:	3ab1819b          	addiw	x3,x3,939 # 123ab <offset+0x123ab>
    80001dbc:	0030b023          	sd	x3,0(x1)
    80001dc0:	0000d1b7          	lui	x3,0xd
    80001dc4:	ccc1819b          	addiw	x3,x3,-820 # cccc <offset+0xcccc>
    80001dc8:	00000517          	auipc	x10,0x0
    80001dcc:	01c50513          	addi	x10,x10,28 # 80001de4 <rvtest_code_begin+0x19d4>
    80001dd0:	dff0011b          	addiw	x2,x0,-513
    80001dd4:	40250533          	sub	x10,x10,x2
    80001dd8:	dff504e7          	jalr	x9,-513(x10)
    80001ddc:	000121b7          	lui	x3,0x12
    80001de0:	3ab1819b          	addiw	x3,x3,939 # 123ab <offset+0x123ab>
    80001de4:	0030b423          	sd	x3,8(x1)
    80001de8:	0080006f          	jal	x0,80001df0 <rvtest_code_begin+0x19e0>
    80001dec:	0280006f          	jal	x0,80001e14 <rvtest_code_begin+0x1a04>
    80001df0:	0000d1b7          	lui	x3,0xd
    80001df4:	ccc1819b          	addiw	x3,x3,-820 # cccc <offset+0xcccc>
    80001df8:	00000597          	auipc	x11,0x0
    80001dfc:	ff458593          	addi	x11,x11,-12 # 80001dec <rvtest_code_begin+0x19dc>
    80001e00:	bff0011b          	addiw	x2,x0,-1025
    80001e04:	402585b3          	sub	x11,x11,x2
    80001e08:	bff58567          	jalr	x10,-1025(x11)
    80001e0c:	000121b7          	lui	x3,0x12
    80001e10:	3ab1819b          	addiw	x3,x3,939 # 123ab <offset+0x123ab>
    80001e14:	0030b823          	sd	x3,16(x1)
    80001e18:	00003097          	auipc	x1,0x3
    80001e1c:	69008093          	addi	x1,x1,1680 # 800054a8 <signature_50_0>
    80001e20:	0000d1b7          	lui	x3,0xd
    80001e24:	ccc1819b          	addiw	x3,x3,-820 # cccc <offset+0xcccc>
    80001e28:	00000617          	auipc	x12,0x0
    80001e2c:	01c60613          	addi	x12,x12,28 # 80001e44 <rvtest_code_begin+0x1a34>
    80001e30:	7ff0011b          	addiw	x2,x0,2047
    80001e34:	40260633          	sub	x12,x12,x2
    80001e38:	7ff605e7          	jalr	x11,2047(x12)
    80001e3c:	000121b7          	lui	x3,0x12
    80001e40:	3ab1819b          	addiw	x3,x3,939 # 123ab <offset+0x123ab>
    80001e44:	0030b023          	sd	x3,0(x1)
    80001e48:	0000d1b7          	lui	x3,0xd
    80001e4c:	ccc1819b          	addiw	x3,x3,-820 # cccc <offset+0xcccc>
    80001e50:	00000697          	auipc	x13,0x0
    80001e54:	01c68693          	addi	x13,x13,28 # 80001e6c <rvtest_code_begin+0x1a5c>
    80001e58:	ffe0011b          	addiw	x2,x0,-2
    80001e5c:	402686b3          	sub	x13,x13,x2
    80001e60:	ffe68667          	jalr	x12,-2(x13)
    80001e64:	000121b7          	lui	x3,0x12
    80001e68:	3ab1819b          	addiw	x3,x3,939 # 123ab <offset+0x123ab>
    80001e6c:	0030b423          	sd	x3,8(x1)
    80001e70:	0080006f          	jal	x0,80001e78 <rvtest_code_begin+0x1a68>
    80001e74:	0280006f          	jal	x0,80001e9c <rvtest_code_begin+0x1a8c>
    80001e78:	0000d1b7          	lui	x3,0xd
    80001e7c:	ccc1819b          	addiw	x3,x3,-820 # cccc <offset+0xcccc>
    80001e80:	00000717          	auipc	x14,0x0
    80001e84:	ff470713          	addi	x14,x14,-12 # 80001e74 <rvtest_code_begin+0x1a64>
    80001e88:	ffd0011b          	addiw	x2,x0,-3
    80001e8c:	40270733          	sub	x14,x14,x2
    80001e90:	ffd706e7          	jalr	x13,-3(x14)
    80001e94:	000121b7          	lui	x3,0x12
    80001e98:	3ab1819b          	addiw	x3,x3,939 # 123ab <offset+0x123ab>
    80001e9c:	0030b823          	sd	x3,16(x1)
    80001ea0:	00003097          	auipc	x1,0x3
    80001ea4:	62008093          	addi	x1,x1,1568 # 800054c0 <signature_51_0>
    80001ea8:	0000d1b7          	lui	x3,0xd
    80001eac:	ccc1819b          	addiw	x3,x3,-820 # cccc <offset+0xcccc>
    80001eb0:	00000797          	auipc	x15,0x0
    80001eb4:	01c78793          	addi	x15,x15,28 # 80001ecc <rvtest_code_begin+0x1abc>
    80001eb8:	ffb0011b          	addiw	x2,x0,-5
    80001ebc:	402787b3          	sub	x15,x15,x2
    80001ec0:	ffb78767          	jalr	x14,-5(x15)
    80001ec4:	000121b7          	lui	x3,0x12
    80001ec8:	3ab1819b          	addiw	x3,x3,939 # 123ab <offset+0x123ab>
    80001ecc:	0030b023          	sd	x3,0(x1)
    80001ed0:	0000d1b7          	lui	x3,0xd
    80001ed4:	ccc1819b          	addiw	x3,x3,-820 # cccc <offset+0xcccc>
    80001ed8:	00000817          	auipc	x16,0x0
    80001edc:	01c80813          	addi	x16,x16,28 # 80001ef4 <rvtest_code_begin+0x1ae4>
    80001ee0:	ff70011b          	addiw	x2,x0,-9
    80001ee4:	40280833          	sub	x16,x16,x2
    80001ee8:	ff7807e7          	jalr	x15,-9(x16)
    80001eec:	000121b7          	lui	x3,0x12
    80001ef0:	3ab1819b          	addiw	x3,x3,939 # 123ab <offset+0x123ab>
    80001ef4:	0030b423          	sd	x3,8(x1)
    80001ef8:	0080006f          	jal	x0,80001f00 <rvtest_code_begin+0x1af0>
    80001efc:	0280006f          	jal	x0,80001f24 <rvtest_code_begin+0x1b14>
    80001f00:	0000d1b7          	lui	x3,0xd
    80001f04:	ccc1819b          	addiw	x3,x3,-820 # cccc <offset+0xcccc>
    80001f08:	00000897          	auipc	x17,0x0
    80001f0c:	ff488893          	addi	x17,x17,-12 # 80001efc <rvtest_code_begin+0x1aec>
    80001f10:	fef0011b          	addiw	x2,x0,-17
    80001f14:	402888b3          	sub	x17,x17,x2
    80001f18:	fef88867          	jalr	x16,-17(x17)
    80001f1c:	000121b7          	lui	x3,0x12
    80001f20:	3ab1819b          	addiw	x3,x3,939 # 123ab <offset+0x123ab>
    80001f24:	0030b823          	sd	x3,16(x1)
    80001f28:	00003097          	auipc	x1,0x3
    80001f2c:	5b008093          	addi	x1,x1,1456 # 800054d8 <signature_52_0>
    80001f30:	0000d1b7          	lui	x3,0xd
    80001f34:	ccc1819b          	addiw	x3,x3,-820 # cccc <offset+0xcccc>
    80001f38:	00000917          	auipc	x18,0x0
    80001f3c:	01c90913          	addi	x18,x18,28 # 80001f54 <rvtest_code_begin+0x1b44>
    80001f40:	fdf0011b          	addiw	x2,x0,-33
    80001f44:	40290933          	sub	x18,x18,x2
    80001f48:	fdf908e7          	jalr	x17,-33(x18)
    80001f4c:	000121b7          	lui	x3,0x12
    80001f50:	3ab1819b          	addiw	x3,x3,939 # 123ab <offset+0x123ab>
    80001f54:	0030b023          	sd	x3,0(x1)
    80001f58:	0000d1b7          	lui	x3,0xd
    80001f5c:	ccc1819b          	addiw	x3,x3,-820 # cccc <offset+0xcccc>
    80001f60:	00000997          	auipc	x19,0x0
    80001f64:	01c98993          	addi	x19,x19,28 # 80001f7c <rvtest_code_begin+0x1b6c>
    80001f68:	fbf0011b          	addiw	x2,x0,-65
    80001f6c:	402989b3          	sub	x19,x19,x2
    80001f70:	fbf98967          	jalr	x18,-65(x19)
    80001f74:	000121b7          	lui	x3,0x12
    80001f78:	3ab1819b          	addiw	x3,x3,939 # 123ab <offset+0x123ab>
    80001f7c:	0030b423          	sd	x3,8(x1)
    80001f80:	0080006f          	jal	x0,80001f88 <rvtest_code_begin+0x1b78>
    80001f84:	0280006f          	jal	x0,80001fac <rvtest_code_begin+0x1b9c>
    80001f88:	0000d1b7          	lui	x3,0xd
    80001f8c:	ccc1819b          	addiw	x3,x3,-820 # cccc <offset+0xcccc>
    80001f90:	00000a17          	auipc	x20,0x0
    80001f94:	ff4a0a13          	addi	x20,x20,-12 # 80001f84 <rvtest_code_begin+0x1b74>
    80001f98:	f7f0011b          	addiw	x2,x0,-129
    80001f9c:	402a0a33          	sub	x20,x20,x2
    80001fa0:	f7fa09e7          	jalr	x19,-129(x20)
    80001fa4:	000121b7          	lui	x3,0x12
    80001fa8:	3ab1819b          	addiw	x3,x3,939 # 123ab <offset+0x123ab>
    80001fac:	0030b823          	sd	x3,16(x1)
    80001fb0:	00003097          	auipc	x1,0x3
    80001fb4:	54008093          	addi	x1,x1,1344 # 800054f0 <signature_53_0>
    80001fb8:	0000d1b7          	lui	x3,0xd
    80001fbc:	ccc1819b          	addiw	x3,x3,-820 # cccc <offset+0xcccc>
    80001fc0:	00000a97          	auipc	x21,0x0
    80001fc4:	01ca8a93          	addi	x21,x21,28 # 80001fdc <rvtest_code_begin+0x1bcc>
    80001fc8:	eff0011b          	addiw	x2,x0,-257
    80001fcc:	402a8ab3          	sub	x21,x21,x2
    80001fd0:	effa8a67          	jalr	x20,-257(x21)
    80001fd4:	000121b7          	lui	x3,0x12
    80001fd8:	3ab1819b          	addiw	x3,x3,939 # 123ab <offset+0x123ab>
    80001fdc:	0030b023          	sd	x3,0(x1)
    80001fe0:	0000d1b7          	lui	x3,0xd
    80001fe4:	ccc1819b          	addiw	x3,x3,-820 # cccc <offset+0xcccc>
    80001fe8:	00000b17          	auipc	x22,0x0
    80001fec:	01cb0b13          	addi	x22,x22,28 # 80002004 <rvtest_code_begin+0x1bf4>
    80001ff0:	dff0011b          	addiw	x2,x0,-513
    80001ff4:	402b0b33          	sub	x22,x22,x2
    80001ff8:	dffb0ae7          	jalr	x21,-513(x22)
    80001ffc:	000121b7          	lui	x3,0x12
    80002000:	3ab1819b          	addiw	x3,x3,939 # 123ab <offset+0x123ab>
    80002004:	0030b423          	sd	x3,8(x1)
    80002008:	0080006f          	jal	x0,80002010 <rvtest_code_begin+0x1c00>
    8000200c:	0280006f          	jal	x0,80002034 <rvtest_code_begin+0x1c24>
    80002010:	0000d1b7          	lui	x3,0xd
    80002014:	ccc1819b          	addiw	x3,x3,-820 # cccc <offset+0xcccc>
    80002018:	00000b97          	auipc	x23,0x0
    8000201c:	ff4b8b93          	addi	x23,x23,-12 # 8000200c <rvtest_code_begin+0x1bfc>
    80002020:	bff0011b          	addiw	x2,x0,-1025
    80002024:	402b8bb3          	sub	x23,x23,x2
    80002028:	bffb8b67          	jalr	x22,-1025(x23)
    8000202c:	000121b7          	lui	x3,0x12
    80002030:	3ab1819b          	addiw	x3,x3,939 # 123ab <offset+0x123ab>
    80002034:	0030b823          	sd	x3,16(x1)
    80002038:	00003097          	auipc	x1,0x3
    8000203c:	4d008093          	addi	x1,x1,1232 # 80005508 <signature_54_0>
    80002040:	0000d1b7          	lui	x3,0xd
    80002044:	ccc1819b          	addiw	x3,x3,-820 # cccc <offset+0xcccc>
    80002048:	00000c17          	auipc	x24,0x0
    8000204c:	01cc0c13          	addi	x24,x24,28 # 80002064 <rvtest_code_begin+0x1c54>
    80002050:	7ff0011b          	addiw	x2,x0,2047
    80002054:	402c0c33          	sub	x24,x24,x2
    80002058:	7ffc0be7          	jalr	x23,2047(x24)
    8000205c:	000121b7          	lui	x3,0x12
    80002060:	3ab1819b          	addiw	x3,x3,939 # 123ab <offset+0x123ab>
    80002064:	0030b023          	sd	x3,0(x1)
    80002068:	0000d1b7          	lui	x3,0xd
    8000206c:	ccc1819b          	addiw	x3,x3,-820 # cccc <offset+0xcccc>
    80002070:	00000c97          	auipc	x25,0x0
    80002074:	01cc8c93          	addi	x25,x25,28 # 8000208c <rvtest_code_begin+0x1c7c>
    80002078:	ffe0011b          	addiw	x2,x0,-2
    8000207c:	402c8cb3          	sub	x25,x25,x2
    80002080:	ffec8c67          	jalr	x24,-2(x25)
    80002084:	000121b7          	lui	x3,0x12
    80002088:	3ab1819b          	addiw	x3,x3,939 # 123ab <offset+0x123ab>
    8000208c:	0030b423          	sd	x3,8(x1)
    80002090:	0080006f          	jal	x0,80002098 <rvtest_code_begin+0x1c88>
    80002094:	0280006f          	jal	x0,800020bc <rvtest_code_begin+0x1cac>
    80002098:	0000d1b7          	lui	x3,0xd
    8000209c:	ccc1819b          	addiw	x3,x3,-820 # cccc <offset+0xcccc>
    800020a0:	00000d17          	auipc	x26,0x0
    800020a4:	ff4d0d13          	addi	x26,x26,-12 # 80002094 <rvtest_code_begin+0x1c84>
    800020a8:	ffd0011b          	addiw	x2,x0,-3
    800020ac:	402d0d33          	sub	x26,x26,x2
    800020b0:	ffdd0ce7          	jalr	x25,-3(x26)
    800020b4:	000121b7          	lui	x3,0x12
    800020b8:	3ab1819b          	addiw	x3,x3,939 # 123ab <offset+0x123ab>
    800020bc:	0030b823          	sd	x3,16(x1)
    800020c0:	00003097          	auipc	x1,0x3
    800020c4:	46008093          	addi	x1,x1,1120 # 80005520 <signature_55_0>
    800020c8:	0000d1b7          	lui	x3,0xd
    800020cc:	ccc1819b          	addiw	x3,x3,-820 # cccc <offset+0xcccc>
    800020d0:	00000d97          	auipc	x27,0x0
    800020d4:	01cd8d93          	addi	x27,x27,28 # 800020ec <rvtest_code_begin+0x1cdc>
    800020d8:	ffb0011b          	addiw	x2,x0,-5
    800020dc:	402d8db3          	sub	x27,x27,x2
    800020e0:	ffbd8d67          	jalr	x26,-5(x27)
    800020e4:	000121b7          	lui	x3,0x12
    800020e8:	3ab1819b          	addiw	x3,x3,939 # 123ab <offset+0x123ab>
    800020ec:	0030b023          	sd	x3,0(x1)
    800020f0:	0000d1b7          	lui	x3,0xd
    800020f4:	ccc1819b          	addiw	x3,x3,-820 # cccc <offset+0xcccc>
    800020f8:	00000e17          	auipc	x28,0x0
    800020fc:	01ce0e13          	addi	x28,x28,28 # 80002114 <rvtest_code_begin+0x1d04>
    80002100:	ff70011b          	addiw	x2,x0,-9
    80002104:	402e0e33          	sub	x28,x28,x2
    80002108:	ff7e0de7          	jalr	x27,-9(x28)
    8000210c:	000121b7          	lui	x3,0x12
    80002110:	3ab1819b          	addiw	x3,x3,939 # 123ab <offset+0x123ab>
    80002114:	0030b423          	sd	x3,8(x1)
    80002118:	0080006f          	jal	x0,80002120 <rvtest_code_begin+0x1d10>
    8000211c:	0280006f          	jal	x0,80002144 <rvtest_code_begin+0x1d34>
    80002120:	0000d1b7          	lui	x3,0xd
    80002124:	ccc1819b          	addiw	x3,x3,-820 # cccc <offset+0xcccc>
    80002128:	00000e97          	auipc	x29,0x0
    8000212c:	ff4e8e93          	addi	x29,x29,-12 # 8000211c <rvtest_code_begin+0x1d0c>
    80002130:	fef0011b          	addiw	x2,x0,-17
    80002134:	402e8eb3          	sub	x29,x29,x2
    80002138:	fefe8e67          	jalr	x28,-17(x29)
    8000213c:	000121b7          	lui	x3,0x12
    80002140:	3ab1819b          	addiw	x3,x3,939 # 123ab <offset+0x123ab>
    80002144:	0030b823          	sd	x3,16(x1)
    80002148:	00003117          	auipc	x2,0x3
    8000214c:	3f010113          	addi	x2,x2,1008 # 80005538 <signature_56_0>
    80002150:	0000d237          	lui	x4,0xd
    80002154:	ccc2021b          	addiw	x4,x4,-820 # cccc <offset+0xcccc>
    80002158:	00000f17          	auipc	x30,0x0
    8000215c:	01cf0f13          	addi	x30,x30,28 # 80002174 <rvtest_code_begin+0x1d64>
    80002160:	fdf0019b          	addiw	x3,x0,-33
    80002164:	403f0f33          	sub	x30,x30,x3
    80002168:	fdff0ee7          	jalr	x29,-33(x30)
    8000216c:	00012237          	lui	x4,0x12
    80002170:	3ab2021b          	addiw	x4,x4,939 # 123ab <offset+0x123ab>
    80002174:	00413023          	sd	x4,0(x2)
    80002178:	0000d237          	lui	x4,0xd
    8000217c:	ccc2021b          	addiw	x4,x4,-820 # cccc <offset+0xcccc>
    80002180:	00000f97          	auipc	x31,0x0
    80002184:	01cf8f93          	addi	x31,x31,28 # 8000219c <rvtest_code_begin+0x1d8c>
    80002188:	fbf0019b          	addiw	x3,x0,-65
    8000218c:	403f8fb3          	sub	x31,x31,x3
    80002190:	fbff8f67          	jalr	x30,-65(x31)
    80002194:	00012237          	lui	x4,0x12
    80002198:	3ab2021b          	addiw	x4,x4,939 # 123ab <offset+0x123ab>
    8000219c:	00413423          	sd	x4,8(x2)
    800021a0:	0080006f          	jal	x0,800021a8 <rvtest_code_begin+0x1d98>
    800021a4:	0280006f          	jal	x0,800021cc <rvtest_code_begin+0x1dbc>
    800021a8:	0000d237          	lui	x4,0xd
    800021ac:	ccc2021b          	addiw	x4,x4,-820 # cccc <offset+0xcccc>
    800021b0:	00000097          	auipc	x1,0x0
    800021b4:	ff408093          	addi	x1,x1,-12 # 800021a4 <rvtest_code_begin+0x1d94>
    800021b8:	f7f0019b          	addiw	x3,x0,-129
    800021bc:	403080b3          	sub	x1,x1,x3
    800021c0:	f7f08fe7          	jalr	x31,-129(x1)
    800021c4:	00012237          	lui	x4,0x12
    800021c8:	3ab2021b          	addiw	x4,x4,939 # 123ab <offset+0x123ab>
    800021cc:	00413823          	sd	x4,16(x2)
    800021d0:	00003217          	auipc	x4,0x3
    800021d4:	38020213          	addi	x4,x4,896 # 80005550 <signature_57_0>
    800021d8:	0000d337          	lui	x6,0xd
    800021dc:	ccc3031b          	addiw	x6,x6,-820 # cccc <offset+0xcccc>
    800021e0:	00000117          	auipc	x2,0x0
    800021e4:	01c10113          	addi	x2,x2,28 # 800021fc <rvtest_code_begin+0x1dec>
    800021e8:	0010029b          	addiw	x5,x0,1
    800021ec:	40510133          	sub	x2,x2,x5
    800021f0:	001100e7          	jalr	x1,1(x2)
    800021f4:	00012337          	lui	x6,0x12
    800021f8:	3ab3031b          	addiw	x6,x6,939 # 123ab <offset+0x123ab>
    800021fc:	00623023          	sd	x6,0(x4) # 0 <offset>
    80002200:	0000d337          	lui	x6,0xd
    80002204:	ccc3031b          	addiw	x6,x6,-820 # cccc <offset+0xcccc>
    80002208:	00000117          	auipc	x2,0x0
    8000220c:	01c10113          	addi	x2,x2,28 # 80002224 <rvtest_code_begin+0x1e14>
    80002210:	0020029b          	addiw	x5,x0,2
    80002214:	40510133          	sub	x2,x2,x5
    80002218:	002100e7          	jalr	x1,2(x2)
    8000221c:	00012337          	lui	x6,0x12
    80002220:	3ab3031b          	addiw	x6,x6,939 # 123ab <offset+0x123ab>
    80002224:	00623423          	sd	x6,8(x4) # 8 <offset+0x8>
    80002228:	0080006f          	jal	x0,80002230 <rvtest_code_begin+0x1e20>
    8000222c:	0280006f          	jal	x0,80002254 <rvtest_code_begin+0x1e44>
    80002230:	0000d337          	lui	x6,0xd
    80002234:	ccc3031b          	addiw	x6,x6,-820 # cccc <offset+0xcccc>
    80002238:	00000197          	auipc	x3,0x0
    8000223c:	ff418193          	addi	x3,x3,-12 # 8000222c <rvtest_code_begin+0x1e1c>
    80002240:	0040029b          	addiw	x5,x0,4
    80002244:	405181b3          	sub	x3,x3,x5
    80002248:	00418167          	jalr	x2,4(x3)
    8000224c:	00012337          	lui	x6,0x12
    80002250:	3ab3031b          	addiw	x6,x6,939 # 123ab <offset+0x123ab>
    80002254:	00623823          	sd	x6,16(x4) # 10 <offset+0x10>
    80002258:	00003097          	auipc	x1,0x3
    8000225c:	31008093          	addi	x1,x1,784 # 80005568 <signature_58_0>
    80002260:	0000d3b7          	lui	x7,0xd
    80002264:	ccc3839b          	addiw	x7,x7,-820 # cccc <offset+0xcccc>
    80002268:	00000217          	auipc	x4,0x0
    8000226c:	01c20213          	addi	x4,x4,28 # 80002284 <rvtest_code_begin+0x1e74>
    80002270:	0080011b          	addiw	x2,x0,8
    80002274:	40220233          	sub	x4,x4,x2
    80002278:	008201e7          	jalr	x3,8(x4) # 0 <offset>
    8000227c:	000123b7          	lui	x7,0x12
    80002280:	3ab3839b          	addiw	x7,x7,939 # 123ab <offset+0x123ab>
    80002284:	0070b023          	sd	x7,0(x1)
    80002288:	0000d3b7          	lui	x7,0xd
    8000228c:	ccc3839b          	addiw	x7,x7,-820 # cccc <offset+0xcccc>
    80002290:	00000297          	auipc	x5,0x0
    80002294:	01c28293          	addi	x5,x5,28 # 800022ac <rvtest_code_begin+0x1e9c>
    80002298:	0100011b          	addiw	x2,x0,16
    8000229c:	402282b3          	sub	x5,x5,x2
    800022a0:	01028267          	jalr	x4,16(x5)
    800022a4:	000123b7          	lui	x7,0x12
    800022a8:	3ab3839b          	addiw	x7,x7,939 # 123ab <offset+0x123ab>
    800022ac:	0070b423          	sd	x7,8(x1)
    800022b0:	0080006f          	jal	x0,800022b8 <rvtest_code_begin+0x1ea8>
    800022b4:	0280006f          	jal	x0,800022dc <rvtest_code_begin+0x1ecc>
    800022b8:	0000d3b7          	lui	x7,0xd
    800022bc:	ccc3839b          	addiw	x7,x7,-820 # cccc <offset+0xcccc>
    800022c0:	00000317          	auipc	x6,0x0
    800022c4:	ff430313          	addi	x6,x6,-12 # 800022b4 <rvtest_code_begin+0x1ea4>
    800022c8:	0200011b          	addiw	x2,x0,32
    800022cc:	40230333          	sub	x6,x6,x2
    800022d0:	020302e7          	jalr	x5,32(x6)
    800022d4:	000123b7          	lui	x7,0x12
    800022d8:	3ab3839b          	addiw	x7,x7,939 # 123ab <offset+0x123ab>
    800022dc:	0070b823          	sd	x7,16(x1)
    800022e0:	00003097          	auipc	x1,0x3
    800022e4:	2a008093          	addi	x1,x1,672 # 80005580 <signature_59_0>
    800022e8:	0000d1b7          	lui	x3,0xd
    800022ec:	ccc1819b          	addiw	x3,x3,-820 # cccc <offset+0xcccc>
    800022f0:	00000397          	auipc	x7,0x0
    800022f4:	01c38393          	addi	x7,x7,28 # 8000230c <rvtest_code_begin+0x1efc>
    800022f8:	0400011b          	addiw	x2,x0,64
    800022fc:	402383b3          	sub	x7,x7,x2
    80002300:	04038367          	jalr	x6,64(x7)
    80002304:	000121b7          	lui	x3,0x12
    80002308:	3ab1819b          	addiw	x3,x3,939 # 123ab <offset+0x123ab>
    8000230c:	0030b023          	sd	x3,0(x1)
    80002310:	0000d1b7          	lui	x3,0xd
    80002314:	ccc1819b          	addiw	x3,x3,-820 # cccc <offset+0xcccc>
    80002318:	00000417          	auipc	x8,0x0
    8000231c:	01c40413          	addi	x8,x8,28 # 80002334 <rvtest_code_begin+0x1f24>
    80002320:	0800011b          	addiw	x2,x0,128
    80002324:	40240433          	sub	x8,x8,x2
    80002328:	080403e7          	jalr	x7,128(x8)
    8000232c:	000121b7          	lui	x3,0x12
    80002330:	3ab1819b          	addiw	x3,x3,939 # 123ab <offset+0x123ab>
    80002334:	0030b423          	sd	x3,8(x1)
    80002338:	0080006f          	jal	x0,80002340 <rvtest_code_begin+0x1f30>
    8000233c:	0280006f          	jal	x0,80002364 <rvtest_code_begin+0x1f54>
    80002340:	0000d1b7          	lui	x3,0xd
    80002344:	ccc1819b          	addiw	x3,x3,-820 # cccc <offset+0xcccc>
    80002348:	00000497          	auipc	x9,0x0
    8000234c:	ff448493          	addi	x9,x9,-12 # 8000233c <rvtest_code_begin+0x1f2c>
    80002350:	1000011b          	addiw	x2,x0,256
    80002354:	402484b3          	sub	x9,x9,x2
    80002358:	10048467          	jalr	x8,256(x9)
    8000235c:	000121b7          	lui	x3,0x12
    80002360:	3ab1819b          	addiw	x3,x3,939 # 123ab <offset+0x123ab>
    80002364:	0030b823          	sd	x3,16(x1)
    80002368:	00003097          	auipc	x1,0x3
    8000236c:	23008093          	addi	x1,x1,560 # 80005598 <signature_60_0>
    80002370:	0000d1b7          	lui	x3,0xd
    80002374:	ccc1819b          	addiw	x3,x3,-820 # cccc <offset+0xcccc>
    80002378:	00000517          	auipc	x10,0x0
    8000237c:	01c50513          	addi	x10,x10,28 # 80002394 <rvtest_code_begin+0x1f84>
    80002380:	2000011b          	addiw	x2,x0,512
    80002384:	40250533          	sub	x10,x10,x2
    80002388:	200504e7          	jalr	x9,512(x10)
    8000238c:	000121b7          	lui	x3,0x12
    80002390:	3ab1819b          	addiw	x3,x3,939 # 123ab <offset+0x123ab>
    80002394:	0030b023          	sd	x3,0(x1)
    80002398:	0000d1b7          	lui	x3,0xd
    8000239c:	ccc1819b          	addiw	x3,x3,-820 # cccc <offset+0xcccc>
    800023a0:	00000597          	auipc	x11,0x0
    800023a4:	01c58593          	addi	x11,x11,28 # 800023bc <rvtest_code_begin+0x1fac>
    800023a8:	4000011b          	addiw	x2,x0,1024
    800023ac:	402585b3          	sub	x11,x11,x2
    800023b0:	40058567          	jalr	x10,1024(x11)
    800023b4:	000121b7          	lui	x3,0x12
    800023b8:	3ab1819b          	addiw	x3,x3,939 # 123ab <offset+0x123ab>
    800023bc:	0030b423          	sd	x3,8(x1)
    800023c0:	0080006f          	jal	x0,800023c8 <rvtest_code_begin+0x1fb8>
    800023c4:	0280006f          	jal	x0,800023ec <rvtest_code_begin+0x1fdc>
    800023c8:	0000d1b7          	lui	x3,0xd
    800023cc:	ccc1819b          	addiw	x3,x3,-820 # cccc <offset+0xcccc>
    800023d0:	00000617          	auipc	x12,0x0
    800023d4:	ff460613          	addi	x12,x12,-12 # 800023c4 <rvtest_code_begin+0x1fb4>
    800023d8:	8000011b          	addiw	x2,x0,-2048
    800023dc:	40260633          	sub	x12,x12,x2
    800023e0:	800605e7          	jalr	x11,-2048(x12)
    800023e4:	000121b7          	lui	x3,0x12
    800023e8:	3ab1819b          	addiw	x3,x3,939 # 123ab <offset+0x123ab>
    800023ec:	0030b823          	sd	x3,16(x1)
    800023f0:	00003097          	auipc	x1,0x3
    800023f4:	1c008093          	addi	x1,x1,448 # 800055b0 <signature_61_0>
    800023f8:	0000d1b7          	lui	x3,0xd
    800023fc:	ccc1819b          	addiw	x3,x3,-820 # cccc <offset+0xcccc>
    80002400:	00000697          	auipc	x13,0x0
    80002404:	01c68693          	addi	x13,x13,28 # 8000241c <rvtest_code_begin+0x200c>
    80002408:	ffe0011b          	addiw	x2,x0,-2
    8000240c:	402686b3          	sub	x13,x13,x2
    80002410:	ffe68667          	jalr	x12,-2(x13)
    80002414:	000121b7          	lui	x3,0x12
    80002418:	3ab1819b          	addiw	x3,x3,939 # 123ab <offset+0x123ab>
    8000241c:	0030b023          	sd	x3,0(x1)
    80002420:	0000d1b7          	lui	x3,0xd
    80002424:	ccc1819b          	addiw	x3,x3,-820 # cccc <offset+0xcccc>
    80002428:	00000717          	auipc	x14,0x0
    8000242c:	01c70713          	addi	x14,x14,28 # 80002444 <rvtest_code_begin+0x2034>
    80002430:	ffd0011b          	addiw	x2,x0,-3
    80002434:	40270733          	sub	x14,x14,x2
    80002438:	ffd706e7          	jalr	x13,-3(x14)
    8000243c:	000121b7          	lui	x3,0x12
    80002440:	3ab1819b          	addiw	x3,x3,939 # 123ab <offset+0x123ab>
    80002444:	0030b423          	sd	x3,8(x1)
    80002448:	0080006f          	jal	x0,80002450 <rvtest_code_begin+0x2040>
    8000244c:	0280006f          	jal	x0,80002474 <rvtest_code_begin+0x2064>
    80002450:	0000d1b7          	lui	x3,0xd
    80002454:	ccc1819b          	addiw	x3,x3,-820 # cccc <offset+0xcccc>
    80002458:	00000797          	auipc	x15,0x0
    8000245c:	ff478793          	addi	x15,x15,-12 # 8000244c <rvtest_code_begin+0x203c>
    80002460:	ffb0011b          	addiw	x2,x0,-5
    80002464:	402787b3          	sub	x15,x15,x2
    80002468:	ffb78767          	jalr	x14,-5(x15)
    8000246c:	000121b7          	lui	x3,0x12
    80002470:	3ab1819b          	addiw	x3,x3,939 # 123ab <offset+0x123ab>
    80002474:	0030b823          	sd	x3,16(x1)
    80002478:	00003097          	auipc	x1,0x3
    8000247c:	15008093          	addi	x1,x1,336 # 800055c8 <signature_62_0>
    80002480:	0000d1b7          	lui	x3,0xd
    80002484:	ccc1819b          	addiw	x3,x3,-820 # cccc <offset+0xcccc>
    80002488:	00000817          	auipc	x16,0x0
    8000248c:	01c80813          	addi	x16,x16,28 # 800024a4 <rvtest_code_begin+0x2094>
    80002490:	ff70011b          	addiw	x2,x0,-9
    80002494:	40280833          	sub	x16,x16,x2
    80002498:	ff7807e7          	jalr	x15,-9(x16)
    8000249c:	000121b7          	lui	x3,0x12
    800024a0:	3ab1819b          	addiw	x3,x3,939 # 123ab <offset+0x123ab>
    800024a4:	0030b023          	sd	x3,0(x1)
    800024a8:	0000d1b7          	lui	x3,0xd
    800024ac:	ccc1819b          	addiw	x3,x3,-820 # cccc <offset+0xcccc>
    800024b0:	00000897          	auipc	x17,0x0
    800024b4:	01c88893          	addi	x17,x17,28 # 800024cc <rvtest_code_begin+0x20bc>
    800024b8:	fef0011b          	addiw	x2,x0,-17
    800024bc:	402888b3          	sub	x17,x17,x2
    800024c0:	fef88867          	jalr	x16,-17(x17)
    800024c4:	000121b7          	lui	x3,0x12
    800024c8:	3ab1819b          	addiw	x3,x3,939 # 123ab <offset+0x123ab>
    800024cc:	0030b423          	sd	x3,8(x1)
    800024d0:	0080006f          	jal	x0,800024d8 <rvtest_code_begin+0x20c8>
    800024d4:	0280006f          	jal	x0,800024fc <rvtest_code_begin+0x20ec>
    800024d8:	0000d1b7          	lui	x3,0xd
    800024dc:	ccc1819b          	addiw	x3,x3,-820 # cccc <offset+0xcccc>
    800024e0:	00000917          	auipc	x18,0x0
    800024e4:	ff490913          	addi	x18,x18,-12 # 800024d4 <rvtest_code_begin+0x20c4>
    800024e8:	fdf0011b          	addiw	x2,x0,-33
    800024ec:	40290933          	sub	x18,x18,x2
    800024f0:	fdf908e7          	jalr	x17,-33(x18)
    800024f4:	000121b7          	lui	x3,0x12
    800024f8:	3ab1819b          	addiw	x3,x3,939 # 123ab <offset+0x123ab>
    800024fc:	0030b823          	sd	x3,16(x1)
    80002500:	00003097          	auipc	x1,0x3
    80002504:	0e008093          	addi	x1,x1,224 # 800055e0 <signature_63_0>
    80002508:	0000d1b7          	lui	x3,0xd
    8000250c:	ccc1819b          	addiw	x3,x3,-820 # cccc <offset+0xcccc>
    80002510:	00000997          	auipc	x19,0x0
    80002514:	01c98993          	addi	x19,x19,28 # 8000252c <rvtest_code_begin+0x211c>
    80002518:	fbf0011b          	addiw	x2,x0,-65
    8000251c:	402989b3          	sub	x19,x19,x2
    80002520:	fbf98967          	jalr	x18,-65(x19)
    80002524:	000121b7          	lui	x3,0x12
    80002528:	3ab1819b          	addiw	x3,x3,939 # 123ab <offset+0x123ab>
    8000252c:	0030b023          	sd	x3,0(x1)
    80002530:	0000d1b7          	lui	x3,0xd
    80002534:	ccc1819b          	addiw	x3,x3,-820 # cccc <offset+0xcccc>
    80002538:	00000a17          	auipc	x20,0x0
    8000253c:	01ca0a13          	addi	x20,x20,28 # 80002554 <rvtest_code_begin+0x2144>
    80002540:	f7f0011b          	addiw	x2,x0,-129
    80002544:	402a0a33          	sub	x20,x20,x2
    80002548:	f7fa09e7          	jalr	x19,-129(x20)
    8000254c:	000121b7          	lui	x3,0x12
    80002550:	3ab1819b          	addiw	x3,x3,939 # 123ab <offset+0x123ab>
    80002554:	0030b423          	sd	x3,8(x1)
    80002558:	0080006f          	jal	x0,80002560 <rvtest_code_begin+0x2150>
    8000255c:	0280006f          	jal	x0,80002584 <rvtest_code_begin+0x2174>
    80002560:	0000d1b7          	lui	x3,0xd
    80002564:	ccc1819b          	addiw	x3,x3,-820 # cccc <offset+0xcccc>
    80002568:	00000a97          	auipc	x21,0x0
    8000256c:	ff4a8a93          	addi	x21,x21,-12 # 8000255c <rvtest_code_begin+0x214c>
    80002570:	eff0011b          	addiw	x2,x0,-257
    80002574:	402a8ab3          	sub	x21,x21,x2
    80002578:	effa8a67          	jalr	x20,-257(x21)
    8000257c:	000121b7          	lui	x3,0x12
    80002580:	3ab1819b          	addiw	x3,x3,939 # 123ab <offset+0x123ab>
    80002584:	0030b823          	sd	x3,16(x1)
    80002588:	00003097          	auipc	x1,0x3
    8000258c:	07008093          	addi	x1,x1,112 # 800055f8 <signature_64_0>
    80002590:	0000d1b7          	lui	x3,0xd
    80002594:	ccc1819b          	addiw	x3,x3,-820 # cccc <offset+0xcccc>
    80002598:	00000b17          	auipc	x22,0x0
    8000259c:	01cb0b13          	addi	x22,x22,28 # 800025b4 <rvtest_code_begin+0x21a4>
    800025a0:	dff0011b          	addiw	x2,x0,-513
    800025a4:	402b0b33          	sub	x22,x22,x2
    800025a8:	dffb0ae7          	jalr	x21,-513(x22)
    800025ac:	000121b7          	lui	x3,0x12
    800025b0:	3ab1819b          	addiw	x3,x3,939 # 123ab <offset+0x123ab>
    800025b4:	0030b023          	sd	x3,0(x1)
    800025b8:	0000d1b7          	lui	x3,0xd
    800025bc:	ccc1819b          	addiw	x3,x3,-820 # cccc <offset+0xcccc>
    800025c0:	00000b97          	auipc	x23,0x0
    800025c4:	01cb8b93          	addi	x23,x23,28 # 800025dc <rvtest_code_begin+0x21cc>
    800025c8:	bff0011b          	addiw	x2,x0,-1025
    800025cc:	402b8bb3          	sub	x23,x23,x2
    800025d0:	bffb8b67          	jalr	x22,-1025(x23)
    800025d4:	000121b7          	lui	x3,0x12
    800025d8:	3ab1819b          	addiw	x3,x3,939 # 123ab <offset+0x123ab>
    800025dc:	0030b423          	sd	x3,8(x1)
    800025e0:	0080006f          	jal	x0,800025e8 <rvtest_code_begin+0x21d8>
    800025e4:	0280006f          	jal	x0,8000260c <rvtest_code_begin+0x21fc>
    800025e8:	0000d1b7          	lui	x3,0xd
    800025ec:	ccc1819b          	addiw	x3,x3,-820 # cccc <offset+0xcccc>
    800025f0:	00000c17          	auipc	x24,0x0
    800025f4:	ff4c0c13          	addi	x24,x24,-12 # 800025e4 <rvtest_code_begin+0x21d4>
    800025f8:	7ff0011b          	addiw	x2,x0,2047
    800025fc:	402c0c33          	sub	x24,x24,x2
    80002600:	7ffc0be7          	jalr	x23,2047(x24)
    80002604:	000121b7          	lui	x3,0x12
    80002608:	3ab1819b          	addiw	x3,x3,939 # 123ab <offset+0x123ab>
    8000260c:	0030b823          	sd	x3,16(x1)
    80002610:	00003097          	auipc	x1,0x3
    80002614:	00008093          	addi	x1,x1,0 # 80005610 <signature_65_0>
    80002618:	0000d1b7          	lui	x3,0xd
    8000261c:	ccc1819b          	addiw	x3,x3,-820 # cccc <offset+0xcccc>
    80002620:	00000c97          	auipc	x25,0x0
    80002624:	01cc8c93          	addi	x25,x25,28 # 8000263c <rvtest_code_begin+0x222c>
    80002628:	ffe0011b          	addiw	x2,x0,-2
    8000262c:	402c8cb3          	sub	x25,x25,x2
    80002630:	ffec8c67          	jalr	x24,-2(x25)
    80002634:	000121b7          	lui	x3,0x12
    80002638:	3ab1819b          	addiw	x3,x3,939 # 123ab <offset+0x123ab>
    8000263c:	0030b023          	sd	x3,0(x1)
    80002640:	0000d1b7          	lui	x3,0xd
    80002644:	ccc1819b          	addiw	x3,x3,-820 # cccc <offset+0xcccc>
    80002648:	00000d17          	auipc	x26,0x0
    8000264c:	01cd0d13          	addi	x26,x26,28 # 80002664 <rvtest_code_begin+0x2254>
    80002650:	ffd0011b          	addiw	x2,x0,-3
    80002654:	402d0d33          	sub	x26,x26,x2
    80002658:	ffdd0ce7          	jalr	x25,-3(x26)
    8000265c:	000121b7          	lui	x3,0x12
    80002660:	3ab1819b          	addiw	x3,x3,939 # 123ab <offset+0x123ab>
    80002664:	0030b423          	sd	x3,8(x1)
    80002668:	0080006f          	jal	x0,80002670 <rvtest_code_begin+0x2260>
    8000266c:	0280006f          	jal	x0,80002694 <rvtest_code_begin+0x2284>
    80002670:	0000d1b7          	lui	x3,0xd
    80002674:	ccc1819b          	addiw	x3,x3,-820 # cccc <offset+0xcccc>
    80002678:	00000d97          	auipc	x27,0x0
    8000267c:	ff4d8d93          	addi	x27,x27,-12 # 8000266c <rvtest_code_begin+0x225c>
    80002680:	ffb0011b          	addiw	x2,x0,-5
    80002684:	402d8db3          	sub	x27,x27,x2
    80002688:	ffbd8d67          	jalr	x26,-5(x27)
    8000268c:	000121b7          	lui	x3,0x12
    80002690:	3ab1819b          	addiw	x3,x3,939 # 123ab <offset+0x123ab>
    80002694:	0030b823          	sd	x3,16(x1)
    80002698:	00003097          	auipc	x1,0x3
    8000269c:	f9008093          	addi	x1,x1,-112 # 80005628 <signature_66_0>
    800026a0:	0000d1b7          	lui	x3,0xd
    800026a4:	ccc1819b          	addiw	x3,x3,-820 # cccc <offset+0xcccc>
    800026a8:	00000e17          	auipc	x28,0x0
    800026ac:	01ce0e13          	addi	x28,x28,28 # 800026c4 <rvtest_code_begin+0x22b4>
    800026b0:	ff70011b          	addiw	x2,x0,-9
    800026b4:	402e0e33          	sub	x28,x28,x2
    800026b8:	ff7e0de7          	jalr	x27,-9(x28)
    800026bc:	000121b7          	lui	x3,0x12
    800026c0:	3ab1819b          	addiw	x3,x3,939 # 123ab <offset+0x123ab>
    800026c4:	0030b023          	sd	x3,0(x1)
    800026c8:	0000d1b7          	lui	x3,0xd
    800026cc:	ccc1819b          	addiw	x3,x3,-820 # cccc <offset+0xcccc>
    800026d0:	00000e97          	auipc	x29,0x0
    800026d4:	01ce8e93          	addi	x29,x29,28 # 800026ec <rvtest_code_begin+0x22dc>
    800026d8:	fef0011b          	addiw	x2,x0,-17
    800026dc:	402e8eb3          	sub	x29,x29,x2
    800026e0:	fefe8e67          	jalr	x28,-17(x29)
    800026e4:	000121b7          	lui	x3,0x12
    800026e8:	3ab1819b          	addiw	x3,x3,939 # 123ab <offset+0x123ab>
    800026ec:	0030b423          	sd	x3,8(x1)
    800026f0:	0080006f          	jal	x0,800026f8 <rvtest_code_begin+0x22e8>
    800026f4:	0280006f          	jal	x0,8000271c <rvtest_code_begin+0x230c>
    800026f8:	0000d1b7          	lui	x3,0xd
    800026fc:	ccc1819b          	addiw	x3,x3,-820 # cccc <offset+0xcccc>
    80002700:	00000f17          	auipc	x30,0x0
    80002704:	ff4f0f13          	addi	x30,x30,-12 # 800026f4 <rvtest_code_begin+0x22e4>
    80002708:	fdf0011b          	addiw	x2,x0,-33
    8000270c:	402f0f33          	sub	x30,x30,x2
    80002710:	fdff0ee7          	jalr	x29,-33(x30)
    80002714:	000121b7          	lui	x3,0x12
    80002718:	3ab1819b          	addiw	x3,x3,939 # 123ab <offset+0x123ab>
    8000271c:	0030b823          	sd	x3,16(x1)
    80002720:	00003197          	auipc	x3,0x3
    80002724:	f2018193          	addi	x3,x3,-224 # 80005640 <signature_67_0>
    80002728:	0000d2b7          	lui	x5,0xd
    8000272c:	ccc2829b          	addiw	x5,x5,-820 # cccc <offset+0xcccc>
    80002730:	00000f97          	auipc	x31,0x0
    80002734:	01cf8f93          	addi	x31,x31,28 # 8000274c <rvtest_code_begin+0x233c>
    80002738:	fbf0021b          	addiw	x4,x0,-65
    8000273c:	404f8fb3          	sub	x31,x31,x4
    80002740:	fbff8f67          	jalr	x30,-65(x31)
    80002744:	000122b7          	lui	x5,0x12
    80002748:	3ab2829b          	addiw	x5,x5,939 # 123ab <offset+0x123ab>
    8000274c:	0051b023          	sd	x5,0(x3)
    80002750:	0000d2b7          	lui	x5,0xd
    80002754:	ccc2829b          	addiw	x5,x5,-820 # cccc <offset+0xcccc>
    80002758:	00000097          	auipc	x1,0x0
    8000275c:	01c08093          	addi	x1,x1,28 # 80002774 <rvtest_code_begin+0x2364>
    80002760:	f7f0021b          	addiw	x4,x0,-129
    80002764:	404080b3          	sub	x1,x1,x4
    80002768:	f7f08fe7          	jalr	x31,-129(x1)
    8000276c:	000122b7          	lui	x5,0x12
    80002770:	3ab2829b          	addiw	x5,x5,939 # 123ab <offset+0x123ab>
    80002774:	0051b423          	sd	x5,8(x3)
    80002778:	0080006f          	jal	x0,80002780 <rvtest_code_begin+0x2370>
    8000277c:	0280006f          	jal	x0,800027a4 <rvtest_code_begin+0x2394>
    80002780:	0000d2b7          	lui	x5,0xd
    80002784:	ccc2829b          	addiw	x5,x5,-820 # cccc <offset+0xcccc>
    80002788:	00000117          	auipc	x2,0x0
    8000278c:	ff410113          	addi	x2,x2,-12 # 8000277c <rvtest_code_begin+0x236c>
    80002790:	eff0021b          	addiw	x4,x0,-257
    80002794:	40410133          	sub	x2,x2,x4
    80002798:	eff100e7          	jalr	x1,-257(x2)
    8000279c:	000122b7          	lui	x5,0x12
    800027a0:	3ab2829b          	addiw	x5,x5,939 # 123ab <offset+0x123ab>
    800027a4:	0051b823          	sd	x5,16(x3)
    800027a8:	00003297          	auipc	x5,0x3
    800027ac:	eb028293          	addi	x5,x5,-336 # 80005658 <signature_68_0>
    800027b0:	0000d3b7          	lui	x7,0xd
    800027b4:	ccc3839b          	addiw	x7,x7,-820 # cccc <offset+0xcccc>
    800027b8:	00000117          	auipc	x2,0x0
    800027bc:	01c10113          	addi	x2,x2,28 # 800027d4 <rvtest_code_begin+0x23c4>
    800027c0:	dff0031b          	addiw	x6,x0,-513
    800027c4:	40610133          	sub	x2,x2,x6
    800027c8:	dff100e7          	jalr	x1,-513(x2)
    800027cc:	000123b7          	lui	x7,0x12
    800027d0:	3ab3839b          	addiw	x7,x7,939 # 123ab <offset+0x123ab>
    800027d4:	0072b023          	sd	x7,0(x5)
    800027d8:	0000d3b7          	lui	x7,0xd
    800027dc:	ccc3839b          	addiw	x7,x7,-820 # cccc <offset+0xcccc>
    800027e0:	00000197          	auipc	x3,0x0
    800027e4:	01c18193          	addi	x3,x3,28 # 800027fc <rvtest_code_begin+0x23ec>
    800027e8:	bff0031b          	addiw	x6,x0,-1025
    800027ec:	406181b3          	sub	x3,x3,x6
    800027f0:	bff18167          	jalr	x2,-1025(x3)
    800027f4:	000123b7          	lui	x7,0x12
    800027f8:	3ab3839b          	addiw	x7,x7,939 # 123ab <offset+0x123ab>
    800027fc:	0072b423          	sd	x7,8(x5)
    80002800:	0080006f          	jal	x0,80002808 <rvtest_code_begin+0x23f8>
    80002804:	0280006f          	jal	x0,8000282c <rvtest_code_begin+0x241c>
    80002808:	0000d3b7          	lui	x7,0xd
    8000280c:	ccc3839b          	addiw	x7,x7,-820 # cccc <offset+0xcccc>
    80002810:	00000217          	auipc	x4,0x0
    80002814:	ff420213          	addi	x4,x4,-12 # 80002804 <rvtest_code_begin+0x23f4>
    80002818:	7ff0031b          	addiw	x6,x0,2047
    8000281c:	40620233          	sub	x4,x4,x6
    80002820:	7ff201e7          	jalr	x3,2047(x4) # 0 <offset>
    80002824:	000123b7          	lui	x7,0x12
    80002828:	3ab3839b          	addiw	x7,x7,939 # 123ab <offset+0x123ab>
    8000282c:	0072b823          	sd	x7,16(x5)
    80002830:	00003097          	auipc	x1,0x3
    80002834:	e4008093          	addi	x1,x1,-448 # 80005670 <signature_69_0>
    80002838:	0000d1b7          	lui	x3,0xd
    8000283c:	ccc1819b          	addiw	x3,x3,-820 # cccc <offset+0xcccc>
    80002840:	00000297          	auipc	x5,0x0
    80002844:	01c28293          	addi	x5,x5,28 # 8000285c <rvtest_code_begin+0x244c>
    80002848:	ffe0011b          	addiw	x2,x0,-2
    8000284c:	402282b3          	sub	x5,x5,x2
    80002850:	ffe28267          	jalr	x4,-2(x5)
    80002854:	000121b7          	lui	x3,0x12
    80002858:	3ab1819b          	addiw	x3,x3,939 # 123ab <offset+0x123ab>
    8000285c:	0030b023          	sd	x3,0(x1)
    80002860:	0000d1b7          	lui	x3,0xd
    80002864:	ccc1819b          	addiw	x3,x3,-820 # cccc <offset+0xcccc>
    80002868:	00000317          	auipc	x6,0x0
    8000286c:	01c30313          	addi	x6,x6,28 # 80002884 <rvtest_code_begin+0x2474>
    80002870:	ffd0011b          	addiw	x2,x0,-3
    80002874:	40230333          	sub	x6,x6,x2
    80002878:	ffd302e7          	jalr	x5,-3(x6)
    8000287c:	000121b7          	lui	x3,0x12
    80002880:	3ab1819b          	addiw	x3,x3,939 # 123ab <offset+0x123ab>
    80002884:	0030b423          	sd	x3,8(x1)
    80002888:	0080006f          	jal	x0,80002890 <rvtest_code_begin+0x2480>
    8000288c:	0280006f          	jal	x0,800028b4 <rvtest_code_begin+0x24a4>
    80002890:	0000d1b7          	lui	x3,0xd
    80002894:	ccc1819b          	addiw	x3,x3,-820 # cccc <offset+0xcccc>
    80002898:	00000397          	auipc	x7,0x0
    8000289c:	ff438393          	addi	x7,x7,-12 # 8000288c <rvtest_code_begin+0x247c>
    800028a0:	ffb0011b          	addiw	x2,x0,-5
    800028a4:	402383b3          	sub	x7,x7,x2
    800028a8:	ffb38367          	jalr	x6,-5(x7)
    800028ac:	000121b7          	lui	x3,0x12
    800028b0:	3ab1819b          	addiw	x3,x3,939 # 123ab <offset+0x123ab>
    800028b4:	0030b823          	sd	x3,16(x1)
    800028b8:	00003097          	auipc	x1,0x3
    800028bc:	dd008093          	addi	x1,x1,-560 # 80005688 <signature_70_0>
    800028c0:	0000d1b7          	lui	x3,0xd
    800028c4:	ccc1819b          	addiw	x3,x3,-820 # cccc <offset+0xcccc>
    800028c8:	00000417          	auipc	x8,0x0
    800028cc:	01c40413          	addi	x8,x8,28 # 800028e4 <rvtest_code_begin+0x24d4>
    800028d0:	ff70011b          	addiw	x2,x0,-9
    800028d4:	40240433          	sub	x8,x8,x2
    800028d8:	ff7403e7          	jalr	x7,-9(x8)
    800028dc:	000121b7          	lui	x3,0x12
    800028e0:	3ab1819b          	addiw	x3,x3,939 # 123ab <offset+0x123ab>
    800028e4:	0030b023          	sd	x3,0(x1)
    800028e8:	0000d1b7          	lui	x3,0xd
    800028ec:	ccc1819b          	addiw	x3,x3,-820 # cccc <offset+0xcccc>
    800028f0:	00000497          	auipc	x9,0x0
    800028f4:	01c48493          	addi	x9,x9,28 # 8000290c <rvtest_code_begin+0x24fc>
    800028f8:	fef0011b          	addiw	x2,x0,-17
    800028fc:	402484b3          	sub	x9,x9,x2
    80002900:	fef48467          	jalr	x8,-17(x9)
    80002904:	000121b7          	lui	x3,0x12
    80002908:	3ab1819b          	addiw	x3,x3,939 # 123ab <offset+0x123ab>
    8000290c:	0030b423          	sd	x3,8(x1)
    80002910:	0080006f          	jal	x0,80002918 <rvtest_code_begin+0x2508>
    80002914:	0280006f          	jal	x0,8000293c <rvtest_code_begin+0x252c>
    80002918:	0000d1b7          	lui	x3,0xd
    8000291c:	ccc1819b          	addiw	x3,x3,-820 # cccc <offset+0xcccc>
    80002920:	00000517          	auipc	x10,0x0
    80002924:	ff450513          	addi	x10,x10,-12 # 80002914 <rvtest_code_begin+0x2504>
    80002928:	fdf0011b          	addiw	x2,x0,-33
    8000292c:	40250533          	sub	x10,x10,x2
    80002930:	fdf504e7          	jalr	x9,-33(x10)
    80002934:	000121b7          	lui	x3,0x12
    80002938:	3ab1819b          	addiw	x3,x3,939 # 123ab <offset+0x123ab>
    8000293c:	0030b823          	sd	x3,16(x1)
    80002940:	00003097          	auipc	x1,0x3
    80002944:	d6008093          	addi	x1,x1,-672 # 800056a0 <signature_71_0>
    80002948:	0000d1b7          	lui	x3,0xd
    8000294c:	ccc1819b          	addiw	x3,x3,-820 # cccc <offset+0xcccc>
    80002950:	00000597          	auipc	x11,0x0
    80002954:	01c58593          	addi	x11,x11,28 # 8000296c <rvtest_code_begin+0x255c>
    80002958:	fbf0011b          	addiw	x2,x0,-65
    8000295c:	402585b3          	sub	x11,x11,x2
    80002960:	fbf58567          	jalr	x10,-65(x11)
    80002964:	000121b7          	lui	x3,0x12
    80002968:	3ab1819b          	addiw	x3,x3,939 # 123ab <offset+0x123ab>
    8000296c:	0030b023          	sd	x3,0(x1)
    80002970:	0000d1b7          	lui	x3,0xd
    80002974:	ccc1819b          	addiw	x3,x3,-820 # cccc <offset+0xcccc>
    80002978:	00000617          	auipc	x12,0x0
    8000297c:	01c60613          	addi	x12,x12,28 # 80002994 <rvtest_code_begin+0x2584>
    80002980:	f7f0011b          	addiw	x2,x0,-129
    80002984:	40260633          	sub	x12,x12,x2
    80002988:	f7f605e7          	jalr	x11,-129(x12)
    8000298c:	000121b7          	lui	x3,0x12
    80002990:	3ab1819b          	addiw	x3,x3,939 # 123ab <offset+0x123ab>
    80002994:	0030b423          	sd	x3,8(x1)
    80002998:	0080006f          	jal	x0,800029a0 <rvtest_code_begin+0x2590>
    8000299c:	0280006f          	jal	x0,800029c4 <rvtest_code_begin+0x25b4>
    800029a0:	0000d1b7          	lui	x3,0xd
    800029a4:	ccc1819b          	addiw	x3,x3,-820 # cccc <offset+0xcccc>
    800029a8:	00000697          	auipc	x13,0x0
    800029ac:	ff468693          	addi	x13,x13,-12 # 8000299c <rvtest_code_begin+0x258c>
    800029b0:	eff0011b          	addiw	x2,x0,-257
    800029b4:	402686b3          	sub	x13,x13,x2
    800029b8:	eff68667          	jalr	x12,-257(x13)
    800029bc:	000121b7          	lui	x3,0x12
    800029c0:	3ab1819b          	addiw	x3,x3,939 # 123ab <offset+0x123ab>
    800029c4:	0030b823          	sd	x3,16(x1)
    800029c8:	00003097          	auipc	x1,0x3
    800029cc:	cf008093          	addi	x1,x1,-784 # 800056b8 <signature_72_0>
    800029d0:	0000d1b7          	lui	x3,0xd
    800029d4:	ccc1819b          	addiw	x3,x3,-820 # cccc <offset+0xcccc>
    800029d8:	00000717          	auipc	x14,0x0
    800029dc:	01c70713          	addi	x14,x14,28 # 800029f4 <rvtest_code_begin+0x25e4>
    800029e0:	dff0011b          	addiw	x2,x0,-513
    800029e4:	40270733          	sub	x14,x14,x2
    800029e8:	dff706e7          	jalr	x13,-513(x14)
    800029ec:	000121b7          	lui	x3,0x12
    800029f0:	3ab1819b          	addiw	x3,x3,939 # 123ab <offset+0x123ab>
    800029f4:	0030b023          	sd	x3,0(x1)
    800029f8:	0000d1b7          	lui	x3,0xd
    800029fc:	ccc1819b          	addiw	x3,x3,-820 # cccc <offset+0xcccc>
    80002a00:	00000797          	auipc	x15,0x0
    80002a04:	01c78793          	addi	x15,x15,28 # 80002a1c <rvtest_code_begin+0x260c>
    80002a08:	bff0011b          	addiw	x2,x0,-1025
    80002a0c:	402787b3          	sub	x15,x15,x2
    80002a10:	bff78767          	jalr	x14,-1025(x15)
    80002a14:	000121b7          	lui	x3,0x12
    80002a18:	3ab1819b          	addiw	x3,x3,939 # 123ab <offset+0x123ab>
    80002a1c:	0030b423          	sd	x3,8(x1)
    80002a20:	0080006f          	jal	x0,80002a28 <rvtest_code_begin+0x2618>
    80002a24:	0280006f          	jal	x0,80002a4c <rvtest_code_begin+0x263c>
    80002a28:	0000d1b7          	lui	x3,0xd
    80002a2c:	ccc1819b          	addiw	x3,x3,-820 # cccc <offset+0xcccc>
    80002a30:	00000817          	auipc	x16,0x0
    80002a34:	ff480813          	addi	x16,x16,-12 # 80002a24 <rvtest_code_begin+0x2614>
    80002a38:	7ff0011b          	addiw	x2,x0,2047
    80002a3c:	40280833          	sub	x16,x16,x2
    80002a40:	7ff807e7          	jalr	x15,2047(x16)
    80002a44:	000121b7          	lui	x3,0x12
    80002a48:	3ab1819b          	addiw	x3,x3,939 # 123ab <offset+0x123ab>
    80002a4c:	0030b823          	sd	x3,16(x1)
    80002a50:	00003097          	auipc	x1,0x3
    80002a54:	c8008093          	addi	x1,x1,-896 # 800056d0 <signature_73_0>
    80002a58:	0000d1b7          	lui	x3,0xd
    80002a5c:	ccc1819b          	addiw	x3,x3,-820 # cccc <offset+0xcccc>
    80002a60:	00000897          	auipc	x17,0x0
    80002a64:	01c88893          	addi	x17,x17,28 # 80002a7c <rvtest_code_begin+0x266c>
    80002a68:	ffe0011b          	addiw	x2,x0,-2
    80002a6c:	402888b3          	sub	x17,x17,x2
    80002a70:	ffe88867          	jalr	x16,-2(x17)
    80002a74:	000121b7          	lui	x3,0x12
    80002a78:	3ab1819b          	addiw	x3,x3,939 # 123ab <offset+0x123ab>
    80002a7c:	0030b023          	sd	x3,0(x1)
    80002a80:	0000d1b7          	lui	x3,0xd
    80002a84:	ccc1819b          	addiw	x3,x3,-820 # cccc <offset+0xcccc>
    80002a88:	00000917          	auipc	x18,0x0
    80002a8c:	01c90913          	addi	x18,x18,28 # 80002aa4 <rvtest_code_begin+0x2694>
    80002a90:	ffd0011b          	addiw	x2,x0,-3
    80002a94:	40290933          	sub	x18,x18,x2
    80002a98:	ffd908e7          	jalr	x17,-3(x18)
    80002a9c:	000121b7          	lui	x3,0x12
    80002aa0:	3ab1819b          	addiw	x3,x3,939 # 123ab <offset+0x123ab>
    80002aa4:	0030b423          	sd	x3,8(x1)
    80002aa8:	0080006f          	jal	x0,80002ab0 <rvtest_code_begin+0x26a0>
    80002aac:	0280006f          	jal	x0,80002ad4 <rvtest_code_begin+0x26c4>
    80002ab0:	0000d1b7          	lui	x3,0xd
    80002ab4:	ccc1819b          	addiw	x3,x3,-820 # cccc <offset+0xcccc>
    80002ab8:	00000997          	auipc	x19,0x0
    80002abc:	ff498993          	addi	x19,x19,-12 # 80002aac <rvtest_code_begin+0x269c>
    80002ac0:	ffb0011b          	addiw	x2,x0,-5
    80002ac4:	402989b3          	sub	x19,x19,x2
    80002ac8:	ffb98967          	jalr	x18,-5(x19)
    80002acc:	000121b7          	lui	x3,0x12
    80002ad0:	3ab1819b          	addiw	x3,x3,939 # 123ab <offset+0x123ab>
    80002ad4:	0030b823          	sd	x3,16(x1)
    80002ad8:	00003097          	auipc	x1,0x3
    80002adc:	c1008093          	addi	x1,x1,-1008 # 800056e8 <signature_74_0>
    80002ae0:	0000d1b7          	lui	x3,0xd
    80002ae4:	ccc1819b          	addiw	x3,x3,-820 # cccc <offset+0xcccc>
    80002ae8:	00000a17          	auipc	x20,0x0
    80002aec:	01ca0a13          	addi	x20,x20,28 # 80002b04 <rvtest_code_begin+0x26f4>
    80002af0:	ff70011b          	addiw	x2,x0,-9
    80002af4:	402a0a33          	sub	x20,x20,x2
    80002af8:	ff7a09e7          	jalr	x19,-9(x20)
    80002afc:	000121b7          	lui	x3,0x12
    80002b00:	3ab1819b          	addiw	x3,x3,939 # 123ab <offset+0x123ab>
    80002b04:	0030b023          	sd	x3,0(x1)
    80002b08:	0000d1b7          	lui	x3,0xd
    80002b0c:	ccc1819b          	addiw	x3,x3,-820 # cccc <offset+0xcccc>
    80002b10:	00000a97          	auipc	x21,0x0
    80002b14:	01ca8a93          	addi	x21,x21,28 # 80002b2c <rvtest_code_begin+0x271c>
    80002b18:	fef0011b          	addiw	x2,x0,-17
    80002b1c:	402a8ab3          	sub	x21,x21,x2
    80002b20:	fefa8a67          	jalr	x20,-17(x21)
    80002b24:	000121b7          	lui	x3,0x12
    80002b28:	3ab1819b          	addiw	x3,x3,939 # 123ab <offset+0x123ab>
    80002b2c:	0030b423          	sd	x3,8(x1)
    80002b30:	0080006f          	jal	x0,80002b38 <rvtest_code_begin+0x2728>
    80002b34:	0280006f          	jal	x0,80002b5c <rvtest_code_begin+0x274c>
    80002b38:	0000d1b7          	lui	x3,0xd
    80002b3c:	ccc1819b          	addiw	x3,x3,-820 # cccc <offset+0xcccc>
    80002b40:	00000b17          	auipc	x22,0x0
    80002b44:	ff4b0b13          	addi	x22,x22,-12 # 80002b34 <rvtest_code_begin+0x2724>
    80002b48:	fdf0011b          	addiw	x2,x0,-33
    80002b4c:	402b0b33          	sub	x22,x22,x2
    80002b50:	fdfb0ae7          	jalr	x21,-33(x22)
    80002b54:	000121b7          	lui	x3,0x12
    80002b58:	3ab1819b          	addiw	x3,x3,939 # 123ab <offset+0x123ab>
    80002b5c:	0030b823          	sd	x3,16(x1)
    80002b60:	00003097          	auipc	x1,0x3
    80002b64:	ba008093          	addi	x1,x1,-1120 # 80005700 <signature_75_0>
    80002b68:	0000d1b7          	lui	x3,0xd
    80002b6c:	ccc1819b          	addiw	x3,x3,-820 # cccc <offset+0xcccc>
    80002b70:	00000b97          	auipc	x23,0x0
    80002b74:	01cb8b93          	addi	x23,x23,28 # 80002b8c <rvtest_code_begin+0x277c>
    80002b78:	fbf0011b          	addiw	x2,x0,-65
    80002b7c:	402b8bb3          	sub	x23,x23,x2
    80002b80:	fbfb8b67          	jalr	x22,-65(x23)
    80002b84:	000121b7          	lui	x3,0x12
    80002b88:	3ab1819b          	addiw	x3,x3,939 # 123ab <offset+0x123ab>
    80002b8c:	0030b023          	sd	x3,0(x1)
    80002b90:	0000d1b7          	lui	x3,0xd
    80002b94:	ccc1819b          	addiw	x3,x3,-820 # cccc <offset+0xcccc>
    80002b98:	00000c17          	auipc	x24,0x0
    80002b9c:	01cc0c13          	addi	x24,x24,28 # 80002bb4 <rvtest_code_begin+0x27a4>
    80002ba0:	f7f0011b          	addiw	x2,x0,-129
    80002ba4:	402c0c33          	sub	x24,x24,x2
    80002ba8:	f7fc0be7          	jalr	x23,-129(x24)
    80002bac:	000121b7          	lui	x3,0x12
    80002bb0:	3ab1819b          	addiw	x3,x3,939 # 123ab <offset+0x123ab>
    80002bb4:	0030b423          	sd	x3,8(x1)
    80002bb8:	0080006f          	jal	x0,80002bc0 <rvtest_code_begin+0x27b0>
    80002bbc:	0280006f          	jal	x0,80002be4 <rvtest_code_begin+0x27d4>
    80002bc0:	0000d1b7          	lui	x3,0xd
    80002bc4:	ccc1819b          	addiw	x3,x3,-820 # cccc <offset+0xcccc>
    80002bc8:	00000c97          	auipc	x25,0x0
    80002bcc:	ff4c8c93          	addi	x25,x25,-12 # 80002bbc <rvtest_code_begin+0x27ac>
    80002bd0:	eff0011b          	addiw	x2,x0,-257
    80002bd4:	402c8cb3          	sub	x25,x25,x2
    80002bd8:	effc8c67          	jalr	x24,-257(x25)
    80002bdc:	000121b7          	lui	x3,0x12
    80002be0:	3ab1819b          	addiw	x3,x3,939 # 123ab <offset+0x123ab>
    80002be4:	0030b823          	sd	x3,16(x1)
    80002be8:	00003097          	auipc	x1,0x3
    80002bec:	b3008093          	addi	x1,x1,-1232 # 80005718 <signature_76_0>
    80002bf0:	0000d1b7          	lui	x3,0xd
    80002bf4:	ccc1819b          	addiw	x3,x3,-820 # cccc <offset+0xcccc>
    80002bf8:	00000d17          	auipc	x26,0x0
    80002bfc:	01cd0d13          	addi	x26,x26,28 # 80002c14 <rvtest_code_begin+0x2804>
    80002c00:	dff0011b          	addiw	x2,x0,-513
    80002c04:	402d0d33          	sub	x26,x26,x2
    80002c08:	dffd0ce7          	jalr	x25,-513(x26)
    80002c0c:	000121b7          	lui	x3,0x12
    80002c10:	3ab1819b          	addiw	x3,x3,939 # 123ab <offset+0x123ab>
    80002c14:	0030b023          	sd	x3,0(x1)
    80002c18:	0000d1b7          	lui	x3,0xd
    80002c1c:	ccc1819b          	addiw	x3,x3,-820 # cccc <offset+0xcccc>
    80002c20:	00000d97          	auipc	x27,0x0
    80002c24:	01cd8d93          	addi	x27,x27,28 # 80002c3c <rvtest_code_begin+0x282c>
    80002c28:	bff0011b          	addiw	x2,x0,-1025
    80002c2c:	402d8db3          	sub	x27,x27,x2
    80002c30:	bffd8d67          	jalr	x26,-1025(x27)
    80002c34:	000121b7          	lui	x3,0x12
    80002c38:	3ab1819b          	addiw	x3,x3,939 # 123ab <offset+0x123ab>
    80002c3c:	0030b423          	sd	x3,8(x1)
    80002c40:	0080006f          	jal	x0,80002c48 <rvtest_code_begin+0x2838>
    80002c44:	0280006f          	jal	x0,80002c6c <rvtest_code_begin+0x285c>
    80002c48:	0000d1b7          	lui	x3,0xd
    80002c4c:	ccc1819b          	addiw	x3,x3,-820 # cccc <offset+0xcccc>
    80002c50:	00000e17          	auipc	x28,0x0
    80002c54:	ff4e0e13          	addi	x28,x28,-12 # 80002c44 <rvtest_code_begin+0x2834>
    80002c58:	7ff0011b          	addiw	x2,x0,2047
    80002c5c:	402e0e33          	sub	x28,x28,x2
    80002c60:	7ffe0de7          	jalr	x27,2047(x28)
    80002c64:	000121b7          	lui	x3,0x12
    80002c68:	3ab1819b          	addiw	x3,x3,939 # 123ab <offset+0x123ab>
    80002c6c:	0030b823          	sd	x3,16(x1)
    80002c70:	00003097          	auipc	x1,0x3
    80002c74:	ac008093          	addi	x1,x1,-1344 # 80005730 <signature_77_0>
    80002c78:	0000d1b7          	lui	x3,0xd
    80002c7c:	ccc1819b          	addiw	x3,x3,-820 # cccc <offset+0xcccc>
    80002c80:	00000e97          	auipc	x29,0x0
    80002c84:	01ce8e93          	addi	x29,x29,28 # 80002c9c <rvtest_code_begin+0x288c>
    80002c88:	ffe0011b          	addiw	x2,x0,-2
    80002c8c:	402e8eb3          	sub	x29,x29,x2
    80002c90:	ffee8e67          	jalr	x28,-2(x29)
    80002c94:	000121b7          	lui	x3,0x12
    80002c98:	3ab1819b          	addiw	x3,x3,939 # 123ab <offset+0x123ab>
    80002c9c:	0030b023          	sd	x3,0(x1)
    80002ca0:	0000d1b7          	lui	x3,0xd
    80002ca4:	ccc1819b          	addiw	x3,x3,-820 # cccc <offset+0xcccc>
    80002ca8:	00000f17          	auipc	x30,0x0
    80002cac:	01cf0f13          	addi	x30,x30,28 # 80002cc4 <rvtest_code_begin+0x28b4>
    80002cb0:	ffd0011b          	addiw	x2,x0,-3
    80002cb4:	402f0f33          	sub	x30,x30,x2
    80002cb8:	ffdf0ee7          	jalr	x29,-3(x30)
    80002cbc:	000121b7          	lui	x3,0x12
    80002cc0:	3ab1819b          	addiw	x3,x3,939 # 123ab <offset+0x123ab>
    80002cc4:	0030b423          	sd	x3,8(x1)
    80002cc8:	0080006f          	jal	x0,80002cd0 <rvtest_code_begin+0x28c0>
    80002ccc:	0280006f          	jal	x0,80002cf4 <rvtest_code_begin+0x28e4>
    80002cd0:	0000d1b7          	lui	x3,0xd
    80002cd4:	ccc1819b          	addiw	x3,x3,-820 # cccc <offset+0xcccc>
    80002cd8:	00000f97          	auipc	x31,0x0
    80002cdc:	ff4f8f93          	addi	x31,x31,-12 # 80002ccc <rvtest_code_begin+0x28bc>
    80002ce0:	ffb0011b          	addiw	x2,x0,-5
    80002ce4:	402f8fb3          	sub	x31,x31,x2
    80002ce8:	ffbf8f67          	jalr	x30,-5(x31)
    80002cec:	000121b7          	lui	x3,0x12
    80002cf0:	3ab1819b          	addiw	x3,x3,939 # 123ab <offset+0x123ab>
    80002cf4:	0030b823          	sd	x3,16(x1)
    80002cf8:	00003197          	auipc	x3,0x3
    80002cfc:	a5018193          	addi	x3,x3,-1456 # 80005748 <signature_78_0>
    80002d00:	0000d2b7          	lui	x5,0xd
    80002d04:	ccc2829b          	addiw	x5,x5,-820 # cccc <offset+0xcccc>
    80002d08:	00000097          	auipc	x1,0x0
    80002d0c:	01c08093          	addi	x1,x1,28 # 80002d24 <rvtest_code_begin+0x2914>
    80002d10:	ff70021b          	addiw	x4,x0,-9
    80002d14:	404080b3          	sub	x1,x1,x4
    80002d18:	ff708fe7          	jalr	x31,-9(x1)
    80002d1c:	000122b7          	lui	x5,0x12
    80002d20:	3ab2829b          	addiw	x5,x5,939 # 123ab <offset+0x123ab>
    80002d24:	0051b023          	sd	x5,0(x3)
    80002d28:	0000d2b7          	lui	x5,0xd
    80002d2c:	ccc2829b          	addiw	x5,x5,-820 # cccc <offset+0xcccc>
    80002d30:	00000117          	auipc	x2,0x0
    80002d34:	01c10113          	addi	x2,x2,28 # 80002d4c <rvtest_code_begin+0x293c>
    80002d38:	fef0021b          	addiw	x4,x0,-17
    80002d3c:	40410133          	sub	x2,x2,x4
    80002d40:	fef100e7          	jalr	x1,-17(x2)
    80002d44:	000122b7          	lui	x5,0x12
    80002d48:	3ab2829b          	addiw	x5,x5,939 # 123ab <offset+0x123ab>
    80002d4c:	0051b423          	sd	x5,8(x3)
    80002d50:	0080006f          	jal	x0,80002d58 <rvtest_code_begin+0x2948>
    80002d54:	0280006f          	jal	x0,80002d7c <rvtest_code_begin+0x296c>
    80002d58:	0000d2b7          	lui	x5,0xd
    80002d5c:	ccc2829b          	addiw	x5,x5,-820 # cccc <offset+0xcccc>
    80002d60:	00000117          	auipc	x2,0x0
    80002d64:	ff410113          	addi	x2,x2,-12 # 80002d54 <rvtest_code_begin+0x2944>
    80002d68:	fdf0021b          	addiw	x4,x0,-33
    80002d6c:	40410133          	sub	x2,x2,x4
    80002d70:	fdf100e7          	jalr	x1,-33(x2)
    80002d74:	000122b7          	lui	x5,0x12
    80002d78:	3ab2829b          	addiw	x5,x5,939 # 123ab <offset+0x123ab>
    80002d7c:	0051b823          	sd	x5,16(x3)
    80002d80:	00003097          	auipc	x1,0x3
    80002d84:	9e008093          	addi	x1,x1,-1568 # 80005760 <signature_79_0>
    80002d88:	0000d3b7          	lui	x7,0xd
    80002d8c:	ccc3839b          	addiw	x7,x7,-820 # cccc <offset+0xcccc>
    80002d90:	00000197          	auipc	x3,0x0
    80002d94:	01c18193          	addi	x3,x3,28 # 80002dac <rvtest_code_begin+0x299c>
    80002d98:	fbf0031b          	addiw	x6,x0,-65
    80002d9c:	406181b3          	sub	x3,x3,x6
    80002da0:	fbf18167          	jalr	x2,-65(x3)
    80002da4:	000123b7          	lui	x7,0x12
    80002da8:	3ab3839b          	addiw	x7,x7,939 # 123ab <offset+0x123ab>
    80002dac:	0070b023          	sd	x7,0(x1)
    80002db0:	0000d3b7          	lui	x7,0xd
    80002db4:	ccc3839b          	addiw	x7,x7,-820 # cccc <offset+0xcccc>
    80002db8:	00000217          	auipc	x4,0x0
    80002dbc:	01c20213          	addi	x4,x4,28 # 80002dd4 <rvtest_code_begin+0x29c4>
    80002dc0:	f7f0031b          	addiw	x6,x0,-129
    80002dc4:	40620233          	sub	x4,x4,x6
    80002dc8:	f7f201e7          	jalr	x3,-129(x4) # 0 <offset>
    80002dcc:	000123b7          	lui	x7,0x12
    80002dd0:	3ab3839b          	addiw	x7,x7,939 # 123ab <offset+0x123ab>
    80002dd4:	0070b423          	sd	x7,8(x1)
    80002dd8:	0080006f          	jal	x0,80002de0 <rvtest_code_begin+0x29d0>
    80002ddc:	0280006f          	jal	x0,80002e04 <rvtest_code_begin+0x29f4>
    80002de0:	0000d3b7          	lui	x7,0xd
    80002de4:	ccc3839b          	addiw	x7,x7,-820 # cccc <offset+0xcccc>
    80002de8:	00000297          	auipc	x5,0x0
    80002dec:	ff428293          	addi	x5,x5,-12 # 80002ddc <rvtest_code_begin+0x29cc>
    80002df0:	eff0031b          	addiw	x6,x0,-257
    80002df4:	406282b3          	sub	x5,x5,x6
    80002df8:	eff28267          	jalr	x4,-257(x5)
    80002dfc:	000123b7          	lui	x7,0x12
    80002e00:	3ab3839b          	addiw	x7,x7,939 # 123ab <offset+0x123ab>
    80002e04:	0070b823          	sd	x7,16(x1)
    80002e08:	00003097          	auipc	x1,0x3
    80002e0c:	97008093          	addi	x1,x1,-1680 # 80005778 <signature_80_0>
    80002e10:	0000d1b7          	lui	x3,0xd
    80002e14:	ccc1819b          	addiw	x3,x3,-820 # cccc <offset+0xcccc>
    80002e18:	00000317          	auipc	x6,0x0
    80002e1c:	01c30313          	addi	x6,x6,28 # 80002e34 <rvtest_code_begin+0x2a24>
    80002e20:	dff0011b          	addiw	x2,x0,-513
    80002e24:	40230333          	sub	x6,x6,x2
    80002e28:	dff302e7          	jalr	x5,-513(x6)
    80002e2c:	000121b7          	lui	x3,0x12
    80002e30:	3ab1819b          	addiw	x3,x3,939 # 123ab <offset+0x123ab>
    80002e34:	0030b023          	sd	x3,0(x1)
    80002e38:	0000d1b7          	lui	x3,0xd
    80002e3c:	ccc1819b          	addiw	x3,x3,-820 # cccc <offset+0xcccc>
    80002e40:	00000397          	auipc	x7,0x0
    80002e44:	01c38393          	addi	x7,x7,28 # 80002e5c <rvtest_code_begin+0x2a4c>
    80002e48:	bff0011b          	addiw	x2,x0,-1025
    80002e4c:	402383b3          	sub	x7,x7,x2
    80002e50:	bff38367          	jalr	x6,-1025(x7)
    80002e54:	000121b7          	lui	x3,0x12
    80002e58:	3ab1819b          	addiw	x3,x3,939 # 123ab <offset+0x123ab>
    80002e5c:	0030b423          	sd	x3,8(x1)
    80002e60:	0080006f          	jal	x0,80002e68 <rvtest_code_begin+0x2a58>
    80002e64:	0280006f          	jal	x0,80002e8c <rvtest_code_begin+0x2a7c>
    80002e68:	0000d1b7          	lui	x3,0xd
    80002e6c:	ccc1819b          	addiw	x3,x3,-820 # cccc <offset+0xcccc>
    80002e70:	00000417          	auipc	x8,0x0
    80002e74:	ff440413          	addi	x8,x8,-12 # 80002e64 <rvtest_code_begin+0x2a54>
    80002e78:	7ff0011b          	addiw	x2,x0,2047
    80002e7c:	40240433          	sub	x8,x8,x2
    80002e80:	7ff403e7          	jalr	x7,2047(x8)
    80002e84:	000121b7          	lui	x3,0x12
    80002e88:	3ab1819b          	addiw	x3,x3,939 # 123ab <offset+0x123ab>
    80002e8c:	0030b823          	sd	x3,16(x1)
    80002e90:	00003097          	auipc	x1,0x3
    80002e94:	90008093          	addi	x1,x1,-1792 # 80005790 <signature_81_0>
    80002e98:	0000d1b7          	lui	x3,0xd
    80002e9c:	ccc1819b          	addiw	x3,x3,-820 # cccc <offset+0xcccc>
    80002ea0:	00000497          	auipc	x9,0x0
    80002ea4:	01c48493          	addi	x9,x9,28 # 80002ebc <rvtest_code_begin+0x2aac>
    80002ea8:	ffe0011b          	addiw	x2,x0,-2
    80002eac:	402484b3          	sub	x9,x9,x2
    80002eb0:	ffe48467          	jalr	x8,-2(x9)
    80002eb4:	000121b7          	lui	x3,0x12
    80002eb8:	3ab1819b          	addiw	x3,x3,939 # 123ab <offset+0x123ab>
    80002ebc:	0030b023          	sd	x3,0(x1)
    80002ec0:	0000d1b7          	lui	x3,0xd
    80002ec4:	ccc1819b          	addiw	x3,x3,-820 # cccc <offset+0xcccc>
    80002ec8:	00000517          	auipc	x10,0x0
    80002ecc:	01c50513          	addi	x10,x10,28 # 80002ee4 <rvtest_code_begin+0x2ad4>
    80002ed0:	ffd0011b          	addiw	x2,x0,-3
    80002ed4:	40250533          	sub	x10,x10,x2
    80002ed8:	ffd504e7          	jalr	x9,-3(x10)
    80002edc:	000121b7          	lui	x3,0x12
    80002ee0:	3ab1819b          	addiw	x3,x3,939 # 123ab <offset+0x123ab>
    80002ee4:	0030b423          	sd	x3,8(x1)
    80002ee8:	0080006f          	jal	x0,80002ef0 <rvtest_code_begin+0x2ae0>
    80002eec:	0280006f          	jal	x0,80002f14 <rvtest_code_begin+0x2b04>
    80002ef0:	0000d1b7          	lui	x3,0xd
    80002ef4:	ccc1819b          	addiw	x3,x3,-820 # cccc <offset+0xcccc>
    80002ef8:	00000597          	auipc	x11,0x0
    80002efc:	ff458593          	addi	x11,x11,-12 # 80002eec <rvtest_code_begin+0x2adc>
    80002f00:	ffb0011b          	addiw	x2,x0,-5
    80002f04:	402585b3          	sub	x11,x11,x2
    80002f08:	ffb58567          	jalr	x10,-5(x11)
    80002f0c:	000121b7          	lui	x3,0x12
    80002f10:	3ab1819b          	addiw	x3,x3,939 # 123ab <offset+0x123ab>
    80002f14:	0030b823          	sd	x3,16(x1)
    80002f18:	00003097          	auipc	x1,0x3
    80002f1c:	89008093          	addi	x1,x1,-1904 # 800057a8 <signature_82_0>
    80002f20:	0000d1b7          	lui	x3,0xd
    80002f24:	ccc1819b          	addiw	x3,x3,-820 # cccc <offset+0xcccc>
    80002f28:	00000617          	auipc	x12,0x0
    80002f2c:	01c60613          	addi	x12,x12,28 # 80002f44 <rvtest_code_begin+0x2b34>
    80002f30:	ff70011b          	addiw	x2,x0,-9
    80002f34:	40260633          	sub	x12,x12,x2
    80002f38:	ff7605e7          	jalr	x11,-9(x12)
    80002f3c:	000121b7          	lui	x3,0x12
    80002f40:	3ab1819b          	addiw	x3,x3,939 # 123ab <offset+0x123ab>
    80002f44:	0030b023          	sd	x3,0(x1)
    80002f48:	0000d1b7          	lui	x3,0xd
    80002f4c:	ccc1819b          	addiw	x3,x3,-820 # cccc <offset+0xcccc>
    80002f50:	00000697          	auipc	x13,0x0
    80002f54:	01c68693          	addi	x13,x13,28 # 80002f6c <rvtest_code_begin+0x2b5c>
    80002f58:	fef0011b          	addiw	x2,x0,-17
    80002f5c:	402686b3          	sub	x13,x13,x2
    80002f60:	fef68667          	jalr	x12,-17(x13)
    80002f64:	000121b7          	lui	x3,0x12
    80002f68:	3ab1819b          	addiw	x3,x3,939 # 123ab <offset+0x123ab>
    80002f6c:	0030b423          	sd	x3,8(x1)
    80002f70:	0080006f          	jal	x0,80002f78 <rvtest_code_begin+0x2b68>
    80002f74:	0280006f          	jal	x0,80002f9c <rvtest_code_begin+0x2b8c>
    80002f78:	0000d1b7          	lui	x3,0xd
    80002f7c:	ccc1819b          	addiw	x3,x3,-820 # cccc <offset+0xcccc>
    80002f80:	00000717          	auipc	x14,0x0
    80002f84:	ff470713          	addi	x14,x14,-12 # 80002f74 <rvtest_code_begin+0x2b64>
    80002f88:	fdf0011b          	addiw	x2,x0,-33
    80002f8c:	40270733          	sub	x14,x14,x2
    80002f90:	fdf706e7          	jalr	x13,-33(x14)
    80002f94:	000121b7          	lui	x3,0x12
    80002f98:	3ab1819b          	addiw	x3,x3,939 # 123ab <offset+0x123ab>
    80002f9c:	0030b823          	sd	x3,16(x1)
    80002fa0:	00003097          	auipc	x1,0x3
    80002fa4:	82008093          	addi	x1,x1,-2016 # 800057c0 <signature_83_0>
    80002fa8:	0000d1b7          	lui	x3,0xd
    80002fac:	ccc1819b          	addiw	x3,x3,-820 # cccc <offset+0xcccc>
    80002fb0:	00000797          	auipc	x15,0x0
    80002fb4:	01c78793          	addi	x15,x15,28 # 80002fcc <rvtest_code_begin+0x2bbc>
    80002fb8:	fbf0011b          	addiw	x2,x0,-65
    80002fbc:	402787b3          	sub	x15,x15,x2
    80002fc0:	fbf78767          	jalr	x14,-65(x15)
    80002fc4:	000121b7          	lui	x3,0x12
    80002fc8:	3ab1819b          	addiw	x3,x3,939 # 123ab <offset+0x123ab>
    80002fcc:	0030b023          	sd	x3,0(x1)
    80002fd0:	0000d1b7          	lui	x3,0xd
    80002fd4:	ccc1819b          	addiw	x3,x3,-820 # cccc <offset+0xcccc>
    80002fd8:	00000817          	auipc	x16,0x0
    80002fdc:	01c80813          	addi	x16,x16,28 # 80002ff4 <rvtest_code_begin+0x2be4>
    80002fe0:	f7f0011b          	addiw	x2,x0,-129
    80002fe4:	40280833          	sub	x16,x16,x2
    80002fe8:	f7f807e7          	jalr	x15,-129(x16)
    80002fec:	000121b7          	lui	x3,0x12
    80002ff0:	3ab1819b          	addiw	x3,x3,939 # 123ab <offset+0x123ab>
    80002ff4:	0030b423          	sd	x3,8(x1)
    80002ff8:	0080006f          	jal	x0,80003000 <rvtest_code_begin+0x2bf0>
    80002ffc:	0280006f          	jal	x0,80003024 <rvtest_code_begin+0x2c14>
    80003000:	0000d1b7          	lui	x3,0xd
    80003004:	ccc1819b          	addiw	x3,x3,-820 # cccc <offset+0xcccc>
    80003008:	00000897          	auipc	x17,0x0
    8000300c:	ff488893          	addi	x17,x17,-12 # 80002ffc <rvtest_code_begin+0x2bec>
    80003010:	eff0011b          	addiw	x2,x0,-257
    80003014:	402888b3          	sub	x17,x17,x2
    80003018:	eff88867          	jalr	x16,-257(x17)
    8000301c:	000121b7          	lui	x3,0x12
    80003020:	3ab1819b          	addiw	x3,x3,939 # 123ab <offset+0x123ab>
    80003024:	0030b823          	sd	x3,16(x1)
    80003028:	00002097          	auipc	x1,0x2
    8000302c:	7b008093          	addi	x1,x1,1968 # 800057d8 <signature_84_0>
    80003030:	0000d1b7          	lui	x3,0xd
    80003034:	ccc1819b          	addiw	x3,x3,-820 # cccc <offset+0xcccc>
    80003038:	00000917          	auipc	x18,0x0
    8000303c:	01c90913          	addi	x18,x18,28 # 80003054 <rvtest_code_begin+0x2c44>
    80003040:	dff0011b          	addiw	x2,x0,-513
    80003044:	40290933          	sub	x18,x18,x2
    80003048:	dff908e7          	jalr	x17,-513(x18)
    8000304c:	000121b7          	lui	x3,0x12
    80003050:	3ab1819b          	addiw	x3,x3,939 # 123ab <offset+0x123ab>
    80003054:	0030b023          	sd	x3,0(x1)
    80003058:	0000d1b7          	lui	x3,0xd
    8000305c:	ccc1819b          	addiw	x3,x3,-820 # cccc <offset+0xcccc>
    80003060:	00000997          	auipc	x19,0x0
    80003064:	01c98993          	addi	x19,x19,28 # 8000307c <rvtest_code_begin+0x2c6c>
    80003068:	bff0011b          	addiw	x2,x0,-1025
    8000306c:	402989b3          	sub	x19,x19,x2
    80003070:	bff98967          	jalr	x18,-1025(x19)
    80003074:	000121b7          	lui	x3,0x12
    80003078:	3ab1819b          	addiw	x3,x3,939 # 123ab <offset+0x123ab>
    8000307c:	0030b423          	sd	x3,8(x1)
    80003080:	0080006f          	jal	x0,80003088 <rvtest_code_begin+0x2c78>
    80003084:	0280006f          	jal	x0,800030ac <rvtest_code_begin+0x2c9c>
    80003088:	0000d1b7          	lui	x3,0xd
    8000308c:	ccc1819b          	addiw	x3,x3,-820 # cccc <offset+0xcccc>
    80003090:	00000a17          	auipc	x20,0x0
    80003094:	ff4a0a13          	addi	x20,x20,-12 # 80003084 <rvtest_code_begin+0x2c74>
    80003098:	7ff0011b          	addiw	x2,x0,2047
    8000309c:	402a0a33          	sub	x20,x20,x2
    800030a0:	7ffa09e7          	jalr	x19,2047(x20)
    800030a4:	000121b7          	lui	x3,0x12
    800030a8:	3ab1819b          	addiw	x3,x3,939 # 123ab <offset+0x123ab>
    800030ac:	0030b823          	sd	x3,16(x1)
    800030b0:	00002097          	auipc	x1,0x2
    800030b4:	74008093          	addi	x1,x1,1856 # 800057f0 <signature_85_0>
    800030b8:	0000d1b7          	lui	x3,0xd
    800030bc:	ccc1819b          	addiw	x3,x3,-820 # cccc <offset+0xcccc>
    800030c0:	00000a97          	auipc	x21,0x0
    800030c4:	01ca8a93          	addi	x21,x21,28 # 800030dc <rvtest_code_begin+0x2ccc>
    800030c8:	ffe0011b          	addiw	x2,x0,-2
    800030cc:	402a8ab3          	sub	x21,x21,x2
    800030d0:	ffea8a67          	jalr	x20,-2(x21)
    800030d4:	000121b7          	lui	x3,0x12
    800030d8:	3ab1819b          	addiw	x3,x3,939 # 123ab <offset+0x123ab>
    800030dc:	0030b023          	sd	x3,0(x1)
    800030e0:	0000d1b7          	lui	x3,0xd
    800030e4:	ccc1819b          	addiw	x3,x3,-820 # cccc <offset+0xcccc>
    800030e8:	00000b17          	auipc	x22,0x0
    800030ec:	01cb0b13          	addi	x22,x22,28 # 80003104 <rvtest_code_begin+0x2cf4>
    800030f0:	ffd0011b          	addiw	x2,x0,-3
    800030f4:	402b0b33          	sub	x22,x22,x2
    800030f8:	ffdb0ae7          	jalr	x21,-3(x22)
    800030fc:	000121b7          	lui	x3,0x12
    80003100:	3ab1819b          	addiw	x3,x3,939 # 123ab <offset+0x123ab>
    80003104:	0030b423          	sd	x3,8(x1)
    80003108:	0080006f          	jal	x0,80003110 <rvtest_code_begin+0x2d00>
    8000310c:	0280006f          	jal	x0,80003134 <rvtest_code_begin+0x2d24>
    80003110:	0000d1b7          	lui	x3,0xd
    80003114:	ccc1819b          	addiw	x3,x3,-820 # cccc <offset+0xcccc>
    80003118:	00000b97          	auipc	x23,0x0
    8000311c:	ff4b8b93          	addi	x23,x23,-12 # 8000310c <rvtest_code_begin+0x2cfc>
    80003120:	ffb0011b          	addiw	x2,x0,-5
    80003124:	402b8bb3          	sub	x23,x23,x2
    80003128:	ffbb8b67          	jalr	x22,-5(x23)
    8000312c:	000121b7          	lui	x3,0x12
    80003130:	3ab1819b          	addiw	x3,x3,939 # 123ab <offset+0x123ab>
    80003134:	0030b823          	sd	x3,16(x1)
    80003138:	00002097          	auipc	x1,0x2
    8000313c:	6d008093          	addi	x1,x1,1744 # 80005808 <signature_86_0>
    80003140:	0000d1b7          	lui	x3,0xd
    80003144:	ccc1819b          	addiw	x3,x3,-820 # cccc <offset+0xcccc>
    80003148:	00000c17          	auipc	x24,0x0
    8000314c:	01cc0c13          	addi	x24,x24,28 # 80003164 <rvtest_code_begin+0x2d54>
    80003150:	ff70011b          	addiw	x2,x0,-9
    80003154:	402c0c33          	sub	x24,x24,x2
    80003158:	ff7c0be7          	jalr	x23,-9(x24)
    8000315c:	000121b7          	lui	x3,0x12
    80003160:	3ab1819b          	addiw	x3,x3,939 # 123ab <offset+0x123ab>
    80003164:	0030b023          	sd	x3,0(x1)
    80003168:	0000d1b7          	lui	x3,0xd
    8000316c:	ccc1819b          	addiw	x3,x3,-820 # cccc <offset+0xcccc>
    80003170:	00000c97          	auipc	x25,0x0
    80003174:	01cc8c93          	addi	x25,x25,28 # 8000318c <rvtest_code_begin+0x2d7c>
    80003178:	fef0011b          	addiw	x2,x0,-17
    8000317c:	402c8cb3          	sub	x25,x25,x2
    80003180:	fefc8c67          	jalr	x24,-17(x25)
    80003184:	000121b7          	lui	x3,0x12
    80003188:	3ab1819b          	addiw	x3,x3,939 # 123ab <offset+0x123ab>
    8000318c:	0030b423          	sd	x3,8(x1)
    80003190:	0080006f          	jal	x0,80003198 <rvtest_code_begin+0x2d88>
    80003194:	0280006f          	jal	x0,800031bc <rvtest_code_begin+0x2dac>
    80003198:	0000d1b7          	lui	x3,0xd
    8000319c:	ccc1819b          	addiw	x3,x3,-820 # cccc <offset+0xcccc>
    800031a0:	00000d17          	auipc	x26,0x0
    800031a4:	ff4d0d13          	addi	x26,x26,-12 # 80003194 <rvtest_code_begin+0x2d84>
    800031a8:	fdf0011b          	addiw	x2,x0,-33
    800031ac:	402d0d33          	sub	x26,x26,x2
    800031b0:	fdfd0ce7          	jalr	x25,-33(x26)
    800031b4:	000121b7          	lui	x3,0x12
    800031b8:	3ab1819b          	addiw	x3,x3,939 # 123ab <offset+0x123ab>
    800031bc:	0030b823          	sd	x3,16(x1)
    800031c0:	00002097          	auipc	x1,0x2
    800031c4:	66008093          	addi	x1,x1,1632 # 80005820 <signature_87_0>
    800031c8:	0000d1b7          	lui	x3,0xd
    800031cc:	ccc1819b          	addiw	x3,x3,-820 # cccc <offset+0xcccc>
    800031d0:	00000d97          	auipc	x27,0x0
    800031d4:	01cd8d93          	addi	x27,x27,28 # 800031ec <rvtest_code_begin+0x2ddc>
    800031d8:	fbf0011b          	addiw	x2,x0,-65
    800031dc:	402d8db3          	sub	x27,x27,x2
    800031e0:	fbfd8d67          	jalr	x26,-65(x27)
    800031e4:	000121b7          	lui	x3,0x12
    800031e8:	3ab1819b          	addiw	x3,x3,939 # 123ab <offset+0x123ab>
    800031ec:	0030b023          	sd	x3,0(x1)
    800031f0:	0000d1b7          	lui	x3,0xd
    800031f4:	ccc1819b          	addiw	x3,x3,-820 # cccc <offset+0xcccc>
    800031f8:	00000e17          	auipc	x28,0x0
    800031fc:	01ce0e13          	addi	x28,x28,28 # 80003214 <rvtest_code_begin+0x2e04>
    80003200:	f7f0011b          	addiw	x2,x0,-129
    80003204:	402e0e33          	sub	x28,x28,x2
    80003208:	f7fe0de7          	jalr	x27,-129(x28)
    8000320c:	000121b7          	lui	x3,0x12
    80003210:	3ab1819b          	addiw	x3,x3,939 # 123ab <offset+0x123ab>
    80003214:	0030b423          	sd	x3,8(x1)
    80003218:	0080006f          	jal	x0,80003220 <rvtest_code_begin+0x2e10>
    8000321c:	0280006f          	jal	x0,80003244 <rvtest_code_begin+0x2e34>
    80003220:	0000d1b7          	lui	x3,0xd
    80003224:	ccc1819b          	addiw	x3,x3,-820 # cccc <offset+0xcccc>
    80003228:	00000e97          	auipc	x29,0x0
    8000322c:	ff4e8e93          	addi	x29,x29,-12 # 8000321c <rvtest_code_begin+0x2e0c>
    80003230:	eff0011b          	addiw	x2,x0,-257
    80003234:	402e8eb3          	sub	x29,x29,x2
    80003238:	effe8e67          	jalr	x28,-257(x29)
    8000323c:	000121b7          	lui	x3,0x12
    80003240:	3ab1819b          	addiw	x3,x3,939 # 123ab <offset+0x123ab>
    80003244:	0030b823          	sd	x3,16(x1)
    80003248:	00002117          	auipc	x2,0x2
    8000324c:	5f010113          	addi	x2,x2,1520 # 80005838 <signature_88_0>
    80003250:	0000d237          	lui	x4,0xd
    80003254:	ccc2021b          	addiw	x4,x4,-820 # cccc <offset+0xcccc>
    80003258:	00000f17          	auipc	x30,0x0
    8000325c:	01cf0f13          	addi	x30,x30,28 # 80003274 <rvtest_code_begin+0x2e64>
    80003260:	dff0019b          	addiw	x3,x0,-513
    80003264:	403f0f33          	sub	x30,x30,x3
    80003268:	dfff0ee7          	jalr	x29,-513(x30)
    8000326c:	00012237          	lui	x4,0x12
    80003270:	3ab2021b          	addiw	x4,x4,939 # 123ab <offset+0x123ab>
    80003274:	00413023          	sd	x4,0(x2)
    80003278:	0000d237          	lui	x4,0xd
    8000327c:	ccc2021b          	addiw	x4,x4,-820 # cccc <offset+0xcccc>
    80003280:	00000f97          	auipc	x31,0x0
    80003284:	01cf8f93          	addi	x31,x31,28 # 8000329c <rvtest_code_begin+0x2e8c>
    80003288:	bff0019b          	addiw	x3,x0,-1025
    8000328c:	403f8fb3          	sub	x31,x31,x3
    80003290:	bfff8f67          	jalr	x30,-1025(x31)
    80003294:	00012237          	lui	x4,0x12
    80003298:	3ab2021b          	addiw	x4,x4,939 # 123ab <offset+0x123ab>
    8000329c:	00413423          	sd	x4,8(x2)
    800032a0:	0080006f          	jal	x0,800032a8 <rvtest_code_begin+0x2e98>
    800032a4:	0280006f          	jal	x0,800032cc <rvtest_code_begin+0x2ebc>
    800032a8:	0000d237          	lui	x4,0xd
    800032ac:	ccc2021b          	addiw	x4,x4,-820 # cccc <offset+0xcccc>
    800032b0:	00000097          	auipc	x1,0x0
    800032b4:	ff408093          	addi	x1,x1,-12 # 800032a4 <rvtest_code_begin+0x2e94>
    800032b8:	7ff0019b          	addiw	x3,x0,2047
    800032bc:	403080b3          	sub	x1,x1,x3
    800032c0:	7ff08fe7          	jalr	x31,2047(x1)
    800032c4:	00012237          	lui	x4,0x12
    800032c8:	3ab2021b          	addiw	x4,x4,939 # 123ab <offset+0x123ab>
    800032cc:	00413823          	sd	x4,16(x2)
    800032d0:	00002217          	auipc	x4,0x2
    800032d4:	58020213          	addi	x4,x4,1408 # 80005850 <signature_89_0>
    800032d8:	0000d337          	lui	x6,0xd
    800032dc:	ccc3031b          	addiw	x6,x6,-820 # cccc <offset+0xcccc>
    800032e0:	00000117          	auipc	x2,0x0
    800032e4:	01c10113          	addi	x2,x2,28 # 800032fc <rvtest_code_begin+0x2eec>
    800032e8:	ffe0029b          	addiw	x5,x0,-2
    800032ec:	40510133          	sub	x2,x2,x5
    800032f0:	ffe100e7          	jalr	x1,-2(x2)
    800032f4:	00012337          	lui	x6,0x12
    800032f8:	3ab3031b          	addiw	x6,x6,939 # 123ab <offset+0x123ab>
    800032fc:	00623023          	sd	x6,0(x4) # 0 <offset>
    80003300:	0000d337          	lui	x6,0xd
    80003304:	ccc3031b          	addiw	x6,x6,-820 # cccc <offset+0xcccc>
    80003308:	00000117          	auipc	x2,0x0
    8000330c:	01c10113          	addi	x2,x2,28 # 80003324 <rvtest_code_begin+0x2f14>
    80003310:	ffd0029b          	addiw	x5,x0,-3
    80003314:	40510133          	sub	x2,x2,x5
    80003318:	ffd100e7          	jalr	x1,-3(x2)
    8000331c:	00012337          	lui	x6,0x12
    80003320:	3ab3031b          	addiw	x6,x6,939 # 123ab <offset+0x123ab>
    80003324:	00623423          	sd	x6,8(x4) # 8 <offset+0x8>
    80003328:	0080006f          	jal	x0,80003330 <rvtest_code_begin+0x2f20>
    8000332c:	0280006f          	jal	x0,80003354 <rvtest_code_begin+0x2f44>
    80003330:	0000d337          	lui	x6,0xd
    80003334:	ccc3031b          	addiw	x6,x6,-820 # cccc <offset+0xcccc>
    80003338:	00000197          	auipc	x3,0x0
    8000333c:	ff418193          	addi	x3,x3,-12 # 8000332c <rvtest_code_begin+0x2f1c>
    80003340:	ffb0029b          	addiw	x5,x0,-5
    80003344:	405181b3          	sub	x3,x3,x5
    80003348:	ffb18167          	jalr	x2,-5(x3)
    8000334c:	00012337          	lui	x6,0x12
    80003350:	3ab3031b          	addiw	x6,x6,939 # 123ab <offset+0x123ab>
    80003354:	00623823          	sd	x6,16(x4) # 10 <offset+0x10>
    80003358:	00002097          	auipc	x1,0x2
    8000335c:	51008093          	addi	x1,x1,1296 # 80005868 <signature_90_0>
    80003360:	0000d3b7          	lui	x7,0xd
    80003364:	ccc3839b          	addiw	x7,x7,-820 # cccc <offset+0xcccc>
    80003368:	00000217          	auipc	x4,0x0
    8000336c:	01c20213          	addi	x4,x4,28 # 80003384 <rvtest_code_begin+0x2f74>
    80003370:	ff70011b          	addiw	x2,x0,-9
    80003374:	40220233          	sub	x4,x4,x2
    80003378:	ff7201e7          	jalr	x3,-9(x4) # 0 <offset>
    8000337c:	000123b7          	lui	x7,0x12
    80003380:	3ab3839b          	addiw	x7,x7,939 # 123ab <offset+0x123ab>
    80003384:	0070b023          	sd	x7,0(x1)
    80003388:	0000d3b7          	lui	x7,0xd
    8000338c:	ccc3839b          	addiw	x7,x7,-820 # cccc <offset+0xcccc>
    80003390:	00000297          	auipc	x5,0x0
    80003394:	01c28293          	addi	x5,x5,28 # 800033ac <rvtest_code_begin+0x2f9c>
    80003398:	fef0011b          	addiw	x2,x0,-17
    8000339c:	402282b3          	sub	x5,x5,x2
    800033a0:	fef28267          	jalr	x4,-17(x5)
    800033a4:	000123b7          	lui	x7,0x12
    800033a8:	3ab3839b          	addiw	x7,x7,939 # 123ab <offset+0x123ab>
    800033ac:	0070b423          	sd	x7,8(x1)
    800033b0:	0080006f          	jal	x0,800033b8 <rvtest_code_begin+0x2fa8>
    800033b4:	0280006f          	jal	x0,800033dc <rvtest_code_begin+0x2fcc>
    800033b8:	0000d3b7          	lui	x7,0xd
    800033bc:	ccc3839b          	addiw	x7,x7,-820 # cccc <offset+0xcccc>
    800033c0:	00000317          	auipc	x6,0x0
    800033c4:	ff430313          	addi	x6,x6,-12 # 800033b4 <rvtest_code_begin+0x2fa4>
    800033c8:	fdf0011b          	addiw	x2,x0,-33
    800033cc:	40230333          	sub	x6,x6,x2
    800033d0:	fdf302e7          	jalr	x5,-33(x6)
    800033d4:	000123b7          	lui	x7,0x12
    800033d8:	3ab3839b          	addiw	x7,x7,939 # 123ab <offset+0x123ab>
    800033dc:	0070b823          	sd	x7,16(x1)
    800033e0:	00002097          	auipc	x1,0x2
    800033e4:	4a008093          	addi	x1,x1,1184 # 80005880 <signature_91_0>
    800033e8:	0000d1b7          	lui	x3,0xd
    800033ec:	ccc1819b          	addiw	x3,x3,-820 # cccc <offset+0xcccc>
    800033f0:	00000397          	auipc	x7,0x0
    800033f4:	01c38393          	addi	x7,x7,28 # 8000340c <rvtest_code_begin+0x2ffc>
    800033f8:	fbf0011b          	addiw	x2,x0,-65
    800033fc:	402383b3          	sub	x7,x7,x2
    80003400:	fbf38367          	jalr	x6,-65(x7)
    80003404:	000121b7          	lui	x3,0x12
    80003408:	3ab1819b          	addiw	x3,x3,939 # 123ab <offset+0x123ab>
    8000340c:	0030b023          	sd	x3,0(x1)
    80003410:	0000d1b7          	lui	x3,0xd
    80003414:	ccc1819b          	addiw	x3,x3,-820 # cccc <offset+0xcccc>
    80003418:	00000417          	auipc	x8,0x0
    8000341c:	01c40413          	addi	x8,x8,28 # 80003434 <rvtest_code_begin+0x3024>
    80003420:	f7f0011b          	addiw	x2,x0,-129
    80003424:	40240433          	sub	x8,x8,x2
    80003428:	f7f403e7          	jalr	x7,-129(x8)
    8000342c:	000121b7          	lui	x3,0x12
    80003430:	3ab1819b          	addiw	x3,x3,939 # 123ab <offset+0x123ab>
    80003434:	0030b423          	sd	x3,8(x1)
    80003438:	0080006f          	jal	x0,80003440 <rvtest_code_begin+0x3030>
    8000343c:	0280006f          	jal	x0,80003464 <rvtest_code_begin+0x3054>
    80003440:	0000d1b7          	lui	x3,0xd
    80003444:	ccc1819b          	addiw	x3,x3,-820 # cccc <offset+0xcccc>
    80003448:	00000497          	auipc	x9,0x0
    8000344c:	ff448493          	addi	x9,x9,-12 # 8000343c <rvtest_code_begin+0x302c>
    80003450:	eff0011b          	addiw	x2,x0,-257
    80003454:	402484b3          	sub	x9,x9,x2
    80003458:	eff48467          	jalr	x8,-257(x9)
    8000345c:	000121b7          	lui	x3,0x12
    80003460:	3ab1819b          	addiw	x3,x3,939 # 123ab <offset+0x123ab>
    80003464:	0030b823          	sd	x3,16(x1)
    80003468:	00002097          	auipc	x1,0x2
    8000346c:	43008093          	addi	x1,x1,1072 # 80005898 <signature_92_0>
    80003470:	0000d1b7          	lui	x3,0xd
    80003474:	ccc1819b          	addiw	x3,x3,-820 # cccc <offset+0xcccc>
    80003478:	00000517          	auipc	x10,0x0
    8000347c:	01c50513          	addi	x10,x10,28 # 80003494 <rvtest_code_begin+0x3084>
    80003480:	dff0011b          	addiw	x2,x0,-513
    80003484:	40250533          	sub	x10,x10,x2
    80003488:	dff504e7          	jalr	x9,-513(x10)
    8000348c:	000121b7          	lui	x3,0x12
    80003490:	3ab1819b          	addiw	x3,x3,939 # 123ab <offset+0x123ab>
    80003494:	0030b023          	sd	x3,0(x1)
    80003498:	0000d1b7          	lui	x3,0xd
    8000349c:	ccc1819b          	addiw	x3,x3,-820 # cccc <offset+0xcccc>
    800034a0:	00000597          	auipc	x11,0x0
    800034a4:	01c58593          	addi	x11,x11,28 # 800034bc <rvtest_code_begin+0x30ac>
    800034a8:	bff0011b          	addiw	x2,x0,-1025
    800034ac:	402585b3          	sub	x11,x11,x2
    800034b0:	bff58567          	jalr	x10,-1025(x11)
    800034b4:	000121b7          	lui	x3,0x12
    800034b8:	3ab1819b          	addiw	x3,x3,939 # 123ab <offset+0x123ab>
    800034bc:	0030b423          	sd	x3,8(x1)
    800034c0:	0080006f          	jal	x0,800034c8 <rvtest_code_begin+0x30b8>
    800034c4:	0280006f          	jal	x0,800034ec <rvtest_code_begin+0x30dc>
    800034c8:	0000d1b7          	lui	x3,0xd
    800034cc:	ccc1819b          	addiw	x3,x3,-820 # cccc <offset+0xcccc>
    800034d0:	00000617          	auipc	x12,0x0
    800034d4:	ff460613          	addi	x12,x12,-12 # 800034c4 <rvtest_code_begin+0x30b4>
    800034d8:	7ff0011b          	addiw	x2,x0,2047
    800034dc:	40260633          	sub	x12,x12,x2
    800034e0:	7ff605e7          	jalr	x11,2047(x12)
    800034e4:	000121b7          	lui	x3,0x12
    800034e8:	3ab1819b          	addiw	x3,x3,939 # 123ab <offset+0x123ab>
    800034ec:	0030b823          	sd	x3,16(x1)
    800034f0:	00002097          	auipc	x1,0x2
    800034f4:	3c008093          	addi	x1,x1,960 # 800058b0 <signature_93_0>
    800034f8:	0000d1b7          	lui	x3,0xd
    800034fc:	ccc1819b          	addiw	x3,x3,-820 # cccc <offset+0xcccc>
    80003500:	00000697          	auipc	x13,0x0
    80003504:	01c68693          	addi	x13,x13,28 # 8000351c <rvtest_code_begin+0x310c>
    80003508:	ffe0011b          	addiw	x2,x0,-2
    8000350c:	402686b3          	sub	x13,x13,x2
    80003510:	ffe68667          	jalr	x12,-2(x13)
    80003514:	000121b7          	lui	x3,0x12
    80003518:	3ab1819b          	addiw	x3,x3,939 # 123ab <offset+0x123ab>
    8000351c:	0030b023          	sd	x3,0(x1)
    80003520:	0000d1b7          	lui	x3,0xd
    80003524:	ccc1819b          	addiw	x3,x3,-820 # cccc <offset+0xcccc>
    80003528:	00000717          	auipc	x14,0x0
    8000352c:	01c70713          	addi	x14,x14,28 # 80003544 <rvtest_code_begin+0x3134>
    80003530:	ffd0011b          	addiw	x2,x0,-3
    80003534:	40270733          	sub	x14,x14,x2
    80003538:	ffd706e7          	jalr	x13,-3(x14)
    8000353c:	000121b7          	lui	x3,0x12
    80003540:	3ab1819b          	addiw	x3,x3,939 # 123ab <offset+0x123ab>
    80003544:	0030b423          	sd	x3,8(x1)
    80003548:	0080006f          	jal	x0,80003550 <rvtest_code_begin+0x3140>
    8000354c:	0280006f          	jal	x0,80003574 <rvtest_code_begin+0x3164>
    80003550:	0000d1b7          	lui	x3,0xd
    80003554:	ccc1819b          	addiw	x3,x3,-820 # cccc <offset+0xcccc>
    80003558:	00000797          	auipc	x15,0x0
    8000355c:	ff478793          	addi	x15,x15,-12 # 8000354c <rvtest_code_begin+0x313c>
    80003560:	ffb0011b          	addiw	x2,x0,-5
    80003564:	402787b3          	sub	x15,x15,x2
    80003568:	ffb78767          	jalr	x14,-5(x15)
    8000356c:	000121b7          	lui	x3,0x12
    80003570:	3ab1819b          	addiw	x3,x3,939 # 123ab <offset+0x123ab>
    80003574:	0030b823          	sd	x3,16(x1)
    80003578:	00002097          	auipc	x1,0x2
    8000357c:	35008093          	addi	x1,x1,848 # 800058c8 <signature_94_0>
    80003580:	0000d1b7          	lui	x3,0xd
    80003584:	ccc1819b          	addiw	x3,x3,-820 # cccc <offset+0xcccc>
    80003588:	00000817          	auipc	x16,0x0
    8000358c:	01c80813          	addi	x16,x16,28 # 800035a4 <rvtest_code_begin+0x3194>
    80003590:	ff70011b          	addiw	x2,x0,-9
    80003594:	40280833          	sub	x16,x16,x2
    80003598:	ff7807e7          	jalr	x15,-9(x16)
    8000359c:	000121b7          	lui	x3,0x12
    800035a0:	3ab1819b          	addiw	x3,x3,939 # 123ab <offset+0x123ab>
    800035a4:	0030b023          	sd	x3,0(x1)
    800035a8:	0000d1b7          	lui	x3,0xd
    800035ac:	ccc1819b          	addiw	x3,x3,-820 # cccc <offset+0xcccc>
    800035b0:	00000897          	auipc	x17,0x0
    800035b4:	01c88893          	addi	x17,x17,28 # 800035cc <rvtest_code_begin+0x31bc>
    800035b8:	fef0011b          	addiw	x2,x0,-17
    800035bc:	402888b3          	sub	x17,x17,x2
    800035c0:	fef88867          	jalr	x16,-17(x17)
    800035c4:	000121b7          	lui	x3,0x12
    800035c8:	3ab1819b          	addiw	x3,x3,939 # 123ab <offset+0x123ab>
    800035cc:	0030b423          	sd	x3,8(x1)
    800035d0:	0080006f          	jal	x0,800035d8 <rvtest_code_begin+0x31c8>
    800035d4:	0280006f          	jal	x0,800035fc <rvtest_code_begin+0x31ec>
    800035d8:	0000d1b7          	lui	x3,0xd
    800035dc:	ccc1819b          	addiw	x3,x3,-820 # cccc <offset+0xcccc>
    800035e0:	00000917          	auipc	x18,0x0
    800035e4:	ff490913          	addi	x18,x18,-12 # 800035d4 <rvtest_code_begin+0x31c4>
    800035e8:	fdf0011b          	addiw	x2,x0,-33
    800035ec:	40290933          	sub	x18,x18,x2
    800035f0:	fdf908e7          	jalr	x17,-33(x18)
    800035f4:	000121b7          	lui	x3,0x12
    800035f8:	3ab1819b          	addiw	x3,x3,939 # 123ab <offset+0x123ab>
    800035fc:	0030b823          	sd	x3,16(x1)
    80003600:	00002097          	auipc	x1,0x2
    80003604:	2e008093          	addi	x1,x1,736 # 800058e0 <signature_95_0>
    80003608:	0000d1b7          	lui	x3,0xd
    8000360c:	ccc1819b          	addiw	x3,x3,-820 # cccc <offset+0xcccc>
    80003610:	00000997          	auipc	x19,0x0
    80003614:	01c98993          	addi	x19,x19,28 # 8000362c <rvtest_code_begin+0x321c>
    80003618:	fbf0011b          	addiw	x2,x0,-65
    8000361c:	402989b3          	sub	x19,x19,x2
    80003620:	fbf98967          	jalr	x18,-65(x19)
    80003624:	000121b7          	lui	x3,0x12
    80003628:	3ab1819b          	addiw	x3,x3,939 # 123ab <offset+0x123ab>
    8000362c:	0030b023          	sd	x3,0(x1)
    80003630:	0000d1b7          	lui	x3,0xd
    80003634:	ccc1819b          	addiw	x3,x3,-820 # cccc <offset+0xcccc>
    80003638:	00000a17          	auipc	x20,0x0
    8000363c:	01ca0a13          	addi	x20,x20,28 # 80003654 <rvtest_code_begin+0x3244>
    80003640:	f7f0011b          	addiw	x2,x0,-129
    80003644:	402a0a33          	sub	x20,x20,x2
    80003648:	f7fa09e7          	jalr	x19,-129(x20)
    8000364c:	000121b7          	lui	x3,0x12
    80003650:	3ab1819b          	addiw	x3,x3,939 # 123ab <offset+0x123ab>
    80003654:	0030b423          	sd	x3,8(x1)
    80003658:	0080006f          	jal	x0,80003660 <rvtest_code_begin+0x3250>
    8000365c:	0280006f          	jal	x0,80003684 <rvtest_code_begin+0x3274>
    80003660:	0000d1b7          	lui	x3,0xd
    80003664:	ccc1819b          	addiw	x3,x3,-820 # cccc <offset+0xcccc>
    80003668:	00000a97          	auipc	x21,0x0
    8000366c:	ff4a8a93          	addi	x21,x21,-12 # 8000365c <rvtest_code_begin+0x324c>
    80003670:	eff0011b          	addiw	x2,x0,-257
    80003674:	402a8ab3          	sub	x21,x21,x2
    80003678:	effa8a67          	jalr	x20,-257(x21)
    8000367c:	000121b7          	lui	x3,0x12
    80003680:	3ab1819b          	addiw	x3,x3,939 # 123ab <offset+0x123ab>
    80003684:	0030b823          	sd	x3,16(x1)
    80003688:	00002097          	auipc	x1,0x2
    8000368c:	27008093          	addi	x1,x1,624 # 800058f8 <signature_96_0>
    80003690:	0000d1b7          	lui	x3,0xd
    80003694:	ccc1819b          	addiw	x3,x3,-820 # cccc <offset+0xcccc>
    80003698:	00000b17          	auipc	x22,0x0
    8000369c:	01cb0b13          	addi	x22,x22,28 # 800036b4 <rvtest_code_begin+0x32a4>
    800036a0:	dff0011b          	addiw	x2,x0,-513
    800036a4:	402b0b33          	sub	x22,x22,x2
    800036a8:	dffb0ae7          	jalr	x21,-513(x22)
    800036ac:	000121b7          	lui	x3,0x12
    800036b0:	3ab1819b          	addiw	x3,x3,939 # 123ab <offset+0x123ab>
    800036b4:	0030b023          	sd	x3,0(x1)
    800036b8:	0000d1b7          	lui	x3,0xd
    800036bc:	ccc1819b          	addiw	x3,x3,-820 # cccc <offset+0xcccc>
    800036c0:	00000b97          	auipc	x23,0x0
    800036c4:	01cb8b93          	addi	x23,x23,28 # 800036dc <rvtest_code_begin+0x32cc>
    800036c8:	bff0011b          	addiw	x2,x0,-1025
    800036cc:	402b8bb3          	sub	x23,x23,x2
    800036d0:	bffb8b67          	jalr	x22,-1025(x23)
    800036d4:	000121b7          	lui	x3,0x12
    800036d8:	3ab1819b          	addiw	x3,x3,939 # 123ab <offset+0x123ab>
    800036dc:	0030b423          	sd	x3,8(x1)
    800036e0:	0080006f          	jal	x0,800036e8 <rvtest_code_begin+0x32d8>
    800036e4:	0280006f          	jal	x0,8000370c <rvtest_code_begin+0x32fc>
    800036e8:	0000d1b7          	lui	x3,0xd
    800036ec:	ccc1819b          	addiw	x3,x3,-820 # cccc <offset+0xcccc>
    800036f0:	00000c17          	auipc	x24,0x0
    800036f4:	ff4c0c13          	addi	x24,x24,-12 # 800036e4 <rvtest_code_begin+0x32d4>
    800036f8:	7ff0011b          	addiw	x2,x0,2047
    800036fc:	402c0c33          	sub	x24,x24,x2
    80003700:	7ffc0be7          	jalr	x23,2047(x24)
    80003704:	000121b7          	lui	x3,0x12
    80003708:	3ab1819b          	addiw	x3,x3,939 # 123ab <offset+0x123ab>
    8000370c:	0030b823          	sd	x3,16(x1)
    80003710:	00002097          	auipc	x1,0x2
    80003714:	20008093          	addi	x1,x1,512 # 80005910 <signature_97_0>
    80003718:	0000d1b7          	lui	x3,0xd
    8000371c:	ccc1819b          	addiw	x3,x3,-820 # cccc <offset+0xcccc>
    80003720:	00000c97          	auipc	x25,0x0
    80003724:	01cc8c93          	addi	x25,x25,28 # 8000373c <rvtest_code_begin+0x332c>
    80003728:	ffe0011b          	addiw	x2,x0,-2
    8000372c:	402c8cb3          	sub	x25,x25,x2
    80003730:	ffec8c67          	jalr	x24,-2(x25)
    80003734:	000121b7          	lui	x3,0x12
    80003738:	3ab1819b          	addiw	x3,x3,939 # 123ab <offset+0x123ab>
    8000373c:	0030b023          	sd	x3,0(x1)
    80003740:	0000d1b7          	lui	x3,0xd
    80003744:	ccc1819b          	addiw	x3,x3,-820 # cccc <offset+0xcccc>
    80003748:	00000d17          	auipc	x26,0x0
    8000374c:	01cd0d13          	addi	x26,x26,28 # 80003764 <rvtest_code_begin+0x3354>
    80003750:	ffd0011b          	addiw	x2,x0,-3
    80003754:	402d0d33          	sub	x26,x26,x2
    80003758:	ffdd0ce7          	jalr	x25,-3(x26)
    8000375c:	000121b7          	lui	x3,0x12
    80003760:	3ab1819b          	addiw	x3,x3,939 # 123ab <offset+0x123ab>
    80003764:	0030b423          	sd	x3,8(x1)
    80003768:	0080006f          	jal	x0,80003770 <rvtest_code_begin+0x3360>
    8000376c:	0280006f          	jal	x0,80003794 <rvtest_code_begin+0x3384>
    80003770:	0000d1b7          	lui	x3,0xd
    80003774:	ccc1819b          	addiw	x3,x3,-820 # cccc <offset+0xcccc>
    80003778:	00000d97          	auipc	x27,0x0
    8000377c:	ff4d8d93          	addi	x27,x27,-12 # 8000376c <rvtest_code_begin+0x335c>
    80003780:	ffb0011b          	addiw	x2,x0,-5
    80003784:	402d8db3          	sub	x27,x27,x2
    80003788:	ffbd8d67          	jalr	x26,-5(x27)
    8000378c:	000121b7          	lui	x3,0x12
    80003790:	3ab1819b          	addiw	x3,x3,939 # 123ab <offset+0x123ab>
    80003794:	0030b823          	sd	x3,16(x1)
    80003798:	00002097          	auipc	x1,0x2
    8000379c:	19008093          	addi	x1,x1,400 # 80005928 <signature_98_0>
    800037a0:	0000d1b7          	lui	x3,0xd
    800037a4:	ccc1819b          	addiw	x3,x3,-820 # cccc <offset+0xcccc>
    800037a8:	00000e17          	auipc	x28,0x0
    800037ac:	01ce0e13          	addi	x28,x28,28 # 800037c4 <rvtest_code_begin+0x33b4>
    800037b0:	ff70011b          	addiw	x2,x0,-9
    800037b4:	402e0e33          	sub	x28,x28,x2
    800037b8:	ff7e0de7          	jalr	x27,-9(x28)
    800037bc:	000121b7          	lui	x3,0x12
    800037c0:	3ab1819b          	addiw	x3,x3,939 # 123ab <offset+0x123ab>
    800037c4:	0030b023          	sd	x3,0(x1)
    800037c8:	0000d1b7          	lui	x3,0xd
    800037cc:	ccc1819b          	addiw	x3,x3,-820 # cccc <offset+0xcccc>
    800037d0:	00000e97          	auipc	x29,0x0
    800037d4:	01ce8e93          	addi	x29,x29,28 # 800037ec <rvtest_code_begin+0x33dc>
    800037d8:	fef0011b          	addiw	x2,x0,-17
    800037dc:	402e8eb3          	sub	x29,x29,x2
    800037e0:	fefe8e67          	jalr	x28,-17(x29)
    800037e4:	000121b7          	lui	x3,0x12
    800037e8:	3ab1819b          	addiw	x3,x3,939 # 123ab <offset+0x123ab>
    800037ec:	0030b423          	sd	x3,8(x1)
    800037f0:	0080006f          	jal	x0,800037f8 <rvtest_code_begin+0x33e8>
    800037f4:	0280006f          	jal	x0,8000381c <rvtest_code_begin+0x340c>
    800037f8:	0000d1b7          	lui	x3,0xd
    800037fc:	ccc1819b          	addiw	x3,x3,-820 # cccc <offset+0xcccc>
    80003800:	00000f17          	auipc	x30,0x0
    80003804:	ff4f0f13          	addi	x30,x30,-12 # 800037f4 <rvtest_code_begin+0x33e4>
    80003808:	fdf0011b          	addiw	x2,x0,-33
    8000380c:	402f0f33          	sub	x30,x30,x2
    80003810:	fdff0ee7          	jalr	x29,-33(x30)
    80003814:	000121b7          	lui	x3,0x12
    80003818:	3ab1819b          	addiw	x3,x3,939 # 123ab <offset+0x123ab>
    8000381c:	0030b823          	sd	x3,16(x1)
    80003820:	00002117          	auipc	x2,0x2
    80003824:	12010113          	addi	x2,x2,288 # 80005940 <signature_99_0>
    80003828:	0000d2b7          	lui	x5,0xd
    8000382c:	ccc2829b          	addiw	x5,x5,-820 # cccc <offset+0xcccc>
    80003830:	00000f97          	auipc	x31,0x0
    80003834:	01cf8f93          	addi	x31,x31,28 # 8000384c <rvtest_code_begin+0x343c>
    80003838:	fbf0021b          	addiw	x4,x0,-65
    8000383c:	404f8fb3          	sub	x31,x31,x4
    80003840:	fbff8f67          	jalr	x30,-65(x31)
    80003844:	000122b7          	lui	x5,0x12
    80003848:	3ab2829b          	addiw	x5,x5,939 # 123ab <offset+0x123ab>
    8000384c:	00513023          	sd	x5,0(x2)
    80003850:	0000d2b7          	lui	x5,0xd
    80003854:	ccc2829b          	addiw	x5,x5,-820 # cccc <offset+0xcccc>
    80003858:	00000097          	auipc	x1,0x0
    8000385c:	01c08093          	addi	x1,x1,28 # 80003874 <rvtest_code_begin+0x3464>
    80003860:	f7f0021b          	addiw	x4,x0,-129
    80003864:	404080b3          	sub	x1,x1,x4
    80003868:	f7f08fe7          	jalr	x31,-129(x1)
    8000386c:	000122b7          	lui	x5,0x12
    80003870:	3ab2829b          	addiw	x5,x5,939 # 123ab <offset+0x123ab>
    80003874:	00513423          	sd	x5,8(x2)
    80003878:	0080006f          	jal	x0,80003880 <rvtest_code_begin+0x3470>
    8000387c:	0280006f          	jal	x0,800038a4 <rvtest_code_begin+0x3494>
    80003880:	0000d2b7          	lui	x5,0xd
    80003884:	ccc2829b          	addiw	x5,x5,-820 # cccc <offset+0xcccc>
    80003888:	00000197          	auipc	x3,0x0
    8000388c:	ff418193          	addi	x3,x3,-12 # 8000387c <rvtest_code_begin+0x346c>
    80003890:	f6a0021b          	addiw	x4,x0,-150
    80003894:	404181b3          	sub	x3,x3,x4
    80003898:	f6a18067          	jalr	x0,-150(x3)
    8000389c:	000122b7          	lui	x5,0x12
    800038a0:	3ab2829b          	addiw	x5,x5,939 # 123ab <offset+0x123ab>
    800038a4:	00513823          	sd	x5,16(x2)
    800038a8:	00000013          	addi	x0,x0,0
    800038ac:	00000013          	addi	x0,x0,0

00000000800038b0 <rvtest_code_end>:
    800038b0:	0ff0000f          	fence	iorw,iorw
    800038b4:	00000073          	ecall
	...
