
interactive_blinky:     file format elf64-littleriscv


Disassembly of section .text:

0000000000000000 <_start>:
   0:	0f4000ef          	jal	x1,f4 <init__port__0__0>
   4:	00000517          	auipc	x10,0x0
   8:	05850513          	addi	x10,x10,88 # 5c <mtvec>
   c:	ffc00593          	addi	x11,x0,-4
  10:	00b57533          	and	x10,x10,x11
  14:	30551073          	csrrw	x0,mtvec,x10
  18:	138000ef          	jal	x1,150 <clear__mtime>
  1c:	02faf537          	lui	x10,0x2faf
  20:	0805051b          	addiw	x10,x10,128 # 2faf080 <__global_pointer$+0x2fad71c>
  24:	118000ef          	jal	x1,13c <set__mtimecmp>
  28:	00800513          	addi	x10,x0,8
  2c:	30052073          	csrrs	x0,mstatus,x10
  30:	08000513          	addi	x10,x0,128
  34:	30452073          	csrrs	x0,mie,x10
  38:	00001537          	lui	x10,0x1
  3c:	8005051b          	addiw	x10,x10,-2048 # 800 <clear__mtime+0x6b0>
  40:	30452073          	csrrs	x0,mie,x10
  44:	00048537          	lui	x10,0x48
  48:	0015051b          	addiw	x10,x10,1 # 48001 <__global_pointer$+0x4669d>
  4c:	00d51513          	slli	x10,x10,0xd
  50:	00200593          	addi	x11,x0,2
  54:	00b52023          	sw	x11,0(x10)

0000000000000058 <loop>:
  58:	0000006f          	jal	x0,58 <loop>

000000000000005c <mtvec>:
  5c:	34202573          	csrrs	x10,mcause,x0
  60:	00054463          	blt	x10,x0,68 <interrupt>
  64:	30200073          	mret

0000000000000068 <interrupt>:
  68:	00151513          	slli	x10,x10,0x1
  6c:	00155513          	srli	x10,x10,0x1
  70:	00700593          	addi	x11,x0,7
  74:	00b51463          	bne	x10,x11,7c <l0>
  78:	014000ef          	jal	x1,8c <machine_timer_interrupt_isr>

000000000000007c <l0>:
  7c:	00b00593          	addi	x11,x0,11
  80:	00b51463          	bne	x10,x11,88 <l1>
  84:	014000ef          	jal	x1,98 <machine_external_interrupt_isr>

0000000000000088 <l1>:
  88:	30200073          	mret

000000000000008c <machine_timer_interrupt_isr>:
  8c:	094000ef          	jal	x1,120 <toggle__data__0__0>
  90:	0c0000ef          	jal	x1,150 <clear__mtime>
  94:	30200073          	mret

0000000000000098 <machine_external_interrupt_isr>:
  98:	4810051b          	addiw	x10,x0,1153
  9c:	01551513          	slli	x10,x10,0x15
  a0:	00450513          	addi	x10,x10,4
  a4:	00052283          	lw	x5,0(x10)
  a8:	0050059b          	addiw	x11,x0,5
  ac:	01d59593          	slli	x11,x11,0x1d
  b0:	00858593          	addi	x11,x11,8
  b4:	0005b503          	ld	x10,0(x11)
  b8:	02faf637          	lui	x12,0x2faf
  bc:	0806061b          	addiw	x12,x12,128 # 2faf080 <__global_pointer$+0x2fad71c>
  c0:	00c50a63          	beq	x10,x12,d4 <set__delay__1>

00000000000000c4 <set__delay__0>:
  c4:	02faf537          	lui	x10,0x2faf
  c8:	0805051b          	addiw	x10,x10,128 # 2faf080 <__global_pointer$+0x2fad71c>
  cc:	070000ef          	jal	x1,13c <set__mtimecmp>
  d0:	0100006f          	jal	x0,e0 <exit>

00000000000000d4 <set__delay__1>:
  d4:	017d8537          	lui	x10,0x17d8
  d8:	8405051b          	addiw	x10,x10,-1984 # 17d7840 <__global_pointer$+0x17d5edc>
  dc:	060000ef          	jal	x1,13c <set__mtimecmp>

00000000000000e0 <exit>:
  e0:	4810051b          	addiw	x10,x0,1153
  e4:	01551513          	slli	x10,x10,0x15
  e8:	00450513          	addi	x10,x10,4
  ec:	00552023          	sw	x5,0(x10)
  f0:	30200073          	mret

00000000000000f4 <init__port__0__0>:
  f4:	0030051b          	addiw	x10,x0,3
  f8:	01e51513          	slli	x10,x10,0x1e
  fc:	00150513          	addi	x10,x10,1
 100:	00000593          	addi	x11,x0,0
 104:	00b50023          	sb	x11,0(x10)
 108:	0030051b          	addiw	x10,x0,3
 10c:	01e51513          	slli	x10,x10,0x1e
 110:	00250513          	addi	x10,x10,2
 114:	00100593          	addi	x11,x0,1
 118:	00b50023          	sb	x11,0(x10)
 11c:	00008067          	jalr	x0,0(x1)

0000000000000120 <toggle__data__0__0>:
 120:	0030051b          	addiw	x10,x0,3
 124:	01e51513          	slli	x10,x10,0x1e
 128:	00150513          	addi	x10,x10,1
 12c:	00050583          	lb	x11,0(x10)
 130:	0015c593          	xori	x11,x11,1
 134:	00b50023          	sb	x11,0(x10)
 138:	00008067          	jalr	x0,0(x1)

000000000000013c <set__mtimecmp>:
 13c:	0050059b          	addiw	x11,x0,5
 140:	01d59593          	slli	x11,x11,0x1d
 144:	00858593          	addi	x11,x11,8
 148:	00a5b023          	sd	x10,0(x11)
 14c:	00008067          	jalr	x0,0(x1)

0000000000000150 <clear__mtime>:
 150:	0050051b          	addiw	x10,x0,5
 154:	01d51513          	slli	x10,x10,0x1d
 158:	00000593          	addi	x11,x0,0
 15c:	00b53023          	sd	x11,0(x10)
 160:	00008067          	jalr	x0,0(x1)
